; Listing generated by Microsoft (R) Optimizing Compiler Version 14.00.50727.762 

	TITLE	d:\Code\Game\Sword3\Source\Common\SO3World\Src\KRegion.cpp
	.686P
	.XMM
	include listing.inc
	.model	flat

INCLUDELIB MSVCRTD
INCLUDELIB OLDNAMES

PUBLIC	?_EEM_DS@?$deque@UKNPC_REVIVE_NODE@@V?$allocator@UKNPC_REVIVE_NODE@@@std@@@std@@2HB ; std::deque<KNPC_REVIVE_NODE,std::allocator<KNPC_REVIVE_NODE> >::_EEM_DS
PUBLIC	?_EEM_DS@?$deque@UKDOODAD_REVIVE_NODE@@V?$allocator@UKDOODAD_REVIVE_NODE@@@std@@@std@@2HB ; std::deque<KDOODAD_REVIVE_NODE,std::allocator<KDOODAD_REVIVE_NODE> >::_EEM_DS
CONST	SEGMENT
$SG176802 DB	'.', 00H, '\', 00H, 'S', 00H, 'r', 00H, 'c', 00H, '\', 00H
	DB	'K', 00H, 'R', 00H, 'e', 00H, 'g', 00H, 'i', 00H, 'o', 00H, 'n'
	DB	00H, '.', 00H, 'c', 00H, 'p', 00H, 'p', 00H, 00H, 00H
$SG176803 DB	'p', 00H, 'S', 00H, 'c', 00H, 'e', 00H, 'n', 00H, 'e', 00H
	DB	00H, 00H
	ORG $+2
$SG176805 DB	'.', 00H, '\', 00H, 'S', 00H, 'r', 00H, 'c', 00H, '\', 00H
	DB	'K', 00H, 'R', 00H, 'e', 00H, 'g', 00H, 'i', 00H, 'o', 00H, 'n'
	DB	00H, '.', 00H, 'c', 00H, 'p', 00H, 'p', 00H, 00H, 00H
$SG176806 DB	'n', 00H, 'R', 00H, 'e', 00H, 'g', 00H, 'i', 00H, 'o', 00H
	DB	'n', 00H, 'X', 00H, ' ', 00H, '>', 00H, '=', 00H, ' ', 00H, '0'
	DB	00H, 00H, 00H
$SG176808 DB	'.', 00H, '\', 00H, 'S', 00H, 'r', 00H, 'c', 00H, '\', 00H
	DB	'K', 00H, 'R', 00H, 'e', 00H, 'g', 00H, 'i', 00H, 'o', 00H, 'n'
	DB	00H, '.', 00H, 'c', 00H, 'p', 00H, 'p', 00H, 00H, 00H
$SG176809 DB	'n', 00H, 'R', 00H, 'e', 00H, 'g', 00H, 'i', 00H, 'o', 00H
	DB	'n', 00H, 'Y', 00H, ' ', 00H, '>', 00H, '=', 00H, ' ', 00H, '0'
	DB	00H, 00H, 00H
$SG176811 DB	'.', 00H, '\', 00H, 'S', 00H, 'r', 00H, 'c', 00H, '\', 00H
	DB	'K', 00H, 'R', 00H, 'e', 00H, 'g', 00H, 'i', 00H, 'o', 00H, 'n'
	DB	00H, '.', 00H, 'c', 00H, 'p', 00H, 'p', 00H, 00H, 00H
$SG176812 DB	'm', 00H, '_', 00H, 'P', 00H, 'l', 00H, 'a', 00H, 'y', 00H
	DB	'e', 00H, 'r', 00H, 'L', 00H, 'i', 00H, 's', 00H, 't', 00H, '.'
	DB	00H, 'I', 00H, 's', 00H, 'E', 00H, 'm', 00H, 'p', 00H, 't', 00H
	DB	'y', 00H, '(', 00H, ')', 00H, 00H, 00H
	ORG $+2
$SG176814 DB	'.', 00H, '\', 00H, 'S', 00H, 'r', 00H, 'c', 00H, '\', 00H
	DB	'K', 00H, 'R', 00H, 'e', 00H, 'g', 00H, 'i', 00H, 'o', 00H, 'n'
	DB	00H, '.', 00H, 'c', 00H, 'p', 00H, 'p', 00H, 00H, 00H
$SG176815 DB	'm', 00H, '_', 00H, 'N', 00H, 'p', 00H, 'c', 00H, 'L', 00H
	DB	'i', 00H, 's', 00H, 't', 00H, '.', 00H, 'I', 00H, 's', 00H, 'E'
	DB	00H, 'm', 00H, 'p', 00H, 't', 00H, 'y', 00H, '(', 00H, ')', 00H
	DB	00H, 00H
$SG176817 DB	'.', 00H, '\', 00H, 'S', 00H, 'r', 00H, 'c', 00H, '\', 00H
	DB	'K', 00H, 'R', 00H, 'e', 00H, 'g', 00H, 'i', 00H, 'o', 00H, 'n'
	DB	00H, '.', 00H, 'c', 00H, 'p', 00H, 'p', 00H, 00H, 00H
$SG176818 DB	'm', 00H, '_', 00H, 'D', 00H, 'o', 00H, 'o', 00H, 'd', 00H
	DB	'a', 00H, 'd', 00H, 'L', 00H, 'i', 00H, 's', 00H, 't', 00H, '.'
	DB	00H, 'I', 00H, 's', 00H, 'E', 00H, 'm', 00H, 'p', 00H, 't', 00H
	DB	'y', 00H, '(', 00H, ')', 00H, 00H, 00H
	ORG $+2
$SG176823 DB	'KRegion::Init', 00H
	ORG $+2
$SG176824 DB	'pTerrainScene', 00H
	ORG $+2
$SG176825 DB	'KGLOG_PROCESS_ERROR(%s) at line %d in %s', 0aH, 00H
	ORG $+2
$SG176832 DB	'KRegion::Init', 00H
	ORG $+2
$SG176833 DB	'm_pCells', 00H
	ORG $+3
$SG176834 DB	'KGLOG_PROCESS_ERROR(%s) at line %d in %s', 0aH, 00H
	ORG $+2
$SG176840 DB	'KRegion::Init', 00H
	ORG $+2
$SG176841 DB	'm_pdwScriptList', 00H
$SG176842 DB	'KGLOG_PROCESS_ERROR(%s) at line %d in %s', 0aH, 00H
	ORG $+2
$SG176863 DB	'.', 00H, '\', 00H, 'S', 00H, 'r', 00H, 'c', 00H, '\', 00H
	DB	'K', 00H, 'R', 00H, 'e', 00H, 'g', 00H, 'i', 00H, 'o', 00H, 'n'
	DB	00H, '.', 00H, 'c', 00H, 'p', 00H, 'p', 00H, 00H, 00H
$SG176864 DB	'p', 00H, 'N', 00H, 'p', 00H, 'c', 00H, 00H, 00H
	ORG $+2
$SG176874 DB	'.', 00H, '\', 00H, 'S', 00H, 'r', 00H, 'c', 00H, '\', 00H
	DB	'K', 00H, 'R', 00H, 'e', 00H, 'g', 00H, 'i', 00H, 'o', 00H, 'n'
	DB	00H, '.', 00H, 'c', 00H, 'p', 00H, 'p', 00H, 00H, 00H
$SG176875 DB	'p', 00H, 'D', 00H, 'o', 00H, 'o', 00H, 'd', 00H, 'a', 00H
	DB	'd', 00H, 00H, 00H
$SG176885 DB	'.', 00H, '\', 00H, 'S', 00H, 'r', 00H, 'c', 00H, '\', 00H
	DB	'K', 00H, 'R', 00H, 'e', 00H, 'g', 00H, 'i', 00H, 'o', 00H, 'n'
	DB	00H, '.', 00H, 'c', 00H, 'p', 00H, 'p', 00H, 00H, 00H
$SG176886 DB	'p', 00H, 'P', 00H, 'l', 00H, 'a', 00H, 'y', 00H, 'e', 00H
	DB	'r', 00H, 00H, 00H
$SG176903 DB	'.', 00H, '\', 00H, 'S', 00H, 'r', 00H, 'c', 00H, '\', 00H
	DB	'K', 00H, 'R', 00H, 'e', 00H, 'g', 00H, 'i', 00H, 'o', 00H, 'n'
	DB	00H, '.', 00H, 'c', 00H, 'p', 00H, 'p', 00H, 00H, 00H
$SG176904 DB	'm', 00H, '_', 00H, 'p', 00H, 'S', 00H, 'c', 00H, 'e', 00H
	DB	'n', 00H, 'e', 00H, 00H, 00H
	ORG $+2
$SG176905 DB	'map', 00H
$SG176906 DB	'maps', 00H
	ORG $+3
$SG176907 DB	'%s/%s/v_%03d/%03d_Region.%s', 00H
$SG176912 DB	'KRegion::LoadTerrain', 00H
	ORG $+3
$SG176913 DB	'piFile', 00H
	ORG $+1
$SG176914 DB	'KGLOG_PROCESS_ERROR(%s) at line %d in %s', 0aH, 00H
	ORG $+2
$SG176921 DB	'KRegion::LoadTerrain', 00H
	ORG $+3
$SG176922 DB	'uFileSize > 0', 00H
	ORG $+2
$SG176923 DB	'KGLOG_PROCESS_ERROR(%s) at line %d in %s', 0aH, 00H
	ORG $+2
$SG176930 DB	'KRegion::LoadTerrain', 00H
	ORG $+3
$SG176931 DB	'piBuffer', 00H
	ORG $+3
$SG176932 DB	'KGLOG_PROCESS_ERROR(%s) at line %d in %s', 0aH, 00H
	ORG $+2
$SG176939 DB	'KRegion::LoadTerrain', 00H
	ORG $+3
$SG176940 DB	'pbyBuffer', 00H
	ORG $+2
$SG176941 DB	'KGLOG_PROCESS_ERROR(%s) at line %d in %s', 0aH, 00H
	ORG $+2
$SG176948 DB	'KRegion::LoadTerrain', 00H
	ORG $+3
$SG176949 DB	'uReadBytes == uFileSize', 00H
$SG176950 DB	'KGLOG_PROCESS_ERROR(%s) at line %d in %s', 0aH, 00H
	ORG $+2
$SG176961 DB	'KRegion::LoadTerrain', 00H
	ORG $+3
$SG176962 DB	'uLeftBytes >= sizeof(KRegionHeader)', 00H
$SG176963 DB	'KGLOG_PROCESS_ERROR(%s) at line %d in %s', 0aH, 00H
	ORG $+2
$SG176972 DB	'KRegion::LoadTerrain', 00H
	ORG $+3
$SG176973 DB	'pFileHeader->nRegionX == m_nRegionX', 00H
$SG176974 DB	'KGLOG_PROCESS_ERROR(%s) at line %d in %s', 0aH, 00H
	ORG $+2
$SG176980 DB	'KRegion::LoadTerrain', 00H
	ORG $+3
$SG176981 DB	'pFileHeader->nRegionY == m_nRegionY', 00H
$SG176982 DB	'KGLOG_PROCESS_ERROR(%s) at line %d in %s', 0aH, 00H
	ORG $+2
$SG176985 DB	'Unsupported map version (%d) at file: (%s)', 0aH, 00H
$SG176991 DB	'KRegion::LoadTerrain', 00H
	ORG $+3
$SG176992 DB	'bRetCode', 00H
	ORG $+3
$SG176993 DB	'KGLOG_PROCESS_ERROR(%s) at line %d in %s', 0aH, 00H
	ORG $+2
$SG177032 DB	'KRegion::LoadTerrainBufferV7', 00H
	ORG $+3
$SG177033 DB	'uLeftBytes >= uBaseCellInfoSize * REGION_GRID_WIDTH * RE'
	DB	'GION_GRID_HEIGHT', 00H
	ORG $+3
$SG177034 DB	'KGLOG_PROCESS_ERROR(%s) at line %d in %s', 0aH, 00H
	ORG $+2
$SG177056 DB	'KRegion::LoadTerrainBufferV7', 00H
	ORG $+3
$SG177057 DB	'uLeftBytes >= sizeof(int)', 00H
	ORG $+2
$SG177058 DB	'KGLOG_PROCESS_ERROR(%s) at line %d in %s', 0aH, 00H
	ORG $+2
$SG177067 DB	'KRegion::LoadTerrainBufferV7', 00H
	ORG $+3
$SG177068 DB	'nExtNormalCellCount >= 0', 00H
	ORG $+3
$SG177069 DB	'KGLOG_PROCESS_ERROR(%s) at line %d in %s', 0aH, 00H
	ORG $+2
$SG177075 DB	'KRegion::LoadTerrainBufferV7', 00H
	ORG $+3
$SG177076 DB	'uLeftBytes >= nExtNormalCellCount * uExtNormalCellDataSi'
	DB	'ze', 00H
	ORG $+1
$SG177077 DB	'KGLOG_PROCESS_ERROR(%s) at line %d in %s', 0aH, 00H
	ORG $+2
$SG177094 DB	'KRegion::LoadTerrainBufferV7', 00H
	ORG $+3
$SG177095 DB	'pAllocNormalCell', 00H
	ORG $+3
$SG177096 DB	'KGLOG_PROCESS_ERROR(%s) at line %d in %s', 0aH, 00H
	ORG $+2
$SG177112 DB	'KRegion::LoadTerrainBufferV7', 00H
	ORG $+3
$SG177113 DB	'bRetCode', 00H
	ORG $+3
$SG177114 DB	'KGLOG_PROCESS_ERROR(%s) at line %d in %s', 0aH, 00H
	ORG $+2
$SG177121 DB	'KRegion::LoadTerrainBufferV7', 00H
	ORG $+3
$SG177122 DB	'uLeftBytes >= sizeof(int)', 00H
	ORG $+2
$SG177123 DB	'KGLOG_PROCESS_ERROR(%s) at line %d in %s', 0aH, 00H
	ORG $+2
$SG177132 DB	'KRegion::LoadTerrainBufferV7', 00H
	ORG $+3
$SG177133 DB	'nExtDynamicCellCount >= 0', 00H
	ORG $+2
$SG177134 DB	'KGLOG_PROCESS_ERROR(%s) at line %d in %s', 0aH, 00H
	ORG $+2
$SG177140 DB	'KRegion::LoadTerrainBufferV7', 00H
	ORG $+3
$SG177141 DB	'uLeftBytes >= nExtDynamicCellCount * uExtDynamicCellData'
	DB	'Size', 00H
	ORG $+3
$SG177142 DB	'KGLOG_PROCESS_ERROR(%s) at line %d in %s', 0aH, 00H
	ORG $+2
$SG177159 DB	'KRegion::LoadTerrainBufferV7', 00H
	ORG $+3
$SG177160 DB	'pAllocDynamicCell', 00H
	ORG $+2
$SG177161 DB	'KGLOG_PROCESS_ERROR(%s) at line %d in %s', 0aH, 00H
	ORG $+2
$SG177179 DB	'KRegion::LoadTerrainBufferV7', 00H
	ORG $+3
$SG177180 DB	'bRetCode', 00H
	ORG $+3
$SG177181 DB	'KGLOG_PROCESS_ERROR(%s) at line %d in %s', 0aH, 00H
	ORG $+2
$SG177192 DB	'KRegion::LoadTerrainBufferV7', 00H
	ORG $+3
$SG177193 DB	'uLeftBytes == 0', 00H
$SG177194 DB	'KGLOG_PROCESS_ERROR(%s) at line %d in %s', 0aH, 00H
	ORG $+2
$SG177263 DB	'KRegion::SaveTerrain', 00H
	ORG $+3
$SG177264 DB	'piBuffer', 00H
	ORG $+3
$SG177265 DB	'KGLOG_PROCESS_ERROR(%s) at line %d in %s', 0aH, 00H
	ORG $+2
$SG177273 DB	'KRegion::SaveTerrain', 00H
	ORG $+3
$SG177274 DB	'pbyBuffer', 00H
	ORG $+2
$SG177275 DB	'KGLOG_PROCESS_ERROR(%s) at line %d in %s', 0aH, 00H
	ORG $+2
$SG177328 DB	'maps', 00H
	ORG $+3
$SG177329 DB	'%s/%s', 00H
	ORG $+2
$SG177336 DB	'KRegion::SaveTerrain', 00H
	ORG $+3
$SG177337 DB	'nRetCode > 0 && nRetCode < (int)sizeof(szPath)', 00H
	ORG $+1
$SG177338 DB	'KGLOG_PROCESS_ERROR(%s) at line %d in %s', 0aH, 00H
	ORG $+2
$SG177340 DB	'maps', 00H
	ORG $+3
$SG177341 DB	'%s/%s/%s', 00H
	ORG $+3
$SG177348 DB	'KRegion::SaveTerrain', 00H
	ORG $+3
$SG177349 DB	'nRetCode > 0 && nRetCode < (int)sizeof(szPath)', 00H
	ORG $+1
$SG177350 DB	'KGLOG_PROCESS_ERROR(%s) at line %d in %s', 0aH, 00H
	ORG $+2
$SG177352 DB	'maps', 00H
	ORG $+3
$SG177353 DB	'%s/%s/%s/v_%03d', 00H
$SG177360 DB	'KRegion::SaveTerrain', 00H
	ORG $+3
$SG177361 DB	'nRetCode > 0 && nRetCode < (int)sizeof(szPath)', 00H
	ORG $+1
$SG177362 DB	'KGLOG_PROCESS_ERROR(%s) at line %d in %s', 0aH, 00H
	ORG $+2
$SG177364 DB	'map', 00H
$SG177365 DB	'maps', 00H
	ORG $+3
$SG177366 DB	'%s/%s/%s/v_%03d/%03d_Region.%s', 00H
	ORG $+1
$SG177373 DB	'KRegion::SaveTerrain', 00H
	ORG $+3
$SG177374 DB	'nRetCode > 0 && nRetCode < (int)sizeof(szPath)', 00H
	ORG $+1
$SG177375 DB	'KGLOG_PROCESS_ERROR(%s) at line %d in %s', 0aH, 00H
	ORG $+2
$SG177378 DB	'wb', 00H
	ORG $+1
$SG177383 DB	'KRegion::SaveTerrain', 00H
	ORG $+3
$SG177384 DB	'pFile', 00H
	ORG $+2
$SG177385 DB	'KGLOG_PROCESS_ERROR(%s) at line %d in %s', 0aH, 00H
	ORG $+2
$SG177391 DB	'KRegion::SaveTerrain', 00H
	ORG $+3
$SG177392 DB	'uWriteNum == 1', 00H
	ORG $+1
$SG177393 DB	'KGLOG_PROCESS_ERROR(%s) at line %d in %s', 0aH, 00H
	ORG $+2
$SG177423 DB	'KRegion::CheckUpdate', 00H
	ORG $+3
$SG177424 DB	'uFileSize > 0', 00H
	ORG $+2
$SG177425 DB	'KGLOG_PROCESS_ERROR(%s) at line %d in %s', 0aH, 00H
	ORG $+2
$SG177432 DB	'KRegion::CheckUpdate', 00H
	ORG $+3
$SG177433 DB	'piBuffer', 00H
	ORG $+3
$SG177434 DB	'KGLOG_PROCESS_ERROR(%s) at line %d in %s', 0aH, 00H
	ORG $+2
$SG177441 DB	'KRegion::CheckUpdate', 00H
	ORG $+3
$SG177442 DB	'pbyBuffer', 00H
	ORG $+2
$SG177443 DB	'KGLOG_PROCESS_ERROR(%s) at line %d in %s', 0aH, 00H
	ORG $+2
$SG177450 DB	'KRegion::CheckUpdate', 00H
	ORG $+3
$SG177451 DB	'uReadBytes == uFileSize', 00H
$SG177452 DB	'KGLOG_PROCESS_ERROR(%s) at line %d in %s', 0aH, 00H
	ORG $+2
$SG177478 DB	'.', 00H, '\', 00H, 'S', 00H, 'r', 00H, 'c', 00H, '\', 00H
	DB	'K', 00H, 'R', 00H, 'e', 00H, 'g', 00H, 'i', 00H, 'o', 00H, 'n'
	DB	00H, '.', 00H, 'c', 00H, 'p', 00H, 'p', 00H, 00H, 00H
$SG177479 DB	'n', 00H, 'X', 00H, 'C', 00H, 'e', 00H, 'l', 00H, 'l', 00H
	DB	' ', 00H, '>', 00H, '=', 00H, ' ', 00H, '0', 00H, 00H, 00H
$SG177481 DB	'.', 00H, '\', 00H, 'S', 00H, 'r', 00H, 'c', 00H, '\', 00H
	DB	'K', 00H, 'R', 00H, 'e', 00H, 'g', 00H, 'i', 00H, 'o', 00H, 'n'
	DB	00H, '.', 00H, 'c', 00H, 'p', 00H, 'p', 00H, 00H, 00H
$SG177482 DB	'n', 00H, 'X', 00H, 'C', 00H, 'e', 00H, 'l', 00H, 'l', 00H
	DB	' ', 00H, '<', 00H, ' ', 00H, 'R', 00H, 'E', 00H, 'G', 00H, 'I'
	DB	00H, 'O', 00H, 'N', 00H, '_', 00H, 'G', 00H, 'R', 00H, 'I', 00H
	DB	'D', 00H, '_', 00H, 'W', 00H, 'I', 00H, 'D', 00H, 'T', 00H, 'H'
	DB	00H, 00H, 00H
	ORG $+2
$SG177484 DB	'.', 00H, '\', 00H, 'S', 00H, 'r', 00H, 'c', 00H, '\', 00H
	DB	'K', 00H, 'R', 00H, 'e', 00H, 'g', 00H, 'i', 00H, 'o', 00H, 'n'
	DB	00H, '.', 00H, 'c', 00H, 'p', 00H, 'p', 00H, 00H, 00H
$SG177485 DB	'n', 00H, 'Y', 00H, 'C', 00H, 'e', 00H, 'l', 00H, 'l', 00H
	DB	' ', 00H, '>', 00H, '=', 00H, ' ', 00H, '0', 00H, 00H, 00H
$SG177487 DB	'.', 00H, '\', 00H, 'S', 00H, 'r', 00H, 'c', 00H, '\', 00H
	DB	'K', 00H, 'R', 00H, 'e', 00H, 'g', 00H, 'i', 00H, 'o', 00H, 'n'
	DB	00H, '.', 00H, 'c', 00H, 'p', 00H, 'p', 00H, 00H, 00H
$SG177488 DB	'n', 00H, 'Y', 00H, 'C', 00H, 'e', 00H, 'l', 00H, 'l', 00H
	DB	' ', 00H, '<', 00H, ' ', 00H, 'R', 00H, 'E', 00H, 'G', 00H, 'I'
	DB	00H, 'O', 00H, 'N', 00H, '_', 00H, 'G', 00H, 'R', 00H, 'I', 00H
	DB	'D', 00H, '_', 00H, 'H', 00H, 'E', 00H, 'I', 00H, 'G', 00H, 'H'
	DB	00H, 'T', 00H, 00H, 00H
$SG177490 DB	'.', 00H, '\', 00H, 'S', 00H, 'r', 00H, 'c', 00H, '\', 00H
	DB	'K', 00H, 'R', 00H, 'e', 00H, 'g', 00H, 'i', 00H, 'o', 00H, 'n'
	DB	00H, '.', 00H, 'c', 00H, 'p', 00H, 'p', 00H, 00H, 00H
$SG177491 DB	'p', 00H, 'C', 00H, 'e', 00H, 'l', 00H, 'l', 00H, 00H, 00H
$SG177500 DB	'KRegion::AddObstacle', 00H
	ORG $+3
$SG177501 DB	'pCell->m_wLowLayer >= pInsertPos->m_wHighLayer', 00H
	ORG $+1
$SG177502 DB	'KGLOG_PROCESS_ERROR(%s) at line %d in %s', 0aH, 00H
	ORG $+2
$SG177523 DB	'.', 00H, '\', 00H, 'S', 00H, 'r', 00H, 'c', 00H, '\', 00H
	DB	'K', 00H, 'R', 00H, 'e', 00H, 'g', 00H, 'i', 00H, 'o', 00H, 'n'
	DB	00H, '.', 00H, 'c', 00H, 'p', 00H, 'p', 00H, 00H, 00H
$SG177524 DB	'n', 00H, 'X', 00H, 'C', 00H, 'e', 00H, 'l', 00H, 'l', 00H
	DB	' ', 00H, '>', 00H, '=', 00H, ' ', 00H, '0', 00H, 00H, 00H
$SG177526 DB	'.', 00H, '\', 00H, 'S', 00H, 'r', 00H, 'c', 00H, '\', 00H
	DB	'K', 00H, 'R', 00H, 'e', 00H, 'g', 00H, 'i', 00H, 'o', 00H, 'n'
	DB	00H, '.', 00H, 'c', 00H, 'p', 00H, 'p', 00H, 00H, 00H
$SG177527 DB	'n', 00H, 'X', 00H, 'C', 00H, 'e', 00H, 'l', 00H, 'l', 00H
	DB	' ', 00H, '<', 00H, ' ', 00H, 'R', 00H, 'E', 00H, 'G', 00H, 'I'
	DB	00H, 'O', 00H, 'N', 00H, '_', 00H, 'G', 00H, 'R', 00H, 'I', 00H
	DB	'D', 00H, '_', 00H, 'W', 00H, 'I', 00H, 'D', 00H, 'T', 00H, 'H'
	DB	00H, 00H, 00H
	ORG $+2
$SG177529 DB	'.', 00H, '\', 00H, 'S', 00H, 'r', 00H, 'c', 00H, '\', 00H
	DB	'K', 00H, 'R', 00H, 'e', 00H, 'g', 00H, 'i', 00H, 'o', 00H, 'n'
	DB	00H, '.', 00H, 'c', 00H, 'p', 00H, 'p', 00H, 00H, 00H
$SG177530 DB	'n', 00H, 'Y', 00H, 'C', 00H, 'e', 00H, 'l', 00H, 'l', 00H
	DB	' ', 00H, '>', 00H, '=', 00H, ' ', 00H, '0', 00H, 00H, 00H
$SG177532 DB	'.', 00H, '\', 00H, 'S', 00H, 'r', 00H, 'c', 00H, '\', 00H
	DB	'K', 00H, 'R', 00H, 'e', 00H, 'g', 00H, 'i', 00H, 'o', 00H, 'n'
	DB	00H, '.', 00H, 'c', 00H, 'p', 00H, 'p', 00H, 00H, 00H
$SG177533 DB	'n', 00H, 'Y', 00H, 'C', 00H, 'e', 00H, 'l', 00H, 'l', 00H
	DB	' ', 00H, '<', 00H, ' ', 00H, 'R', 00H, 'E', 00H, 'G', 00H, 'I'
	DB	00H, 'O', 00H, 'N', 00H, '_', 00H, 'G', 00H, 'R', 00H, 'I', 00H
	DB	'D', 00H, '_', 00H, 'H', 00H, 'E', 00H, 'I', 00H, 'G', 00H, 'H'
	DB	00H, 'T', 00H, 00H, 00H
$SG177545 DB	'.', 00H, '\', 00H, 'S', 00H, 'r', 00H, 'c', 00H, '\', 00H
	DB	'K', 00H, 'R', 00H, 'e', 00H, 'g', 00H, 'i', 00H, 'o', 00H, 'n'
	DB	00H, '.', 00H, 'c', 00H, 'p', 00H, 'p', 00H, 00H, 00H
$SG177546 DB	'p', 00H, 'L', 00H, 'a', 00H, 's', 00H, 't', 00H, 'L', 00H
	DB	'o', 00H, 'w', 00H, 'e', 00H, 'r', 00H, 'C', 00H, 'e', 00H, 'l'
	DB	00H, 'l', 00H, 00H, 00H
	ORG $+2
$SG177554 DB	'KRegion::AddObstacle', 00H
	ORG $+3
$SG177555 DB	'pDynamicCell', 00H
	ORG $+3
$SG177556 DB	'KGLOG_PROCESS_ERROR(%s) at line %d in %s', 0aH, 00H
	ORG $+2
$SG177566 DB	'KRegion::AddObstacle', 00H
	ORG $+3
$SG177567 DB	'pNewCell', 00H
	ORG $+3
$SG177568 DB	'KGLOG_PROCESS_ERROR(%s) at line %d in %s', 0aH, 00H
	ORG $+2
$SG177580 DB	'.', 00H, '\', 00H, 'S', 00H, 'r', 00H, 'c', 00H, '\', 00H
	DB	'K', 00H, 'R', 00H, 'e', 00H, 'g', 00H, 'i', 00H, 'o', 00H, 'n'
	DB	00H, '.', 00H, 'c', 00H, 'p', 00H, 'p', 00H, 00H, 00H
$SG177581 DB	'n', 00H, 'X', 00H, 'C', 00H, 'e', 00H, 'l', 00H, 'l', 00H
	DB	' ', 00H, '>', 00H, '=', 00H, ' ', 00H, '0', 00H, 00H, 00H
$SG177583 DB	'.', 00H, '\', 00H, 'S', 00H, 'r', 00H, 'c', 00H, '\', 00H
	DB	'K', 00H, 'R', 00H, 'e', 00H, 'g', 00H, 'i', 00H, 'o', 00H, 'n'
	DB	00H, '.', 00H, 'c', 00H, 'p', 00H, 'p', 00H, 00H, 00H
$SG177584 DB	'n', 00H, 'X', 00H, 'C', 00H, 'e', 00H, 'l', 00H, 'l', 00H
	DB	' ', 00H, '<', 00H, ' ', 00H, 'R', 00H, 'E', 00H, 'G', 00H, 'I'
	DB	00H, 'O', 00H, 'N', 00H, '_', 00H, 'G', 00H, 'R', 00H, 'I', 00H
	DB	'D', 00H, '_', 00H, 'W', 00H, 'I', 00H, 'D', 00H, 'T', 00H, 'H'
	DB	00H, 00H, 00H
	ORG $+2
$SG177586 DB	'.', 00H, '\', 00H, 'S', 00H, 'r', 00H, 'c', 00H, '\', 00H
	DB	'K', 00H, 'R', 00H, 'e', 00H, 'g', 00H, 'i', 00H, 'o', 00H, 'n'
	DB	00H, '.', 00H, 'c', 00H, 'p', 00H, 'p', 00H, 00H, 00H
$SG177587 DB	'n', 00H, 'Y', 00H, 'C', 00H, 'e', 00H, 'l', 00H, 'l', 00H
	DB	' ', 00H, '>', 00H, '=', 00H, ' ', 00H, '0', 00H, 00H, 00H
$SG177589 DB	'.', 00H, '\', 00H, 'S', 00H, 'r', 00H, 'c', 00H, '\', 00H
	DB	'K', 00H, 'R', 00H, 'e', 00H, 'g', 00H, 'i', 00H, 'o', 00H, 'n'
	DB	00H, '.', 00H, 'c', 00H, 'p', 00H, 'p', 00H, 00H, 00H
$SG177590 DB	'n', 00H, 'Y', 00H, 'C', 00H, 'e', 00H, 'l', 00H, 'l', 00H
	DB	' ', 00H, '<', 00H, ' ', 00H, 'R', 00H, 'E', 00H, 'G', 00H, 'I'
	DB	00H, 'O', 00H, 'N', 00H, '_', 00H, 'G', 00H, 'R', 00H, 'I', 00H
	DB	'D', 00H, '_', 00H, 'H', 00H, 'E', 00H, 'I', 00H, 'G', 00H, 'H'
	DB	00H, 'T', 00H, 00H, 00H
$SG177625 DB	'KRegion::GetBaseCellInfo', 00H
	ORG $+3
$SG177626 DB	'nXCell >= 0 && nXCell < REGION_GRID_WIDTH', 00H
	ORG $+2
$SG177627 DB	'KGLOG_PROCESS_ERROR(%s) at line %d in %s', 0aH, 00H
	ORG $+2
$SG177635 DB	'KRegion::GetBaseCellInfo', 00H
	ORG $+3
$SG177636 DB	'nYCell >= 0 && nYCell < REGION_GRID_HEIGHT', 00H
	ORG $+1
$SG177637 DB	'KGLOG_PROCESS_ERROR(%s) at line %d in %s', 0aH, 00H
	ORG $+2
$SG177643 DB	'KRegion::GetBaseCellInfo', 00H
	ORG $+3
$SG177644 DB	'pBaseCell', 00H
	ORG $+2
$SG177645 DB	'KGLOG_PROCESS_ERROR(%s) at line %d in %s', 0aH, 00H
	ORG $+2
$SG177660 DB	'KRegion::SetBaseCellInfo', 00H
	ORG $+3
$SG177661 DB	'nXCell >= 0 && nXCell < REGION_GRID_WIDTH', 00H
	ORG $+2
$SG177662 DB	'KGLOG_PROCESS_ERROR(%s) at line %d in %s', 0aH, 00H
	ORG $+2
$SG177670 DB	'KRegion::SetBaseCellInfo', 00H
	ORG $+3
$SG177671 DB	'nYCell >= 0 && nYCell < REGION_GRID_HEIGHT', 00H
	ORG $+1
$SG177672 DB	'KGLOG_PROCESS_ERROR(%s) at line %d in %s', 0aH, 00H
	ORG $+2
$SG177697 DB	'KRegion::MergeObstacleData', 00H
	ORG $+1
$SG177698 DB	'pLowestCell && pLowestCell->m_BaseInfo.dwDynamic == 0', 00H
	ORG $+2
$SG177699 DB	'KGLOG_PROCESS_ERROR(%s) at line %d in %s', 0aH, 00H
	ORG $+2
$SG177734 DB	'.', 00H, '\', 00H, 'S', 00H, 'r', 00H, 'c', 00H, '\', 00H
	DB	'K', 00H, 'R', 00H, 'e', 00H, 'g', 00H, 'i', 00H, 'o', 00H, 'n'
	DB	00H, '.', 00H, 'c', 00H, 'p', 00H, 'p', 00H, 00H, 00H
$SG177735 DB	'p', 00H, 'C', 00H, 'e', 00H, 'l', 00H, 'l', 00H, 'N', 00H
	DB	'o', 00H, 'd', 00H, 'e', 00H, '-', 00H, '>', 00H, 'm', 00H, '_'
	DB	00H, 'w', 00H, 'L', 00H, 'o', 00H, 'w', 00H, 'L', 00H, 'a', 00H
	DB	'y', 00H, 'e', 00H, 'r', 00H, ' ', 00H, '>', 00H, '=', 00H, ' '
	DB	00H, 'p', 00H, 'P', 00H, 'r', 00H, 'o', 00H, 'c', 00H, 'e', 00H
	DB	's', 00H, 's', 00H, 'C', 00H, 'e', 00H, 'l', 00H, 'l', 00H, '-'
	DB	00H, '>', 00H, 'm', 00H, '_', 00H, 'w', 00H, 'L', 00H, 'o', 00H
	DB	'w', 00H, 'L', 00H, 'a', 00H, 'y', 00H, 'e', 00H, 'r', 00H, 00H
	DB	00H
$SG177775 DB	'KRegion::ProcessDynamicCell', 00H
$SG177776 DB	'pNewCell', 00H
	ORG $+3
$SG177777 DB	'KGLOG_PROCESS_ERROR(%s) at line %d in %s', 0aH, 00H
	ORG $+2
$SG177795 DB	'KRegion::SetWaterHeight', 00H
$SG177796 DB	'nXCell >= 0 && nXCell < REGION_GRID_WIDTH', 00H
	ORG $+2
$SG177797 DB	'KGLOG_PROCESS_ERROR(%s) at line %d in %s', 0aH, 00H
	ORG $+2
$SG177805 DB	'KRegion::SetWaterHeight', 00H
$SG177806 DB	'nYCell >= 0 && nYCell < REGION_GRID_HEIGHT', 00H
	ORG $+1
$SG177807 DB	'KGLOG_PROCESS_ERROR(%s) at line %d in %s', 0aH, 00H
	ORG $+2
$SG177814 DB	'.', 00H, '\', 00H, 'S', 00H, 'r', 00H, 'c', 00H, '\', 00H
	DB	'K', 00H, 'R', 00H, 'e', 00H, 'g', 00H, 'i', 00H, 'o', 00H, 'n'
	DB	00H, '.', 00H, 'c', 00H, 'p', 00H, 'p', 00H, 00H, 00H
$SG177815 DB	'!', 00H, 'p', 00H, 'C', 00H, 'e', 00H, 'l', 00H, 'l', 00H
	DB	'N', 00H, 'o', 00H, 'd', 00H, 'e', 00H, '-', 00H, '>', 00H, 'm'
	DB	00H, '_', 00H, 'B', 00H, 'a', 00H, 's', 00H, 'e', 00H, 'I', 00H
	DB	'n', 00H, 'f', 00H, 'o', 00H, '.', 00H, 'd', 00H, 'w', 00H, 'D'
	DB	00H, 'y', 00H, 'n', 00H, 'a', 00H, 'm', 00H, 'i', 00H, 'c', 00H
	DB	00H, 00H
	ORG $+2
$SG177823 DB	'.', 00H, '\', 00H, 'S', 00H, 'r', 00H, 'c', 00H, '\', 00H
	DB	'K', 00H, 'R', 00H, 'e', 00H, 'g', 00H, 'i', 00H, 'o', 00H, 'n'
	DB	00H, '.', 00H, 'c', 00H, 'p', 00H, 'p', 00H, 00H, 00H
$SG177824 DB	'p', 00H, 'C', 00H, 'e', 00H, 'l', 00H, 'l', 00H, 'N', 00H
	DB	'o', 00H, 'd', 00H, 'e', 00H, '-', 00H, '>', 00H, 'm', 00H, '_'
	DB	00H, 'w', 00H, 'L', 00H, 'o', 00H, 'w', 00H, 'L', 00H, 'a', 00H
	DB	'y', 00H, 'e', 00H, 'r', 00H, ' ', 00H, '<', 00H, ' ', 00H, 'w'
	DB	00H, 'W', 00H, 'a', 00H, 't', 00H, 'e', 00H, 'r', 00H, 'H', 00H
	DB	'e', 00H, 'i', 00H, 'g', 00H, 'h', 00H, 't', 00H, 00H, 00H
$SG177834 DB	'KRegion::SetWaterHeight', 00H
$SG177835 DB	'pNewCell', 00H
	ORG $+3
$SG177836 DB	'KGLOG_PROCESS_ERROR(%s) at line %d in %s', 0aH, 00H
	ORG $+2
$SG177847 DB	'.', 00H, '\', 00H, 'S', 00H, 'r', 00H, 'c', 00H, '\', 00H
	DB	'K', 00H, 'R', 00H, 'e', 00H, 'g', 00H, 'i', 00H, 'o', 00H, 'n'
	DB	00H, '.', 00H, 'c', 00H, 'p', 00H, 'p', 00H, 00H, 00H
$SG177848 DB	'n', 00H, 'X', 00H, 'C', 00H, 'e', 00H, 'l', 00H, 'l', 00H
	DB	' ', 00H, '>', 00H, '=', 00H, ' ', 00H, '0', 00H, 00H, 00H
$SG177850 DB	'.', 00H, '\', 00H, 'S', 00H, 'r', 00H, 'c', 00H, '\', 00H
	DB	'K', 00H, 'R', 00H, 'e', 00H, 'g', 00H, 'i', 00H, 'o', 00H, 'n'
	DB	00H, '.', 00H, 'c', 00H, 'p', 00H, 'p', 00H, 00H, 00H
$SG177851 DB	'n', 00H, 'X', 00H, 'C', 00H, 'e', 00H, 'l', 00H, 'l', 00H
	DB	' ', 00H, '<', 00H, ' ', 00H, 'R', 00H, 'E', 00H, 'G', 00H, 'I'
	DB	00H, 'O', 00H, 'N', 00H, '_', 00H, 'G', 00H, 'R', 00H, 'I', 00H
	DB	'D', 00H, '_', 00H, 'W', 00H, 'I', 00H, 'D', 00H, 'T', 00H, 'H'
	DB	00H, 00H, 00H
	ORG $+2
$SG177853 DB	'.', 00H, '\', 00H, 'S', 00H, 'r', 00H, 'c', 00H, '\', 00H
	DB	'K', 00H, 'R', 00H, 'e', 00H, 'g', 00H, 'i', 00H, 'o', 00H, 'n'
	DB	00H, '.', 00H, 'c', 00H, 'p', 00H, 'p', 00H, 00H, 00H
$SG177854 DB	'n', 00H, 'Y', 00H, 'C', 00H, 'e', 00H, 'l', 00H, 'l', 00H
	DB	' ', 00H, '>', 00H, '=', 00H, ' ', 00H, '0', 00H, 00H, 00H
$SG177856 DB	'.', 00H, '\', 00H, 'S', 00H, 'r', 00H, 'c', 00H, '\', 00H
	DB	'K', 00H, 'R', 00H, 'e', 00H, 'g', 00H, 'i', 00H, 'o', 00H, 'n'
	DB	00H, '.', 00H, 'c', 00H, 'p', 00H, 'p', 00H, 00H, 00H
$SG177857 DB	'n', 00H, 'Y', 00H, 'C', 00H, 'e', 00H, 'l', 00H, 'l', 00H
	DB	' ', 00H, '<', 00H, ' ', 00H, 'R', 00H, 'E', 00H, 'G', 00H, 'I'
	DB	00H, 'O', 00H, 'N', 00H, '_', 00H, 'G', 00H, 'R', 00H, 'I', 00H
	DB	'D', 00H, '_', 00H, 'H', 00H, 'E', 00H, 'I', 00H, 'G', 00H, 'H'
	DB	00H, 'T', 00H, 00H, 00H
$SG177868 DB	'.', 00H, '\', 00H, 'S', 00H, 'r', 00H, 'c', 00H, '\', 00H
	DB	'K', 00H, 'R', 00H, 'e', 00H, 'g', 00H, 'i', 00H, 'o', 00H, 'n'
	DB	00H, '.', 00H, 'c', 00H, 'p', 00H, 'p', 00H, 00H, 00H
$SG177869 DB	'n', 00H, 'X', 00H, 'C', 00H, 'e', 00H, 'l', 00H, 'l', 00H
	DB	' ', 00H, '>', 00H, '=', 00H, ' ', 00H, '0', 00H, 00H, 00H
$SG177871 DB	'.', 00H, '\', 00H, 'S', 00H, 'r', 00H, 'c', 00H, '\', 00H
	DB	'K', 00H, 'R', 00H, 'e', 00H, 'g', 00H, 'i', 00H, 'o', 00H, 'n'
	DB	00H, '.', 00H, 'c', 00H, 'p', 00H, 'p', 00H, 00H, 00H
$SG177872 DB	'n', 00H, 'X', 00H, 'C', 00H, 'e', 00H, 'l', 00H, 'l', 00H
	DB	' ', 00H, '<', 00H, ' ', 00H, 'R', 00H, 'E', 00H, 'G', 00H, 'I'
	DB	00H, 'O', 00H, 'N', 00H, '_', 00H, 'G', 00H, 'R', 00H, 'I', 00H
	DB	'D', 00H, '_', 00H, 'W', 00H, 'I', 00H, 'D', 00H, 'T', 00H, 'H'
	DB	00H, 00H, 00H
	ORG $+2
$SG177874 DB	'.', 00H, '\', 00H, 'S', 00H, 'r', 00H, 'c', 00H, '\', 00H
	DB	'K', 00H, 'R', 00H, 'e', 00H, 'g', 00H, 'i', 00H, 'o', 00H, 'n'
	DB	00H, '.', 00H, 'c', 00H, 'p', 00H, 'p', 00H, 00H, 00H
$SG177875 DB	'n', 00H, 'Y', 00H, 'C', 00H, 'e', 00H, 'l', 00H, 'l', 00H
	DB	' ', 00H, '>', 00H, '=', 00H, ' ', 00H, '0', 00H, 00H, 00H
$SG177877 DB	'.', 00H, '\', 00H, 'S', 00H, 'r', 00H, 'c', 00H, '\', 00H
	DB	'K', 00H, 'R', 00H, 'e', 00H, 'g', 00H, 'i', 00H, 'o', 00H, 'n'
	DB	00H, '.', 00H, 'c', 00H, 'p', 00H, 'p', 00H, 00H, 00H
$SG177878 DB	'n', 00H, 'Y', 00H, 'C', 00H, 'e', 00H, 'l', 00H, 'l', 00H
	DB	' ', 00H, '<', 00H, ' ', 00H, 'R', 00H, 'E', 00H, 'G', 00H, 'I'
	DB	00H, 'O', 00H, 'N', 00H, '_', 00H, 'G', 00H, 'R', 00H, 'I', 00H
	DB	'D', 00H, '_', 00H, 'H', 00H, 'E', 00H, 'I', 00H, 'G', 00H, 'H'
	DB	00H, 'T', 00H, 00H, 00H
$SG177890 DB	'.', 00H, '\', 00H, 'S', 00H, 'r', 00H, 'c', 00H, '\', 00H
	DB	'K', 00H, 'R', 00H, 'e', 00H, 'g', 00H, 'i', 00H, 'o', 00H, 'n'
	DB	00H, '.', 00H, 'c', 00H, 'p', 00H, 'p', 00H, 00H, 00H
$SG177891 DB	'n', 00H, 'X', 00H, 'C', 00H, 'e', 00H, 'l', 00H, 'l', 00H
	DB	' ', 00H, '>', 00H, '=', 00H, ' ', 00H, '0', 00H, 00H, 00H
$SG177893 DB	'.', 00H, '\', 00H, 'S', 00H, 'r', 00H, 'c', 00H, '\', 00H
	DB	'K', 00H, 'R', 00H, 'e', 00H, 'g', 00H, 'i', 00H, 'o', 00H, 'n'
	DB	00H, '.', 00H, 'c', 00H, 'p', 00H, 'p', 00H, 00H, 00H
$SG177894 DB	'n', 00H, 'X', 00H, 'C', 00H, 'e', 00H, 'l', 00H, 'l', 00H
	DB	' ', 00H, '<', 00H, ' ', 00H, 'R', 00H, 'E', 00H, 'G', 00H, 'I'
	DB	00H, 'O', 00H, 'N', 00H, '_', 00H, 'G', 00H, 'R', 00H, 'I', 00H
	DB	'D', 00H, '_', 00H, 'W', 00H, 'I', 00H, 'D', 00H, 'T', 00H, 'H'
	DB	00H, 00H, 00H
	ORG $+2
$SG177896 DB	'.', 00H, '\', 00H, 'S', 00H, 'r', 00H, 'c', 00H, '\', 00H
	DB	'K', 00H, 'R', 00H, 'e', 00H, 'g', 00H, 'i', 00H, 'o', 00H, 'n'
	DB	00H, '.', 00H, 'c', 00H, 'p', 00H, 'p', 00H, 00H, 00H
$SG177897 DB	'n', 00H, 'Y', 00H, 'C', 00H, 'e', 00H, 'l', 00H, 'l', 00H
	DB	' ', 00H, '>', 00H, '=', 00H, ' ', 00H, '0', 00H, 00H, 00H
$SG177899 DB	'.', 00H, '\', 00H, 'S', 00H, 'r', 00H, 'c', 00H, '\', 00H
	DB	'K', 00H, 'R', 00H, 'e', 00H, 'g', 00H, 'i', 00H, 'o', 00H, 'n'
	DB	00H, '.', 00H, 'c', 00H, 'p', 00H, 'p', 00H, 00H, 00H
$SG177900 DB	'n', 00H, 'Y', 00H, 'C', 00H, 'e', 00H, 'l', 00H, 'l', 00H
	DB	' ', 00H, '<', 00H, ' ', 00H, 'R', 00H, 'E', 00H, 'G', 00H, 'I'
	DB	00H, 'O', 00H, 'N', 00H, '_', 00H, 'G', 00H, 'R', 00H, 'I', 00H
	DB	'D', 00H, '_', 00H, 'H', 00H, 'E', 00H, 'I', 00H, 'G', 00H, 'H'
	DB	00H, 'T', 00H, 00H, 00H
$SG177922 DB	'.', 00H, '\', 00H, 'S', 00H, 'r', 00H, 'c', 00H, '\', 00H
	DB	'K', 00H, 'R', 00H, 'e', 00H, 'g', 00H, 'i', 00H, 'o', 00H, 'n'
	DB	00H, '.', 00H, 'c', 00H, 'p', 00H, 'p', 00H, 00H, 00H
$SG177923 DB	'n', 00H, 'X', 00H, 'C', 00H, 'e', 00H, 'l', 00H, 'l', 00H
	DB	' ', 00H, '>', 00H, '=', 00H, ' ', 00H, '0', 00H, 00H, 00H
$SG177925 DB	'.', 00H, '\', 00H, 'S', 00H, 'r', 00H, 'c', 00H, '\', 00H
	DB	'K', 00H, 'R', 00H, 'e', 00H, 'g', 00H, 'i', 00H, 'o', 00H, 'n'
	DB	00H, '.', 00H, 'c', 00H, 'p', 00H, 'p', 00H, 00H, 00H
$SG177926 DB	'n', 00H, 'X', 00H, 'C', 00H, 'e', 00H, 'l', 00H, 'l', 00H
	DB	' ', 00H, '<', 00H, ' ', 00H, 'R', 00H, 'E', 00H, 'G', 00H, 'I'
	DB	00H, 'O', 00H, 'N', 00H, '_', 00H, 'G', 00H, 'R', 00H, 'I', 00H
	DB	'D', 00H, '_', 00H, 'W', 00H, 'I', 00H, 'D', 00H, 'T', 00H, 'H'
	DB	00H, 00H, 00H
	ORG $+2
$SG177928 DB	'.', 00H, '\', 00H, 'S', 00H, 'r', 00H, 'c', 00H, '\', 00H
	DB	'K', 00H, 'R', 00H, 'e', 00H, 'g', 00H, 'i', 00H, 'o', 00H, 'n'
	DB	00H, '.', 00H, 'c', 00H, 'p', 00H, 'p', 00H, 00H, 00H
$SG177929 DB	'n', 00H, 'Y', 00H, 'C', 00H, 'e', 00H, 'l', 00H, 'l', 00H
	DB	' ', 00H, '>', 00H, '=', 00H, ' ', 00H, '0', 00H, 00H, 00H
$SG177931 DB	'.', 00H, '\', 00H, 'S', 00H, 'r', 00H, 'c', 00H, '\', 00H
	DB	'K', 00H, 'R', 00H, 'e', 00H, 'g', 00H, 'i', 00H, 'o', 00H, 'n'
	DB	00H, '.', 00H, 'c', 00H, 'p', 00H, 'p', 00H, 00H, 00H
$SG177932 DB	'n', 00H, 'Y', 00H, 'C', 00H, 'e', 00H, 'l', 00H, 'l', 00H
	DB	' ', 00H, '<', 00H, ' ', 00H, 'R', 00H, 'E', 00H, 'G', 00H, 'I'
	DB	00H, 'O', 00H, 'N', 00H, '_', 00H, 'G', 00H, 'R', 00H, 'I', 00H
	DB	'D', 00H, '_', 00H, 'H', 00H, 'E', 00H, 'I', 00H, 'G', 00H, 'H'
	DB	00H, 'T', 00H, 00H, 00H
$SG177934 DB	'.', 00H, '\', 00H, 'S', 00H, 'r', 00H, 'c', 00H, '\', 00H
	DB	'K', 00H, 'R', 00H, 'e', 00H, 'g', 00H, 'i', 00H, 'o', 00H, 'n'
	DB	00H, '.', 00H, 'c', 00H, 'p', 00H, 'p', 00H, 00H, 00H
$SG177935 DB	'p', 00H, 'n', 00H, 'R', 00H, 'e', 00H, 'l', 00H, 'a', 00H
	DB	't', 00H, 'i', 00H, 'v', 00H, 'e', 00H, 'Z', 00H, 00H, 00H
$SG177994 DB	'.', 00H, '\', 00H, 'S', 00H, 'r', 00H, 'c', 00H, '\', 00H
	DB	'K', 00H, 'R', 00H, 'e', 00H, 'g', 00H, 'i', 00H, 'o', 00H, 'n'
	DB	00H, '.', 00H, 'c', 00H, 'p', 00H, 'p', 00H, 00H, 00H
$SG177995 DB	'p', 00H, 'n', 00H, 'R', 00H, 'e', 00H, 'l', 00H, 'a', 00H
	DB	't', 00H, 'i', 00H, 'v', 00H, 'e', 00H, 'Z', 00H, 00H, 00H
$SG177997 DB	'.', 00H, '\', 00H, 'S', 00H, 'r', 00H, 'c', 00H, '\', 00H
	DB	'K', 00H, 'R', 00H, 'e', 00H, 'g', 00H, 'i', 00H, 'o', 00H, 'n'
	DB	00H, '.', 00H, 'c', 00H, 'p', 00H, 'p', 00H, 00H, 00H
$SG177998 DB	'n', 00H, 'X', 00H, 'C', 00H, 'e', 00H, 'l', 00H, 'l', 00H
	DB	' ', 00H, '>', 00H, '=', 00H, ' ', 00H, '0', 00H, 00H, 00H
$SG178000 DB	'.', 00H, '\', 00H, 'S', 00H, 'r', 00H, 'c', 00H, '\', 00H
	DB	'K', 00H, 'R', 00H, 'e', 00H, 'g', 00H, 'i', 00H, 'o', 00H, 'n'
	DB	00H, '.', 00H, 'c', 00H, 'p', 00H, 'p', 00H, 00H, 00H
$SG178001 DB	'n', 00H, 'X', 00H, 'C', 00H, 'e', 00H, 'l', 00H, 'l', 00H
	DB	' ', 00H, '<', 00H, ' ', 00H, 'R', 00H, 'E', 00H, 'G', 00H, 'I'
	DB	00H, 'O', 00H, 'N', 00H, '_', 00H, 'G', 00H, 'R', 00H, 'I', 00H
	DB	'D', 00H, '_', 00H, 'W', 00H, 'I', 00H, 'D', 00H, 'T', 00H, 'H'
	DB	00H, 00H, 00H
	ORG $+2
$SG178003 DB	'.', 00H, '\', 00H, 'S', 00H, 'r', 00H, 'c', 00H, '\', 00H
	DB	'K', 00H, 'R', 00H, 'e', 00H, 'g', 00H, 'i', 00H, 'o', 00H, 'n'
	DB	00H, '.', 00H, 'c', 00H, 'p', 00H, 'p', 00H, 00H, 00H
$SG178004 DB	'n', 00H, 'Y', 00H, 'C', 00H, 'e', 00H, 'l', 00H, 'l', 00H
	DB	' ', 00H, '>', 00H, '=', 00H, ' ', 00H, '0', 00H, 00H, 00H
$SG178006 DB	'.', 00H, '\', 00H, 'S', 00H, 'r', 00H, 'c', 00H, '\', 00H
	DB	'K', 00H, 'R', 00H, 'e', 00H, 'g', 00H, 'i', 00H, 'o', 00H, 'n'
	DB	00H, '.', 00H, 'c', 00H, 'p', 00H, 'p', 00H, 00H, 00H
$SG178007 DB	'n', 00H, 'Y', 00H, 'C', 00H, 'e', 00H, 'l', 00H, 'l', 00H
	DB	' ', 00H, '<', 00H, ' ', 00H, 'R', 00H, 'E', 00H, 'G', 00H, 'I'
	DB	00H, 'O', 00H, 'N', 00H, '_', 00H, 'G', 00H, 'R', 00H, 'I', 00H
	DB	'D', 00H, '_', 00H, 'H', 00H, 'E', 00H, 'I', 00H, 'G', 00H, 'H'
	DB	00H, 'T', 00H, 00H, 00H
$SG178130 DB	'.', 00H, '\', 00H, 'S', 00H, 'r', 00H, 'c', 00H, '\', 00H
	DB	'K', 00H, 'R', 00H, 'e', 00H, 'g', 00H, 'i', 00H, 'o', 00H, 'n'
	DB	00H, '.', 00H, 'c', 00H, 'p', 00H, 'p', 00H, 00H, 00H
$SG178131 DB	'm', 00H, '_', 00H, 'p', 00H, 'd', 00H, 'w', 00H, 'S', 00H
	DB	'c', 00H, 'r', 00H, 'i', 00H, 'p', 00H, 't', 00H, 'L', 00H, 'i'
	DB	00H, 's', 00H, 't', 00H, 00H, 00H
$SG178139 DB	'.', 00H, '\', 00H, 'S', 00H, 'r', 00H, 'c', 00H, '\', 00H
	DB	'K', 00H, 'R', 00H, 'e', 00H, 'g', 00H, 'i', 00H, 'o', 00H, 'n'
	DB	00H, '.', 00H, 'c', 00H, 'p', 00H, 'p', 00H, 00H, 00H
$SG178140 DB	'p', 00H, 'C', 00H, 'e', 00H, 'l', 00H, 'l', 00H, 00H, 00H
$SG178157 DB	'KRegion::SetScriptID', 00H
	ORG $+3
$SG178158 DB	'nInsertIndex > 0 && nInsertIndex < SCRIPT_COUNT_PER_REGI'
	DB	'ON', 00H
	ORG $+1
$SG178159 DB	'KGLOG_PROCESS_ERROR(%s) at line %d in %s', 0aH, 00H
	ORG $+2
$SG178181 DB	'.', 00H, '\', 00H, 'S', 00H, 'r', 00H, 'c', 00H, '\', 00H
	DB	'K', 00H, 'R', 00H, 'e', 00H, 'g', 00H, 'i', 00H, 'o', 00H, 'n'
	DB	00H, '.', 00H, 'c', 00H, 'p', 00H, 'p', 00H, 00H, 00H
$SG178251 DB	'.', 00H, '\', 00H, 'S', 00H, 'r', 00H, 'c', 00H, '\', 00H
	DB	'K', 00H, 'R', 00H, 'e', 00H, 'g', 00H, 'i', 00H, 'o', 00H, 'n'
	DB	00H, '.', 00H, 'c', 00H, 'p', 00H, 'p', 00H, 00H, 00H
$SG178182 DB	'n', 00H, 'I', 00H, 'n', 00H, 'd', 00H, 'e', 00H, 'x', 00H
	DB	' ', 00H, '>', 00H, '=', 00H, ' ', 00H, '0', 00H, ' ', 00H, '&'
	DB	00H, '&', 00H, ' ', 00H, 'n', 00H, 'I', 00H, 'n', 00H, 'd', 00H
	DB	'e', 00H, 'x', 00H, ' ', 00H, '<', 00H, ' ', 00H, 'S', 00H, 'C'
	DB	00H, 'R', 00H, 'I', 00H, 'P', 00H, 'T', 00H, '_', 00H, 'C', 00H
	DB	'O', 00H, 'U', 00H, 'N', 00H, 'T', 00H, '_', 00H, 'P', 00H, 'E'
	DB	00H, 'R', 00H, '_', 00H, 'R', 00H, 'E', 00H, 'G', 00H, 'I', 00H
	DB	'O', 00H, 'N', 00H, 00H, 00H
$SG178252 DB	'I', 00H, 'S', 00H, '_', 00H, 'N', 00H, 'P', 00H, 'C', 00H
	DB	'(', 00H, 'p', 00H, 'N', 00H, 'p', 00H, 'c', 00H, '-', 00H, '>'
	DB	00H, 'm', 00H, '_', 00H, 'd', 00H, 'w', 00H, 'I', 00H, 'D', 00H
	DB	')', 00H, 00H, 00H
	ORG $+2
$SG178259 DB	'KRegion::AddNpc', 00H
$SG178260 DB	'pCell', 00H
	ORG $+2
$SG178261 DB	'KGLOG_PROCESS_ERROR(%s) at line %d in %s', 0aH, 00H
	ORG $+2
$SG178277 DB	'KRegion::AddDoodad', 00H
	ORG $+1
$SG178278 DB	'pCell', 00H
	ORG $+2
$SG178279 DB	'KGLOG_PROCESS_ERROR(%s) at line %d in %s', 0aH, 00H
	ORG $+2
$SG178292 DB	'.', 00H, '\', 00H, 'S', 00H, 'r', 00H, 'c', 00H, '\', 00H
	DB	'K', 00H, 'R', 00H, 'e', 00H, 'g', 00H, 'i', 00H, 'o', 00H, 'n'
	DB	00H, '.', 00H, 'c', 00H, 'p', 00H, 'p', 00H, 00H, 00H
$SG178293 DB	'I', 00H, 'S', 00H, '_', 00H, 'P', 00H, 'L', 00H, 'A', 00H
	DB	'Y', 00H, 'E', 00H, 'R', 00H, '(', 00H, 'p', 00H, 'P', 00H, 'l'
	DB	00H, 'a', 00H, 'y', 00H, 'e', 00H, 'r', 00H, '-', 00H, '>', 00H
	DB	'm', 00H, '_', 00H, 'd', 00H, 'w', 00H, 'I', 00H, 'D', 00H, ')'
	DB	00H, 00H, 00H
	ORG $+2
$SG178298 DB	'KRegion::AddPlayer', 00H
	ORG $+1
$SG178299 DB	'pCell', 00H
	ORG $+2
$SG178300 DB	'KGLOG_PROCESS_ERROR(%s) at line %d in %s', 0aH, 00H
	ORG $+2
$SG178335 DB	'KRegion::DeleteAllNpc', 00H
	ORG $+2
$SG178336 DB	'pNpc', 00H
	ORG $+3
$SG178337 DB	'KGLOG_PROCESS_ERROR(%s) at line %d in %s', 0aH, 00H
	ORG $+2
$SG178344 DB	'KRegion::DeleteAllNpc', 00H
	ORG $+2
$SG178345 DB	'bRetCode', 00H
	ORG $+3
$SG178346 DB	'KGLOG_PROCESS_ERROR(%s) at line %d in %s', 0aH, 00H
	ORG $+2
$SG178367 DB	'KRegion::DeleteAllDoodad', 00H
	ORG $+3
$SG178368 DB	'pDoodad', 00H
$SG178369 DB	'KGLOG_PROCESS_ERROR(%s) at line %d in %s', 0aH, 00H
	ORG $+2
$SG178376 DB	'KRegion::DeleteAllDoodad', 00H
	ORG $+3
$SG178377 DB	'bRetCode', 00H
	ORG $+3
$SG178378 DB	'KGLOG_PROCESS_ERROR(%s) at line %d in %s', 0aH, 00H
	ORG $+2
$SG178399 DB	'KRegion::DeleteAllPlayer', 00H
	ORG $+3
$SG178400 DB	'pPlayer', 00H
$SG178401 DB	'KGLOG_PROCESS_ERROR(%s) at line %d in %s', 0aH, 00H
	ORG $+2
$SG178408 DB	'KRegion::DeleteAllPlayer', 00H
	ORG $+3
$SG178409 DB	'bRetCode', 00H
	ORG $+3
$SG178410 DB	'KGLOG_PROCESS_ERROR(%s) at line %d in %s', 0aH, 00H
	ORG $+2
$SG178421 DB	'KRegion::DeleteAllObject', 00H
	ORG $+3
$SG178422 DB	'bRetCode', 00H
	ORG $+3
$SG178423 DB	'KGLOG_CHECK_ERROR(%s) at line %d in %s', 0aH, 00H
$SG178428 DB	'KRegion::DeleteAllObject', 00H
	ORG $+3
$SG178429 DB	'bRetCode', 00H
	ORG $+3
$SG178430 DB	'KGLOG_CHECK_ERROR(%s) at line %d in %s', 0aH, 00H
$SG178442 DB	'KRegion::DeleteAllObject', 00H
	ORG $+3
$SG178443 DB	'bRetCode', 00H
	ORG $+3
$SG178444 DB	'KGLOG_CHECK_ERROR(%s) at line %d in %s', 0aH, 00H
$SG178464 DB	'KRegion::DeleteAllCell', 00H
	ORG $+1
$SG178465 DB	'pBaseCell', 00H
	ORG $+2
$SG178466 DB	'KGLOG_PROCESS_ERROR(%s) at line %d in %s', 0aH, 00H
CONST	ENDS
;	COMDAT ?_EEM_DS@?$deque@UKDOODAD_REVIVE_NODE@@V?$allocator@UKDOODAD_REVIVE_NODE@@@std@@@std@@2HB
CONST	SEGMENT
?_EEM_DS@?$deque@UKDOODAD_REVIVE_NODE@@V?$allocator@UKDOODAD_REVIVE_NODE@@@std@@@std@@2HB DD 02H ; std::deque<KDOODAD_REVIVE_NODE,std::allocator<KDOODAD_REVIVE_NODE> >::_EEM_DS
CONST	ENDS
;	COMDAT ?_EEM_DS@?$deque@UKNPC_REVIVE_NODE@@V?$allocator@UKNPC_REVIVE_NODE@@@std@@@std@@2HB
CONST	SEGMENT
?_EEM_DS@?$deque@UKNPC_REVIVE_NODE@@V?$allocator@UKNPC_REVIVE_NODE@@@std@@@std@@2HB DD 02H ; std::deque<KNPC_REVIVE_NODE,std::allocator<KNPC_REVIVE_NODE> >::_EEM_DS
CONST	ENDS
PUBLIC	??1KList@@QAE@XZ				; KList::~KList
PUBLIC	??0KList@@QAE@XZ				; KList::KList
PUBLIC	??0KRegion@@QAE@XZ				; KRegion::KRegion
EXTRN	___security_cookie:DWORD
EXTRN	___CxxFrameHandler3:PROC
EXTRN	@__security_check_cookie@4:PROC
EXTRN	__RTC_CheckEsp:PROC
EXTRN	__RTC_Shutdown:PROC
EXTRN	__RTC_InitBase:PROC
xdata$x	SEGMENT
__unwindtable$??0KRegion@@QAE@XZ DD 0ffffffffH
	DD	FLAT:__unwindfunclet$??0KRegion@@QAE@XZ$0
	DD	00H
	DD	FLAT:__unwindfunclet$??0KRegion@@QAE@XZ$1
	DD	01H
	DD	FLAT:__unwindfunclet$??0KRegion@@QAE@XZ$2
__ehfuncinfo$??0KRegion@@QAE@XZ DD 019930522H
	DD	03H
	DD	FLAT:__unwindtable$??0KRegion@@QAE@XZ
	DD	2 DUP(00H)
	DD	2 DUP(00H)
	DD	00H
	DD	01H
xdata$x	ENDS
;	COMDAT rtc$TMZ
; File d:\code\game\sword3\source\common\so3world\src\kregion.cpp
rtc$TMZ	SEGMENT
__RTC_Shutdown.rtc$TMZ DD FLAT:__RTC_Shutdown
rtc$TMZ	ENDS
;	COMDAT rtc$IMZ
rtc$IMZ	SEGMENT
__RTC_InitBase.rtc$IMZ DD FLAT:__RTC_InitBase
; Function compile flags: /Odtp /RTCsu
rtc$IMZ	ENDS
_TEXT	SEGMENT
_this$ = -16						; size = 4
__$EHRec$ = -12						; size = 12
??0KRegion@@QAE@XZ PROC					; KRegion::KRegion
; _this$ = ecx

; 23   : {

  00000	55		 push	 ebp
  00001	8b ec		 mov	 ebp, esp
  00003	6a ff		 push	 -1
  00005	68 00 00 00 00	 push	 __ehhandler$??0KRegion@@QAE@XZ
  0000a	64 a1 00 00 00
	00		 mov	 eax, DWORD PTR fs:0
  00010	50		 push	 eax
  00011	51		 push	 ecx
  00012	c7 45 f0 cc cc
	cc cc		 mov	 DWORD PTR [ebp-16], -858993460 ; ccccccccH
  00019	a1 00 00 00 00	 mov	 eax, DWORD PTR ___security_cookie
  0001e	33 c5		 xor	 eax, ebp
  00020	50		 push	 eax
  00021	8d 45 f4	 lea	 eax, DWORD PTR __$EHRec$[ebp]
  00024	64 a3 00 00 00
	00		 mov	 DWORD PTR fs:0, eax
  0002a	89 4d f0	 mov	 DWORD PTR _this$[ebp], ecx
  0002d	8b 4d f0	 mov	 ecx, DWORD PTR _this$[ebp]
  00030	83 c1 30	 add	 ecx, 48			; 00000030H
  00033	e8 00 00 00 00	 call	 ??0KList@@QAE@XZ	; KList::KList
  00038	c7 45 fc 00 00
	00 00		 mov	 DWORD PTR __$EHRec$[ebp+8], 0
  0003f	8b 4d f0	 mov	 ecx, DWORD PTR _this$[ebp]
  00042	83 c1 48	 add	 ecx, 72			; 00000048H
  00045	e8 00 00 00 00	 call	 ??0KList@@QAE@XZ	; KList::KList
  0004a	c6 45 fc 01	 mov	 BYTE PTR __$EHRec$[ebp+8], 1
  0004e	8b 4d f0	 mov	 ecx, DWORD PTR _this$[ebp]
  00051	83 c1 60	 add	 ecx, 96			; 00000060H
  00054	e8 00 00 00 00	 call	 ??0KList@@QAE@XZ	; KList::KList
  00059	c6 45 fc 02	 mov	 BYTE PTR __$EHRec$[ebp+8], 2
  0005d	8b 4d f0	 mov	 ecx, DWORD PTR _this$[ebp]
  00060	83 c1 78	 add	 ecx, 120		; 00000078H
  00063	e8 00 00 00 00	 call	 ??0KList@@QAE@XZ	; KList::KList

; 24   :     m_pScene = NULL;

  00068	8b 45 f0	 mov	 eax, DWORD PTR _this$[ebp]
  0006b	c7 40 18 00 00
	00 00		 mov	 DWORD PTR [eax+24], 0

; 25   : }

  00072	c7 45 fc ff ff
	ff ff		 mov	 DWORD PTR __$EHRec$[ebp+8], -1
  00079	8b 45 f0	 mov	 eax, DWORD PTR _this$[ebp]
  0007c	8b 4d f4	 mov	 ecx, DWORD PTR __$EHRec$[ebp]
  0007f	64 89 0d 00 00
	00 00		 mov	 DWORD PTR fs:0, ecx
  00086	59		 pop	 ecx
  00087	83 c4 10	 add	 esp, 16			; 00000010H
  0008a	3b ec		 cmp	 ebp, esp
  0008c	e8 00 00 00 00	 call	 __RTC_CheckEsp
  00091	8b e5		 mov	 esp, ebp
  00093	5d		 pop	 ebp
  00094	c3		 ret	 0
_TEXT	ENDS
text$x	SEGMENT
__unwindfunclet$??0KRegion@@QAE@XZ$0:
  00000	8b 4d f0	 mov	 ecx, DWORD PTR _this$[ebp]
  00003	83 c1 30	 add	 ecx, 48			; 00000030H
  00006	e9 00 00 00 00	 jmp	 ??1KList@@QAE@XZ
__unwindfunclet$??0KRegion@@QAE@XZ$1:
  0000b	8b 4d f0	 mov	 ecx, DWORD PTR _this$[ebp]
  0000e	83 c1 48	 add	 ecx, 72			; 00000048H
  00011	e9 00 00 00 00	 jmp	 ??1KList@@QAE@XZ
__unwindfunclet$??0KRegion@@QAE@XZ$2:
  00016	8b 4d f0	 mov	 ecx, DWORD PTR _this$[ebp]
  00019	83 c1 60	 add	 ecx, 96			; 00000060H
  0001c	e9 00 00 00 00	 jmp	 ??1KList@@QAE@XZ
__ehhandler$??0KRegion@@QAE@XZ:
  00021	8b 54 24 08	 mov	 edx, DWORD PTR [esp+8]
  00025	8d 42 0c	 lea	 eax, DWORD PTR [edx+12]
  00028	8b 4a f8	 mov	 ecx, DWORD PTR [edx-8]
  0002b	33 c8		 xor	 ecx, eax
  0002d	e8 00 00 00 00	 call	 @__security_check_cookie@4
  00032	b8 00 00 00 00	 mov	 eax, OFFSET __ehfuncinfo$??0KRegion@@QAE@XZ
  00037	e9 00 00 00 00	 jmp	 ___CxxFrameHandler3
text$x	ENDS
??0KRegion@@QAE@XZ ENDP					; KRegion::KRegion
PUBLIC	??1KNode@@UAE@XZ				; KNode::~KNode
PUBLIC	??0KNode@@QAE@XZ				; KNode::KNode
;	COMDAT xdata$x
; File d:\code\game\base\include\engine\klist.h
xdata$x	SEGMENT
__unwindtable$??0KList@@QAE@XZ DD 0ffffffffH
	DD	FLAT:__unwindfunclet$??0KList@@QAE@XZ$0
__ehfuncinfo$??0KList@@QAE@XZ DD 019930522H
	DD	01H
	DD	FLAT:__unwindtable$??0KList@@QAE@XZ
	DD	2 DUP(00H)
	DD	2 DUP(00H)
	DD	00H
	DD	01H
; Function compile flags: /Odtp /RTCsu
xdata$x	ENDS
;	COMDAT ??0KList@@QAE@XZ
_TEXT	SEGMENT
_this$ = -16						; size = 4
__$EHRec$ = -12						; size = 12
??0KList@@QAE@XZ PROC					; KList::KList, COMDAT
; _this$ = ecx

; 37   : {

  00000	55		 push	 ebp
  00001	8b ec		 mov	 ebp, esp
  00003	6a ff		 push	 -1
  00005	68 00 00 00 00	 push	 __ehhandler$??0KList@@QAE@XZ
  0000a	64 a1 00 00 00
	00		 mov	 eax, DWORD PTR fs:0
  00010	50		 push	 eax
  00011	51		 push	 ecx
  00012	c7 45 f0 cc cc
	cc cc		 mov	 DWORD PTR [ebp-16], -858993460 ; ccccccccH
  00019	a1 00 00 00 00	 mov	 eax, DWORD PTR ___security_cookie
  0001e	33 c5		 xor	 eax, ebp
  00020	50		 push	 eax
  00021	8d 45 f4	 lea	 eax, DWORD PTR __$EHRec$[ebp]
  00024	64 a3 00 00 00
	00		 mov	 DWORD PTR fs:0, eax
  0002a	89 4d f0	 mov	 DWORD PTR _this$[ebp], ecx
  0002d	8b 4d f0	 mov	 ecx, DWORD PTR _this$[ebp]
  00030	e8 00 00 00 00	 call	 ??0KNode@@QAE@XZ	; KNode::KNode
  00035	c7 45 fc 00 00
	00 00		 mov	 DWORD PTR __$EHRec$[ebp+8], 0
  0003c	8b 4d f0	 mov	 ecx, DWORD PTR _this$[ebp]
  0003f	83 c1 0c	 add	 ecx, 12			; 0000000cH
  00042	e8 00 00 00 00	 call	 ??0KNode@@QAE@XZ	; KNode::KNode

; 38   : 	m_ListHead.m_pNext = &m_ListTail;

  00047	8b 45 f0	 mov	 eax, DWORD PTR _this$[ebp]
  0004a	83 c0 0c	 add	 eax, 12			; 0000000cH
  0004d	8b 4d f0	 mov	 ecx, DWORD PTR _this$[ebp]
  00050	89 41 04	 mov	 DWORD PTR [ecx+4], eax

; 39   : 	m_ListTail.m_pPrev = &m_ListHead;

  00053	8b 55 f0	 mov	 edx, DWORD PTR _this$[ebp]
  00056	8b 45 f0	 mov	 eax, DWORD PTR _this$[ebp]
  00059	89 42 14	 mov	 DWORD PTR [edx+20], eax

; 40   : }

  0005c	c7 45 fc ff ff
	ff ff		 mov	 DWORD PTR __$EHRec$[ebp+8], -1
  00063	8b 45 f0	 mov	 eax, DWORD PTR _this$[ebp]
  00066	8b 4d f4	 mov	 ecx, DWORD PTR __$EHRec$[ebp]
  00069	64 89 0d 00 00
	00 00		 mov	 DWORD PTR fs:0, ecx
  00070	59		 pop	 ecx
  00071	83 c4 10	 add	 esp, 16			; 00000010H
  00074	3b ec		 cmp	 ebp, esp
  00076	e8 00 00 00 00	 call	 __RTC_CheckEsp
  0007b	8b e5		 mov	 esp, ebp
  0007d	5d		 pop	 ebp
  0007e	c3		 ret	 0
_TEXT	ENDS
;	COMDAT text$x
text$x	SEGMENT
__unwindfunclet$??0KList@@QAE@XZ$0:
  00000	8b 4d f0	 mov	 ecx, DWORD PTR _this$[ebp]
  00003	e9 00 00 00 00	 jmp	 ??1KNode@@UAE@XZ	; KNode::~KNode
__ehhandler$??0KList@@QAE@XZ:
  00008	8b 54 24 08	 mov	 edx, DWORD PTR [esp+8]
  0000c	8d 42 0c	 lea	 eax, DWORD PTR [edx+12]
  0000f	8b 4a f8	 mov	 ecx, DWORD PTR [edx-8]
  00012	33 c8		 xor	 ecx, eax
  00014	e8 00 00 00 00	 call	 @__security_check_cookie@4
  00019	b8 00 00 00 00	 mov	 eax, OFFSET __ehfuncinfo$??0KList@@QAE@XZ
  0001e	e9 00 00 00 00	 jmp	 ___CxxFrameHandler3
text$x	ENDS
??0KList@@QAE@XZ ENDP					; KList::KList
PUBLIC	??_7KNode@@6B@					; KNode::`vftable'
PUBLIC	??_R4KNode@@6B@					; KNode::`RTTI Complete Object Locator'
PUBLIC	??_R0?AVKNode@@@8				; KNode `RTTI Type Descriptor'
PUBLIC	??_R3KNode@@8					; KNode::`RTTI Class Hierarchy Descriptor'
PUBLIC	??_R2KNode@@8					; KNode::`RTTI Base Class Array'
PUBLIC	??_R1A@?0A@EA@KNode@@8				; KNode::`RTTI Base Class Descriptor at (0,-1,0,64)'
EXTRN	??_7type_info@@6B@:QWORD			; type_info::`vftable'
EXTRN	??_EKNode@@UAEPAXI@Z:PROC			; KNode::`vector deleting destructor'
;	COMDAT ??_R1A@?0A@EA@KNode@@8
; File d:\code\game\base\include\engine\knode.h
rdata$r	SEGMENT
??_R1A@?0A@EA@KNode@@8 DD FLAT:??_R0?AVKNode@@@8	; KNode::`RTTI Base Class Descriptor at (0,-1,0,64)'
	DD	00H
	DD	00H
	DD	0ffffffffH
	DD	00H
	DD	040H
	DD	FLAT:??_R3KNode@@8
rdata$r	ENDS
;	COMDAT ??_R2KNode@@8
rdata$r	SEGMENT
??_R2KNode@@8 DD FLAT:??_R1A@?0A@EA@KNode@@8		; KNode::`RTTI Base Class Array'
rdata$r	ENDS
;	COMDAT ??_R3KNode@@8
rdata$r	SEGMENT
??_R3KNode@@8 DD 00H					; KNode::`RTTI Class Hierarchy Descriptor'
	DD	00H
	DD	01H
	DD	FLAT:??_R2KNode@@8
rdata$r	ENDS
;	COMDAT ??_R0?AVKNode@@@8
_DATA	SEGMENT
??_R0?AVKNode@@@8 DD FLAT:??_7type_info@@6B@		; KNode `RTTI Type Descriptor'
	DD	00H
	DB	'.?AVKNode@@', 00H
_DATA	ENDS
;	COMDAT ??_R4KNode@@6B@
rdata$r	SEGMENT
??_R4KNode@@6B@ DD 00H					; KNode::`RTTI Complete Object Locator'
	DD	00H
	DD	00H
	DD	FLAT:??_R0?AVKNode@@@8
	DD	FLAT:??_R3KNode@@8
rdata$r	ENDS
;	COMDAT ??_7KNode@@6B@
CONST	SEGMENT
??_7KNode@@6B@ DD FLAT:??_R4KNode@@6B@			; KNode::`vftable'
	DD	FLAT:??_EKNode@@UAEPAXI@Z
; Function compile flags: /Odtp /RTCsu
CONST	ENDS
;	COMDAT ??1KNode@@UAE@XZ
_TEXT	SEGMENT
_this$ = -4						; size = 4
??1KNode@@UAE@XZ PROC					; KNode::~KNode, COMDAT
; _this$ = ecx

; 25   : 	virtual ~KNode(){};

  00000	55		 push	 ebp
  00001	8b ec		 mov	 ebp, esp
  00003	51		 push	 ecx
  00004	c7 45 fc cc cc
	cc cc		 mov	 DWORD PTR [ebp-4], -858993460 ; ccccccccH
  0000b	89 4d fc	 mov	 DWORD PTR _this$[ebp], ecx
  0000e	8b 45 fc	 mov	 eax, DWORD PTR _this$[ebp]
  00011	c7 00 00 00 00
	00		 mov	 DWORD PTR [eax], OFFSET ??_7KNode@@6B@
  00017	8b e5		 mov	 esp, ebp
  00019	5d		 pop	 ebp
  0001a	c3		 ret	 0
??1KNode@@UAE@XZ ENDP					; KNode::~KNode
_TEXT	ENDS
EXTRN	??3@YAXPAX@Z:PROC				; operator delete
; Function compile flags: /Odtp /RTCsu
;	COMDAT ??_GKNode@@UAEPAXI@Z
_TEXT	SEGMENT
_this$ = -4						; size = 4
___flags$ = 8						; size = 4
??_GKNode@@UAEPAXI@Z PROC				; KNode::`scalar deleting destructor', COMDAT
; _this$ = ecx
  00000	55		 push	 ebp
  00001	8b ec		 mov	 ebp, esp
  00003	51		 push	 ecx
  00004	c7 45 fc cc cc
	cc cc		 mov	 DWORD PTR [ebp-4], -858993460 ; ccccccccH
  0000b	89 4d fc	 mov	 DWORD PTR _this$[ebp], ecx
  0000e	8b 4d fc	 mov	 ecx, DWORD PTR _this$[ebp]
  00011	e8 00 00 00 00	 call	 ??1KNode@@UAE@XZ	; KNode::~KNode
  00016	8b 45 08	 mov	 eax, DWORD PTR ___flags$[ebp]
  00019	83 e0 01	 and	 eax, 1
  0001c	74 0c		 je	 SHORT $LN1@scalar
  0001e	8b 4d fc	 mov	 ecx, DWORD PTR _this$[ebp]
  00021	51		 push	 ecx
  00022	e8 00 00 00 00	 call	 ??3@YAXPAX@Z		; operator delete
  00027	83 c4 04	 add	 esp, 4
$LN1@scalar:
  0002a	8b 45 fc	 mov	 eax, DWORD PTR _this$[ebp]
  0002d	83 c4 04	 add	 esp, 4
  00030	3b ec		 cmp	 ebp, esp
  00032	e8 00 00 00 00	 call	 __RTC_CheckEsp
  00037	8b e5		 mov	 esp, ebp
  00039	5d		 pop	 ebp
  0003a	c2 04 00	 ret	 4
??_GKNode@@UAEPAXI@Z ENDP				; KNode::`scalar deleting destructor'
; Function compile flags: /Odtp /RTCsu
_TEXT	ENDS
;	COMDAT ??0KNode@@QAE@XZ
_TEXT	SEGMENT
_this$ = -4						; size = 4
??0KNode@@QAE@XZ PROC					; KNode::KNode, COMDAT
; _this$ = ecx

; 40   : {

  00000	55		 push	 ebp
  00001	8b ec		 mov	 ebp, esp
  00003	51		 push	 ecx
  00004	c7 45 fc cc cc
	cc cc		 mov	 DWORD PTR [ebp-4], -858993460 ; ccccccccH
  0000b	89 4d fc	 mov	 DWORD PTR _this$[ebp], ecx
  0000e	8b 45 fc	 mov	 eax, DWORD PTR _this$[ebp]
  00011	c7 00 00 00 00
	00		 mov	 DWORD PTR [eax], OFFSET ??_7KNode@@6B@

; 41   : 	m_pNext = NULL;

  00017	8b 4d fc	 mov	 ecx, DWORD PTR _this$[ebp]
  0001a	c7 41 04 00 00
	00 00		 mov	 DWORD PTR [ecx+4], 0

; 42   : 	m_pPrev = NULL;

  00021	8b 55 fc	 mov	 edx, DWORD PTR _this$[ebp]
  00024	c7 42 08 00 00
	00 00		 mov	 DWORD PTR [edx+8], 0

; 43   : }

  0002b	8b 45 fc	 mov	 eax, DWORD PTR _this$[ebp]
  0002e	8b e5		 mov	 esp, ebp
  00030	5d		 pop	 ebp
  00031	c3		 ret	 0
??0KNode@@QAE@XZ ENDP					; KNode::KNode
_TEXT	ENDS
;	COMDAT xdata$x
xdata$x	SEGMENT
__unwindtable$??1KList@@QAE@XZ DD 0ffffffffH
	DD	FLAT:__unwindfunclet$??1KList@@QAE@XZ$0
__ehfuncinfo$??1KList@@QAE@XZ DD 019930522H
	DD	01H
	DD	FLAT:__unwindtable$??1KList@@QAE@XZ
	DD	2 DUP(00H)
	DD	2 DUP(00H)
	DD	00H
	DD	01H
; Function compile flags: /Odtp /RTCsu
xdata$x	ENDS
;	COMDAT ??1KList@@QAE@XZ
_TEXT	SEGMENT
_this$ = -16						; size = 4
__$EHRec$ = -12						; size = 12
??1KList@@QAE@XZ PROC					; KList::~KList, COMDAT
; _this$ = ecx
  00000	55		 push	 ebp
  00001	8b ec		 mov	 ebp, esp
  00003	6a ff		 push	 -1
  00005	68 00 00 00 00	 push	 __ehhandler$??1KList@@QAE@XZ
  0000a	64 a1 00 00 00
	00		 mov	 eax, DWORD PTR fs:0
  00010	50		 push	 eax
  00011	51		 push	 ecx
  00012	c7 45 f0 cc cc
	cc cc		 mov	 DWORD PTR [ebp-16], -858993460 ; ccccccccH
  00019	a1 00 00 00 00	 mov	 eax, DWORD PTR ___security_cookie
  0001e	33 c5		 xor	 eax, ebp
  00020	50		 push	 eax
  00021	8d 45 f4	 lea	 eax, DWORD PTR __$EHRec$[ebp]
  00024	64 a3 00 00 00
	00		 mov	 DWORD PTR fs:0, eax
  0002a	89 4d f0	 mov	 DWORD PTR _this$[ebp], ecx
  0002d	c7 45 fc 00 00
	00 00		 mov	 DWORD PTR __$EHRec$[ebp+8], 0
  00034	8b 4d f0	 mov	 ecx, DWORD PTR _this$[ebp]
  00037	83 c1 0c	 add	 ecx, 12			; 0000000cH
  0003a	e8 00 00 00 00	 call	 ??1KNode@@UAE@XZ	; KNode::~KNode
  0003f	c7 45 fc ff ff
	ff ff		 mov	 DWORD PTR __$EHRec$[ebp+8], -1
  00046	8b 4d f0	 mov	 ecx, DWORD PTR _this$[ebp]
  00049	e8 00 00 00 00	 call	 ??1KNode@@UAE@XZ	; KNode::~KNode
  0004e	8b 4d f4	 mov	 ecx, DWORD PTR __$EHRec$[ebp]
  00051	64 89 0d 00 00
	00 00		 mov	 DWORD PTR fs:0, ecx
  00058	59		 pop	 ecx
  00059	83 c4 10	 add	 esp, 16			; 00000010H
  0005c	3b ec		 cmp	 ebp, esp
  0005e	e8 00 00 00 00	 call	 __RTC_CheckEsp
  00063	8b e5		 mov	 esp, ebp
  00065	5d		 pop	 ebp
  00066	c3		 ret	 0
_TEXT	ENDS
;	COMDAT text$x
text$x	SEGMENT
__unwindfunclet$??1KList@@QAE@XZ$0:
  00000	8b 4d f0	 mov	 ecx, DWORD PTR _this$[ebp]
  00003	e9 00 00 00 00	 jmp	 ??1KNode@@UAE@XZ	; KNode::~KNode
__ehhandler$??1KList@@QAE@XZ:
  00008	8b 54 24 08	 mov	 edx, DWORD PTR [esp+8]
  0000c	8d 42 0c	 lea	 eax, DWORD PTR [edx+12]
  0000f	8b 4a f8	 mov	 ecx, DWORD PTR [edx-8]
  00012	33 c8		 xor	 ecx, eax
  00014	e8 00 00 00 00	 call	 @__security_check_cookie@4
  00019	b8 00 00 00 00	 mov	 eax, OFFSET __ehfuncinfo$??1KList@@QAE@XZ
  0001e	e9 00 00 00 00	 jmp	 ___CxxFrameHandler3
text$x	ENDS
??1KList@@QAE@XZ ENDP					; KList::~KList
PUBLIC	??1KRegion@@QAE@XZ				; KRegion::~KRegion
xdata$x	SEGMENT
__unwindtable$??1KRegion@@QAE@XZ DD 0ffffffffH
	DD	FLAT:__unwindfunclet$??1KRegion@@QAE@XZ$0
	DD	00H
	DD	FLAT:__unwindfunclet$??1KRegion@@QAE@XZ$1
	DD	01H
	DD	FLAT:__unwindfunclet$??1KRegion@@QAE@XZ$2
__ehfuncinfo$??1KRegion@@QAE@XZ DD 019930522H
	DD	03H
	DD	FLAT:__unwindtable$??1KRegion@@QAE@XZ
	DD	2 DUP(00H)
	DD	2 DUP(00H)
	DD	00H
	DD	01H
; Function compile flags: /Odtp /RTCsu
; File d:\code\game\sword3\source\common\so3world\src\kregion.cpp
xdata$x	ENDS
_TEXT	SEGMENT
_this$ = -16						; size = 4
__$EHRec$ = -12						; size = 12
??1KRegion@@QAE@XZ PROC					; KRegion::~KRegion
; _this$ = ecx

; 28   : {

  000a0	55		 push	 ebp
  000a1	8b ec		 mov	 ebp, esp
  000a3	6a ff		 push	 -1
  000a5	68 00 00 00 00	 push	 __ehhandler$??1KRegion@@QAE@XZ
  000aa	64 a1 00 00 00
	00		 mov	 eax, DWORD PTR fs:0
  000b0	50		 push	 eax
  000b1	51		 push	 ecx
  000b2	c7 45 f0 cc cc
	cc cc		 mov	 DWORD PTR [ebp-16], -858993460 ; ccccccccH
  000b9	a1 00 00 00 00	 mov	 eax, DWORD PTR ___security_cookie
  000be	33 c5		 xor	 eax, ebp
  000c0	50		 push	 eax
  000c1	8d 45 f4	 lea	 eax, DWORD PTR __$EHRec$[ebp]
  000c4	64 a3 00 00 00
	00		 mov	 DWORD PTR fs:0, eax
  000ca	89 4d f0	 mov	 DWORD PTR _this$[ebp], ecx
  000cd	c7 45 fc 02 00
	00 00		 mov	 DWORD PTR __$EHRec$[ebp+8], 2

; 29   : }

  000d4	8b 4d f0	 mov	 ecx, DWORD PTR _this$[ebp]
  000d7	83 c1 78	 add	 ecx, 120		; 00000078H
  000da	e8 00 00 00 00	 call	 ??1KList@@QAE@XZ
  000df	c6 45 fc 01	 mov	 BYTE PTR __$EHRec$[ebp+8], 1
  000e3	8b 4d f0	 mov	 ecx, DWORD PTR _this$[ebp]
  000e6	83 c1 60	 add	 ecx, 96			; 00000060H
  000e9	e8 00 00 00 00	 call	 ??1KList@@QAE@XZ
  000ee	c6 45 fc 00	 mov	 BYTE PTR __$EHRec$[ebp+8], 0
  000f2	8b 4d f0	 mov	 ecx, DWORD PTR _this$[ebp]
  000f5	83 c1 48	 add	 ecx, 72			; 00000048H
  000f8	e8 00 00 00 00	 call	 ??1KList@@QAE@XZ
  000fd	c7 45 fc ff ff
	ff ff		 mov	 DWORD PTR __$EHRec$[ebp+8], -1
  00104	8b 4d f0	 mov	 ecx, DWORD PTR _this$[ebp]
  00107	83 c1 30	 add	 ecx, 48			; 00000030H
  0010a	e8 00 00 00 00	 call	 ??1KList@@QAE@XZ
  0010f	8b 4d f4	 mov	 ecx, DWORD PTR __$EHRec$[ebp]
  00112	64 89 0d 00 00
	00 00		 mov	 DWORD PTR fs:0, ecx
  00119	59		 pop	 ecx
  0011a	83 c4 10	 add	 esp, 16			; 00000010H
  0011d	3b ec		 cmp	 ebp, esp
  0011f	e8 00 00 00 00	 call	 __RTC_CheckEsp
  00124	8b e5		 mov	 esp, ebp
  00126	5d		 pop	 ebp
  00127	c3		 ret	 0
_TEXT	ENDS
text$x	SEGMENT
__unwindfunclet$??1KRegion@@QAE@XZ$0:
  0003c	8b 4d f0	 mov	 ecx, DWORD PTR _this$[ebp]
  0003f	83 c1 30	 add	 ecx, 48			; 00000030H
  00042	e9 00 00 00 00	 jmp	 ??1KList@@QAE@XZ
__unwindfunclet$??1KRegion@@QAE@XZ$1:
  00047	8b 4d f0	 mov	 ecx, DWORD PTR _this$[ebp]
  0004a	83 c1 48	 add	 ecx, 72			; 00000048H
  0004d	e9 00 00 00 00	 jmp	 ??1KList@@QAE@XZ
__unwindfunclet$??1KRegion@@QAE@XZ$2:
  00052	8b 4d f0	 mov	 ecx, DWORD PTR _this$[ebp]
  00055	83 c1 60	 add	 ecx, 96			; 00000060H
  00058	e9 00 00 00 00	 jmp	 ??1KList@@QAE@XZ
__ehhandler$??1KRegion@@QAE@XZ:
  0005d	8b 54 24 08	 mov	 edx, DWORD PTR [esp+8]
  00061	8d 42 0c	 lea	 eax, DWORD PTR [edx+12]
  00064	8b 4a f8	 mov	 ecx, DWORD PTR [edx-8]
  00067	33 c8		 xor	 ecx, eax
  00069	e8 00 00 00 00	 call	 @__security_check_cookie@4
  0006e	b8 00 00 00 00	 mov	 eax, OFFSET __ehfuncinfo$??1KRegion@@QAE@XZ
  00073	e9 00 00 00 00	 jmp	 ___CxxFrameHandler3
text$x	ENDS
??1KRegion@@QAE@XZ ENDP					; KRegion::~KRegion
PUBLIC	?IsEmpty@KList@@QAEHXZ				; KList::IsEmpty
PUBLIC	?Init@KRegion@@QAEHPAVKScene@@HH@Z		; KRegion::Init
EXTRN	?GetRegionScriptData@KTerrainScene@@QAEPAKHH@Z:PROC ; KTerrainScene::GetRegionScriptData
EXTRN	?GetRegionTerrainData@KTerrainScene@@QAEPAUKCell@@HH@Z:PROC ; KTerrainScene::GetRegionTerrainData
EXTRN	__imp_?KGLogPrintf@@YAHW4KGLOG_PRIORITY@@QBDZZ:PROC
EXTRN	__imp___wassert:PROC
; Function compile flags: /Odtp /RTCsu
_TEXT	SEGMENT
_pTerrainScene$ = -12					; size = 4
_bResult$ = -8						; size = 4
_this$ = -4						; size = 4
_pScene$ = 8						; size = 4
_nRegionX$ = 12						; size = 4
_nRegionY$ = 16						; size = 4
?Init@KRegion@@QAEHPAVKScene@@HH@Z PROC			; KRegion::Init
; _this$ = ecx

; 32   : {

  00130	55		 push	 ebp
  00131	8b ec		 mov	 ebp, esp
  00133	83 ec 0c	 sub	 esp, 12			; 0000000cH
  00136	56		 push	 esi
  00137	c7 45 f4 cc cc
	cc cc		 mov	 DWORD PTR [ebp-12], -858993460 ; ccccccccH
  0013e	c7 45 f8 cc cc
	cc cc		 mov	 DWORD PTR [ebp-8], -858993460 ; ccccccccH
  00145	c7 45 fc cc cc
	cc cc		 mov	 DWORD PTR [ebp-4], -858993460 ; ccccccccH
  0014c	89 4d fc	 mov	 DWORD PTR _this$[ebp], ecx

; 33   :     BOOL           bResult       = false;

  0014f	c7 45 f8 00 00
	00 00		 mov	 DWORD PTR _bResult$[ebp], 0

; 34   :     KTerrainScene* pTerrainScene = NULL;

  00156	c7 45 f4 00 00
	00 00		 mov	 DWORD PTR _pTerrainScene$[ebp], 0

; 35   : 
; 36   :     assert(pScene);

  0015d	83 7d 08 00	 cmp	 DWORD PTR _pScene$[ebp], 0
  00161	75 1e		 jne	 SHORT $LN18@Init
  00163	8b f4		 mov	 esi, esp
  00165	6a 24		 push	 36			; 00000024H
  00167	68 00 00 00 00	 push	 OFFSET $SG176802
  0016c	68 00 00 00 00	 push	 OFFSET $SG176803
  00171	ff 15 00 00 00
	00		 call	 DWORD PTR __imp___wassert
  00177	83 c4 0c	 add	 esp, 12			; 0000000cH
  0017a	3b f4		 cmp	 esi, esp
  0017c	e8 00 00 00 00	 call	 __RTC_CheckEsp
$LN18@Init:

; 37   :     assert(nRegionX >= 0);

  00181	83 7d 0c 00	 cmp	 DWORD PTR _nRegionX$[ebp], 0
  00185	7d 1e		 jge	 SHORT $LN19@Init
  00187	8b f4		 mov	 esi, esp
  00189	6a 25		 push	 37			; 00000025H
  0018b	68 00 00 00 00	 push	 OFFSET $SG176805
  00190	68 00 00 00 00	 push	 OFFSET $SG176806
  00195	ff 15 00 00 00
	00		 call	 DWORD PTR __imp___wassert
  0019b	83 c4 0c	 add	 esp, 12			; 0000000cH
  0019e	3b f4		 cmp	 esi, esp
  001a0	e8 00 00 00 00	 call	 __RTC_CheckEsp
$LN19@Init:

; 38   :     assert(nRegionY >= 0);

  001a5	83 7d 10 00	 cmp	 DWORD PTR _nRegionY$[ebp], 0
  001a9	7d 1e		 jge	 SHORT $LN20@Init
  001ab	8b f4		 mov	 esi, esp
  001ad	6a 26		 push	 38			; 00000026H
  001af	68 00 00 00 00	 push	 OFFSET $SG176808
  001b4	68 00 00 00 00	 push	 OFFSET $SG176809
  001b9	ff 15 00 00 00
	00		 call	 DWORD PTR __imp___wassert
  001bf	83 c4 0c	 add	 esp, 12			; 0000000cH
  001c2	3b f4		 cmp	 esi, esp
  001c4	e8 00 00 00 00	 call	 __RTC_CheckEsp
$LN20@Init:

; 39   : 	assert(m_PlayerList.IsEmpty());

  001c9	8b 4d fc	 mov	 ecx, DWORD PTR _this$[ebp]
  001cc	83 c1 60	 add	 ecx, 96			; 00000060H
  001cf	e8 00 00 00 00	 call	 ?IsEmpty@KList@@QAEHXZ	; KList::IsEmpty
  001d4	85 c0		 test	 eax, eax
  001d6	75 1e		 jne	 SHORT $LN21@Init
  001d8	8b f4		 mov	 esi, esp
  001da	6a 27		 push	 39			; 00000027H
  001dc	68 00 00 00 00	 push	 OFFSET $SG176811
  001e1	68 00 00 00 00	 push	 OFFSET $SG176812
  001e6	ff 15 00 00 00
	00		 call	 DWORD PTR __imp___wassert
  001ec	83 c4 0c	 add	 esp, 12			; 0000000cH
  001ef	3b f4		 cmp	 esi, esp
  001f1	e8 00 00 00 00	 call	 __RTC_CheckEsp
$LN21@Init:

; 40   : 	assert(m_NpcList.IsEmpty());

  001f6	8b 4d fc	 mov	 ecx, DWORD PTR _this$[ebp]
  001f9	83 c1 30	 add	 ecx, 48			; 00000030H
  001fc	e8 00 00 00 00	 call	 ?IsEmpty@KList@@QAEHXZ	; KList::IsEmpty
  00201	85 c0		 test	 eax, eax
  00203	75 1e		 jne	 SHORT $LN22@Init
  00205	8b f4		 mov	 esi, esp
  00207	6a 28		 push	 40			; 00000028H
  00209	68 00 00 00 00	 push	 OFFSET $SG176814
  0020e	68 00 00 00 00	 push	 OFFSET $SG176815
  00213	ff 15 00 00 00
	00		 call	 DWORD PTR __imp___wassert
  00219	83 c4 0c	 add	 esp, 12			; 0000000cH
  0021c	3b f4		 cmp	 esi, esp
  0021e	e8 00 00 00 00	 call	 __RTC_CheckEsp
$LN22@Init:

; 41   : 	assert(m_DoodadList.IsEmpty());

  00223	8b 4d fc	 mov	 ecx, DWORD PTR _this$[ebp]
  00226	83 c1 48	 add	 ecx, 72			; 00000048H
  00229	e8 00 00 00 00	 call	 ?IsEmpty@KList@@QAEHXZ	; KList::IsEmpty
  0022e	85 c0		 test	 eax, eax
  00230	75 1e		 jne	 SHORT $LN23@Init
  00232	8b f4		 mov	 esi, esp
  00234	6a 29		 push	 41			; 00000029H
  00236	68 00 00 00 00	 push	 OFFSET $SG176817
  0023b	68 00 00 00 00	 push	 OFFSET $SG176818
  00240	ff 15 00 00 00
	00		 call	 DWORD PTR __imp___wassert
  00246	83 c4 0c	 add	 esp, 12			; 0000000cH
  00249	3b f4		 cmp	 esi, esp
  0024b	e8 00 00 00 00	 call	 __RTC_CheckEsp
$LN23@Init:

; 42   : 
; 43   :     m_pScene                = pScene;

  00250	8b 45 fc	 mov	 eax, DWORD PTR _this$[ebp]
  00253	8b 4d 08	 mov	 ecx, DWORD PTR _pScene$[ebp]
  00256	89 48 18	 mov	 DWORD PTR [eax+24], ecx

; 44   :     m_nRegionX              = nRegionX;

  00259	8b 55 fc	 mov	 edx, DWORD PTR _this$[ebp]
  0025c	8b 45 0c	 mov	 eax, DWORD PTR _nRegionX$[ebp]
  0025f	89 42 10	 mov	 DWORD PTR [edx+16], eax

; 45   :     m_nRegionY              = nRegionY;

  00262	8b 4d fc	 mov	 ecx, DWORD PTR _this$[ebp]
  00265	8b 55 10	 mov	 edx, DWORD PTR _nRegionY$[ebp]
  00268	89 51 14	 mov	 DWORD PTR [ecx+20], edx

; 46   :     m_nLeftCell             = nRegionX * REGION_GRID_WIDTH;

  0026b	8b 45 0c	 mov	 eax, DWORD PTR _nRegionX$[ebp]
  0026e	c1 e0 06	 shl	 eax, 6
  00271	8b 4d fc	 mov	 ecx, DWORD PTR _this$[ebp]
  00274	89 01		 mov	 DWORD PTR [ecx], eax

; 47   :     m_nBottomCell           = nRegionY * REGION_GRID_HEIGHT;

  00276	8b 55 10	 mov	 edx, DWORD PTR _nRegionY$[ebp]
  00279	c1 e2 06	 shl	 edx, 6
  0027c	8b 45 fc	 mov	 eax, DWORD PTR _this$[ebp]
  0027f	89 50 04	 mov	 DWORD PTR [eax+4], edx

; 48   :     m_nLeft                 = m_nLeftCell * CELL_LENGTH;

  00282	8b 4d fc	 mov	 ecx, DWORD PTR _this$[ebp]
  00285	8b 11		 mov	 edx, DWORD PTR [ecx]
  00287	c1 e2 05	 shl	 edx, 5
  0028a	8b 45 fc	 mov	 eax, DWORD PTR _this$[ebp]
  0028d	89 50 08	 mov	 DWORD PTR [eax+8], edx

; 49   :     m_nBottom               = m_nBottomCell * CELL_LENGTH;

  00290	8b 4d fc	 mov	 ecx, DWORD PTR _this$[ebp]
  00293	8b 51 04	 mov	 edx, DWORD PTR [ecx+4]
  00296	c1 e2 05	 shl	 edx, 5
  00299	8b 45 fc	 mov	 eax, DWORD PTR _this$[ebp]
  0029c	89 50 0c	 mov	 DWORD PTR [eax+12], edx

; 50   : 	m_nActiveFrame          = 0;

  0029f	8b 4d fc	 mov	 ecx, DWORD PTR _this$[ebp]
  002a2	c7 41 28 00 00
	00 00		 mov	 DWORD PTR [ecx+40], 0

; 51   :     m_nInFightPlayerCount   = 0;

  002a9	8b 55 fc	 mov	 edx, DWORD PTR _this$[ebp]
  002ac	c7 42 2c 00 00
	00 00		 mov	 DWORD PTR [edx+44], 0

; 52   : 
; 53   : #ifdef _CLIENT
; 54   :     memset(m_Cells, 0, sizeof(m_Cells));
; 55   :     m_pCells = m_Cells;
; 56   : 
; 57   : 	memset(m_dwScriptList, 0, sizeof(m_dwScriptList));
; 58   :     m_pdwScriptList = m_dwScriptList;
; 59   : #endif
; 60   : 
; 61   : #ifdef _SERVER
; 62   :     pTerrainScene = pScene->m_pTerrainScene;

  002b3	8b 45 08	 mov	 eax, DWORD PTR _pScene$[ebp]
  002b6	8b 88 90 01 00
	00		 mov	 ecx, DWORD PTR [eax+400]
  002bc	89 4d f4	 mov	 DWORD PTR _pTerrainScene$[ebp], ecx
$LN15@Init:

; 63   :     KGLOG_PROCESS_ERROR(pTerrainScene);

  002bf	83 7d f4 00	 cmp	 DWORD PTR _pTerrainScene$[ebp], 0
  002c3	75 2f		 jne	 SHORT $LN14@Init
  002c5	8b f4		 mov	 esi, esp
  002c7	68 00 00 00 00	 push	 OFFSET $SG176823
  002cc	6a 3f		 push	 63			; 0000003fH
  002ce	68 00 00 00 00	 push	 OFFSET $SG176824
  002d3	68 00 00 00 00	 push	 OFFSET $SG176825
  002d8	6a 07		 push	 7
  002da	ff 15 00 00 00
	00		 call	 DWORD PTR __imp_?KGLogPrintf@@YAHW4KGLOG_PRIORITY@@QBDZZ
  002e0	83 c4 14	 add	 esp, 20			; 00000014H
  002e3	3b f4		 cmp	 esi, esp
  002e5	e8 00 00 00 00	 call	 __RTC_CheckEsp
  002ea	e9 a8 00 00 00	 jmp	 $Exit0$176826
  002ef	e9 a3 00 00 00	 jmp	 $Exit0$176826
$LN14@Init:
  002f4	33 d2		 xor	 edx, edx
  002f6	75 c7		 jne	 SHORT $LN15@Init

; 64   : 
; 65   :     m_pCells = pTerrainScene->GetRegionTerrainData(nRegionX, nRegionY);

  002f8	8b 45 10	 mov	 eax, DWORD PTR _nRegionY$[ebp]
  002fb	50		 push	 eax
  002fc	8b 4d 0c	 mov	 ecx, DWORD PTR _nRegionX$[ebp]
  002ff	51		 push	 ecx
  00300	8b 4d f4	 mov	 ecx, DWORD PTR _pTerrainScene$[ebp]
  00303	e8 00 00 00 00	 call	 ?GetRegionTerrainData@KTerrainScene@@QAEPAUKCell@@HH@Z ; KTerrainScene::GetRegionTerrainData
  00308	8b 55 fc	 mov	 edx, DWORD PTR _this$[ebp]
  0030b	89 42 1c	 mov	 DWORD PTR [edx+28], eax
$LN10@Init:

; 66   :     KGLOG_PROCESS_ERROR(m_pCells);

  0030e	8b 45 fc	 mov	 eax, DWORD PTR _this$[ebp]
  00311	83 78 1c 00	 cmp	 DWORD PTR [eax+28], 0
  00315	75 29		 jne	 SHORT $LN9@Init
  00317	8b f4		 mov	 esi, esp
  00319	68 00 00 00 00	 push	 OFFSET $SG176832
  0031e	6a 42		 push	 66			; 00000042H
  00320	68 00 00 00 00	 push	 OFFSET $SG176833
  00325	68 00 00 00 00	 push	 OFFSET $SG176834
  0032a	6a 07		 push	 7
  0032c	ff 15 00 00 00
	00		 call	 DWORD PTR __imp_?KGLogPrintf@@YAHW4KGLOG_PRIORITY@@QBDZZ
  00332	83 c4 14	 add	 esp, 20			; 00000014H
  00335	3b f4		 cmp	 esi, esp
  00337	e8 00 00 00 00	 call	 __RTC_CheckEsp
  0033c	eb 59		 jmp	 SHORT $Exit0$176826
  0033e	eb 57		 jmp	 SHORT $Exit0$176826
$LN9@Init:
  00340	33 c9		 xor	 ecx, ecx
  00342	75 ca		 jne	 SHORT $LN10@Init

; 67   : 
; 68   :     m_pdwScriptList = pTerrainScene->GetRegionScriptData(nRegionX, nRegionY);

  00344	8b 55 10	 mov	 edx, DWORD PTR _nRegionY$[ebp]
  00347	52		 push	 edx
  00348	8b 45 0c	 mov	 eax, DWORD PTR _nRegionX$[ebp]
  0034b	50		 push	 eax
  0034c	8b 4d f4	 mov	 ecx, DWORD PTR _pTerrainScene$[ebp]
  0034f	e8 00 00 00 00	 call	 ?GetRegionScriptData@KTerrainScene@@QAEPAKHH@Z ; KTerrainScene::GetRegionScriptData
  00354	8b 4d fc	 mov	 ecx, DWORD PTR _this$[ebp]
  00357	89 41 20	 mov	 DWORD PTR [ecx+32], eax
$LN5@Init:

; 69   :     KGLOG_PROCESS_ERROR(m_pdwScriptList);

  0035a	8b 55 fc	 mov	 edx, DWORD PTR _this$[ebp]
  0035d	83 7a 20 00	 cmp	 DWORD PTR [edx+32], 0
  00361	75 29		 jne	 SHORT $LN4@Init
  00363	8b f4		 mov	 esi, esp
  00365	68 00 00 00 00	 push	 OFFSET $SG176840
  0036a	6a 45		 push	 69			; 00000045H
  0036c	68 00 00 00 00	 push	 OFFSET $SG176841
  00371	68 00 00 00 00	 push	 OFFSET $SG176842
  00376	6a 07		 push	 7
  00378	ff 15 00 00 00
	00		 call	 DWORD PTR __imp_?KGLogPrintf@@YAHW4KGLOG_PRIORITY@@QBDZZ
  0037e	83 c4 14	 add	 esp, 20			; 00000014H
  00381	3b f4		 cmp	 esi, esp
  00383	e8 00 00 00 00	 call	 __RTC_CheckEsp
  00388	eb 0d		 jmp	 SHORT $Exit0$176826
  0038a	eb 0b		 jmp	 SHORT $Exit0$176826
$LN4@Init:
  0038c	33 c0		 xor	 eax, eax
  0038e	75 ca		 jne	 SHORT $LN5@Init

; 70   : #endif
; 71   : 
; 72   :     bResult = true;

  00390	c7 45 f8 01 00
	00 00		 mov	 DWORD PTR _bResult$[ebp], 1
$Exit0$176826:

; 73   : Exit0:
; 74   : 	return bResult;

  00397	8b 45 f8	 mov	 eax, DWORD PTR _bResult$[ebp]

; 75   : }

  0039a	5e		 pop	 esi
  0039b	83 c4 0c	 add	 esp, 12			; 0000000cH
  0039e	3b ec		 cmp	 ebp, esp
  003a0	e8 00 00 00 00	 call	 __RTC_CheckEsp
  003a5	8b e5		 mov	 esp, ebp
  003a7	5d		 pop	 ebp
  003a8	c2 0c 00	 ret	 12			; 0000000cH
?Init@KRegion@@QAEHPAVKScene@@HH@Z ENDP			; KRegion::Init
_TEXT	ENDS
PUBLIC	?GetNext@KNode@@QAEPAV1@XZ			; KNode::GetNext
; Function compile flags: /Odtp /RTCsu
; File d:\code\game\base\include\engine\klist.h
;	COMDAT ?IsEmpty@KList@@QAEHXZ
_TEXT	SEGMENT
_this$ = -4						; size = 4
?IsEmpty@KList@@QAEHXZ PROC				; KList::IsEmpty, COMDAT
; _this$ = ecx

; 47   : {

  00000	55		 push	 ebp
  00001	8b ec		 mov	 ebp, esp
  00003	51		 push	 ecx
  00004	c7 45 fc cc cc
	cc cc		 mov	 DWORD PTR [ebp-4], -858993460 ; ccccccccH
  0000b	89 4d fc	 mov	 DWORD PTR _this$[ebp], ecx

; 48   : 	return (m_ListHead.GetNext() == NULL);

  0000e	8b 4d fc	 mov	 ecx, DWORD PTR _this$[ebp]
  00011	e8 00 00 00 00	 call	 ?GetNext@KNode@@QAEPAV1@XZ ; KNode::GetNext
  00016	f7 d8		 neg	 eax
  00018	1b c0		 sbb	 eax, eax
  0001a	83 c0 01	 add	 eax, 1

; 49   : }

  0001d	83 c4 04	 add	 esp, 4
  00020	3b ec		 cmp	 ebp, esp
  00022	e8 00 00 00 00	 call	 __RTC_CheckEsp
  00027	8b e5		 mov	 esp, ebp
  00029	5d		 pop	 ebp
  0002a	c3		 ret	 0
?IsEmpty@KList@@QAEHXZ ENDP				; KList::IsEmpty
; Function compile flags: /Odtp /RTCsu
; File d:\code\game\base\include\engine\knode.h
_TEXT	ENDS
;	COMDAT ?GetNext@KNode@@QAEPAV1@XZ
_TEXT	SEGMENT
_this$ = -4						; size = 4
?GetNext@KNode@@QAEPAV1@XZ PROC				; KNode::GetNext, COMDAT
; _this$ = ecx

; 50   : {

  00000	55		 push	 ebp
  00001	8b ec		 mov	 ebp, esp
  00003	51		 push	 ecx
  00004	c7 45 fc cc cc
	cc cc		 mov	 DWORD PTR [ebp-4], -858993460 ; ccccccccH
  0000b	89 4d fc	 mov	 DWORD PTR _this$[ebp], ecx

; 51   : 	if (m_pNext && m_pNext->m_pNext)

  0000e	8b 45 fc	 mov	 eax, DWORD PTR _this$[ebp]
  00011	83 78 04 00	 cmp	 DWORD PTR [eax+4], 0
  00015	74 14		 je	 SHORT $LN1@GetNext
  00017	8b 4d fc	 mov	 ecx, DWORD PTR _this$[ebp]
  0001a	8b 51 04	 mov	 edx, DWORD PTR [ecx+4]
  0001d	83 7a 04 00	 cmp	 DWORD PTR [edx+4], 0
  00021	74 08		 je	 SHORT $LN1@GetNext

; 52   : 		return m_pNext;

  00023	8b 45 fc	 mov	 eax, DWORD PTR _this$[ebp]
  00026	8b 40 04	 mov	 eax, DWORD PTR [eax+4]
  00029	eb 02		 jmp	 SHORT $LN2@GetNext
$LN1@GetNext:

; 53   : 	return NULL;

  0002b	33 c0		 xor	 eax, eax
$LN2@GetNext:

; 54   : }

  0002d	8b e5		 mov	 esp, ebp
  0002f	5d		 pop	 ebp
  00030	c3		 ret	 0
?GetNext@KNode@@QAEPAV1@XZ ENDP				; KNode::GetNext
_TEXT	ENDS
PUBLIC	?UnInit@KRegion@@QAEXXZ				; KRegion::UnInit
; Function compile flags: /Odtp /RTCsu
; File d:\code\game\sword3\source\common\so3world\src\kregion.cpp
_TEXT	SEGMENT
_this$ = -4						; size = 4
?UnInit@KRegion@@QAEXXZ PROC				; KRegion::UnInit
; _this$ = ecx

; 78   : {

  003b0	55		 push	 ebp
  003b1	8b ec		 mov	 ebp, esp
  003b3	51		 push	 ecx
  003b4	c7 45 fc cc cc
	cc cc		 mov	 DWORD PTR [ebp-4], -858993460 ; ccccccccH
  003bb	89 4d fc	 mov	 DWORD PTR _this$[ebp], ecx

; 79   :     m_pScene        = NULL;

  003be	8b 45 fc	 mov	 eax, DWORD PTR _this$[ebp]
  003c1	c7 40 18 00 00
	00 00		 mov	 DWORD PTR [eax+24], 0

; 80   :     m_pCells        = NULL;

  003c8	8b 4d fc	 mov	 ecx, DWORD PTR _this$[ebp]
  003cb	c7 41 1c 00 00
	00 00		 mov	 DWORD PTR [ecx+28], 0

; 81   :     m_pdwScriptList = NULL;

  003d2	8b 55 fc	 mov	 edx, DWORD PTR _this$[ebp]
  003d5	c7 42 20 00 00
	00 00		 mov	 DWORD PTR [edx+32], 0

; 82   : }

  003dc	8b e5		 mov	 esp, ebp
  003de	5d		 pop	 ebp
  003df	c3		 ret	 0
?UnInit@KRegion@@QAEXXZ ENDP				; KRegion::UnInit
_TEXT	ENDS
PUBLIC	?GetHead@KList@@QAEPAVKNode@@XZ			; KList::GetHead
PUBLIC	?Activate@KRegion@@QAEXXZ			; KRegion::Activate
EXTRN	?Activate@KPlayer@@QAEHXZ:PROC			; KPlayer::Activate
EXTRN	?Activate@KDoodad@@QAEHXZ:PROC			; KDoodad::Activate
EXTRN	?Activate@KNpc@@QAEHXZ:PROC			; KNpc::Activate
; Function compile flags: /Odtp /RTCsu
_TEXT	SEGMENT
_pPlayer$176882 = -40					; size = 4
_pNext$176880 = -36					; size = 4
_pDoodad$176871 = -32					; size = 4
_pNext$176869 = -28					; size = 4
_pNpc$176860 = -24					; size = 4
_pNext$176858 = -20					; size = 4
_nInFightPlayerCount$ = -16				; size = 4
_pSceneObjNode$ = -12					; size = 4
_bRetCode$ = -8						; size = 4
_this$ = -4						; size = 4
?Activate@KRegion@@QAEXXZ PROC				; KRegion::Activate
; _this$ = ecx

; 85   : {

  003e0	55		 push	 ebp
  003e1	8b ec		 mov	 ebp, esp
  003e3	83 ec 28	 sub	 esp, 40			; 00000028H
  003e6	56		 push	 esi
  003e7	57		 push	 edi
  003e8	51		 push	 ecx
  003e9	8d 7d d8	 lea	 edi, DWORD PTR [ebp-40]
  003ec	b9 0a 00 00 00	 mov	 ecx, 10			; 0000000aH
  003f1	b8 cc cc cc cc	 mov	 eax, -858993460		; ccccccccH
  003f6	f3 ab		 rep stosd
  003f8	59		 pop	 ecx
  003f9	89 4d fc	 mov	 DWORD PTR _this$[ebp], ecx

; 86   : 	BOOL            bRetCode            = false;

  003fc	c7 45 f8 00 00
	00 00		 mov	 DWORD PTR _bRetCode$[ebp], 0

; 87   : 	KSceneObjNode*  pSceneObjNode       = NULL;

  00403	c7 45 f4 00 00
	00 00		 mov	 DWORD PTR _pSceneObjNode$[ebp], 0

; 88   :     int             nInFightPlayerCount = 0;

  0040a	c7 45 f0 00 00
	00 00		 mov	 DWORD PTR _nInFightPlayerCount$[ebp], 0

; 89   : 
; 90   : 	pSceneObjNode = (KSceneObjNode*)m_NpcList.GetHead();

  00411	8b 4d fc	 mov	 ecx, DWORD PTR _this$[ebp]
  00414	83 c1 30	 add	 ecx, 48			; 00000030H
  00417	e8 00 00 00 00	 call	 ?GetHead@KList@@QAEPAVKNode@@XZ ; KList::GetHead
  0041c	89 45 f4	 mov	 DWORD PTR _pSceneObjNode$[ebp], eax
$LN7@Activate:

; 91   : 	while (pSceneObjNode != NULL)

  0041f	83 7d f4 00	 cmp	 DWORD PTR _pSceneObjNode$[ebp], 0
  00423	74 48		 je	 SHORT $LN6@Activate

; 92   : 	{
; 93   : 		KSceneObjNode*  pNext = (KSceneObjNode*)pSceneObjNode->GetNext();		

  00425	8b 4d f4	 mov	 ecx, DWORD PTR _pSceneObjNode$[ebp]
  00428	e8 00 00 00 00	 call	 ?GetNext@KNode@@QAEPAV1@XZ ; KNode::GetNext
  0042d	89 45 ec	 mov	 DWORD PTR _pNext$176858[ebp], eax

; 94   : 		KNpc*           pNpc  = (KNpc*)(pSceneObjNode->m_pSceneObject);

  00430	8b 45 f4	 mov	 eax, DWORD PTR _pSceneObjNode$[ebp]
  00433	8b 48 0c	 mov	 ecx, DWORD PTR [eax+12]
  00436	89 4d e8	 mov	 DWORD PTR _pNpc$176860[ebp], ecx

; 95   : 
; 96   : 		assert(pNpc);

  00439	83 7d e8 00	 cmp	 DWORD PTR _pNpc$176860[ebp], 0
  0043d	75 1e		 jne	 SHORT $LN10@Activate
  0043f	8b f4		 mov	 esi, esp
  00441	6a 60		 push	 96			; 00000060H
  00443	68 00 00 00 00	 push	 OFFSET $SG176863
  00448	68 00 00 00 00	 push	 OFFSET $SG176864
  0044d	ff 15 00 00 00
	00		 call	 DWORD PTR __imp___wassert
  00453	83 c4 0c	 add	 esp, 12			; 0000000cH
  00456	3b f4		 cmp	 esi, esp
  00458	e8 00 00 00 00	 call	 __RTC_CheckEsp
$LN10@Activate:

; 97   : 
; 98   : 		pNpc->Activate();

  0045d	8b 4d e8	 mov	 ecx, DWORD PTR _pNpc$176860[ebp]
  00460	e8 00 00 00 00	 call	 ?Activate@KNpc@@QAEHXZ	; KNpc::Activate

; 99   : 
; 100  : 		pSceneObjNode = pNext;

  00465	8b 45 ec	 mov	 eax, DWORD PTR _pNext$176858[ebp]
  00468	89 45 f4	 mov	 DWORD PTR _pSceneObjNode$[ebp], eax

; 101  : 	}

  0046b	eb b2		 jmp	 SHORT $LN7@Activate
$LN6@Activate:

; 102  : 
; 103  : 	pSceneObjNode = (KSceneObjNode*)m_DoodadList.GetHead();

  0046d	8b 4d fc	 mov	 ecx, DWORD PTR _this$[ebp]
  00470	83 c1 48	 add	 ecx, 72			; 00000048H
  00473	e8 00 00 00 00	 call	 ?GetHead@KList@@QAEPAVKNode@@XZ ; KList::GetHead
  00478	89 45 f4	 mov	 DWORD PTR _pSceneObjNode$[ebp], eax
$LN5@Activate:

; 104  : 	while (pSceneObjNode != NULL)

  0047b	83 7d f4 00	 cmp	 DWORD PTR _pSceneObjNode$[ebp], 0
  0047f	74 48		 je	 SHORT $LN4@Activate

; 105  : 	{
; 106  : 		KSceneObjNode*  pNext = (KSceneObjNode*)pSceneObjNode->GetNext();

  00481	8b 4d f4	 mov	 ecx, DWORD PTR _pSceneObjNode$[ebp]
  00484	e8 00 00 00 00	 call	 ?GetNext@KNode@@QAEPAV1@XZ ; KNode::GetNext
  00489	89 45 e4	 mov	 DWORD PTR _pNext$176869[ebp], eax

; 107  : 		KDoodad*        pDoodad = (KDoodad*)(pSceneObjNode->m_pSceneObject);

  0048c	8b 4d f4	 mov	 ecx, DWORD PTR _pSceneObjNode$[ebp]
  0048f	8b 51 0c	 mov	 edx, DWORD PTR [ecx+12]
  00492	89 55 e0	 mov	 DWORD PTR _pDoodad$176871[ebp], edx

; 108  : 
; 109  : 		assert(pDoodad);		

  00495	83 7d e0 00	 cmp	 DWORD PTR _pDoodad$176871[ebp], 0
  00499	75 1e		 jne	 SHORT $LN11@Activate
  0049b	8b f4		 mov	 esi, esp
  0049d	6a 6d		 push	 109			; 0000006dH
  0049f	68 00 00 00 00	 push	 OFFSET $SG176874
  004a4	68 00 00 00 00	 push	 OFFSET $SG176875
  004a9	ff 15 00 00 00
	00		 call	 DWORD PTR __imp___wassert
  004af	83 c4 0c	 add	 esp, 12			; 0000000cH
  004b2	3b f4		 cmp	 esi, esp
  004b4	e8 00 00 00 00	 call	 __RTC_CheckEsp
$LN11@Activate:

; 110  : 
; 111  : 		pDoodad->Activate();

  004b9	8b 4d e0	 mov	 ecx, DWORD PTR _pDoodad$176871[ebp]
  004bc	e8 00 00 00 00	 call	 ?Activate@KDoodad@@QAEHXZ ; KDoodad::Activate

; 112  : 
; 113  : 		pSceneObjNode = pNext;

  004c1	8b 4d e4	 mov	 ecx, DWORD PTR _pNext$176869[ebp]
  004c4	89 4d f4	 mov	 DWORD PTR _pSceneObjNode$[ebp], ecx

; 114  : 	}

  004c7	eb b2		 jmp	 SHORT $LN5@Activate
$LN4@Activate:

; 115  : 
; 116  : 
; 117  : 	pSceneObjNode = (KSceneObjNode*)m_PlayerList.GetHead();

  004c9	8b 4d fc	 mov	 ecx, DWORD PTR _this$[ebp]
  004cc	83 c1 60	 add	 ecx, 96			; 00000060H
  004cf	e8 00 00 00 00	 call	 ?GetHead@KList@@QAEPAVKNode@@XZ ; KList::GetHead
  004d4	89 45 f4	 mov	 DWORD PTR _pSceneObjNode$[ebp], eax
$LN3@Activate:

; 118  : 	while (pSceneObjNode != NULL)

  004d7	83 7d f4 00	 cmp	 DWORD PTR _pSceneObjNode$[ebp], 0
  004db	74 69		 je	 SHORT $LN2@Activate

; 119  : 	{
; 120  : 		KSceneObjNode*  pNext   = (KSceneObjNode*)pSceneObjNode->GetNext();

  004dd	8b 4d f4	 mov	 ecx, DWORD PTR _pSceneObjNode$[ebp]
  004e0	e8 00 00 00 00	 call	 ?GetNext@KNode@@QAEPAV1@XZ ; KNode::GetNext
  004e5	89 45 dc	 mov	 DWORD PTR _pNext$176880[ebp], eax

; 121  : 		KPlayer*        pPlayer = (KPlayer*)(pSceneObjNode->m_pSceneObject);

  004e8	8b 55 f4	 mov	 edx, DWORD PTR _pSceneObjNode$[ebp]
  004eb	8b 42 0c	 mov	 eax, DWORD PTR [edx+12]
  004ee	89 45 d8	 mov	 DWORD PTR _pPlayer$176882[ebp], eax

; 122  : 
; 123  : 		assert(pPlayer);		

  004f1	83 7d d8 00	 cmp	 DWORD PTR _pPlayer$176882[ebp], 0
  004f5	75 1e		 jne	 SHORT $LN12@Activate
  004f7	8b f4		 mov	 esi, esp
  004f9	6a 7b		 push	 123			; 0000007bH
  004fb	68 00 00 00 00	 push	 OFFSET $SG176885
  00500	68 00 00 00 00	 push	 OFFSET $SG176886
  00505	ff 15 00 00 00
	00		 call	 DWORD PTR __imp___wassert
  0050b	83 c4 0c	 add	 esp, 12			; 0000000cH
  0050e	3b f4		 cmp	 esi, esp
  00510	e8 00 00 00 00	 call	 __RTC_CheckEsp
$LN12@Activate:

; 124  : 
; 125  : 		pPlayer->Activate();

  00515	8b 4d d8	 mov	 ecx, DWORD PTR _pPlayer$176882[ebp]
  00518	e8 00 00 00 00	 call	 ?Activate@KPlayer@@QAEHXZ ; KPlayer::Activate

; 126  : 
; 127  :         if (pPlayer->m_bFightState && pPlayer->m_eMoveState != cmsOnDeath)

  0051d	8b 55 d8	 mov	 edx, DWORD PTR _pPlayer$176882[ebp]
  00520	83 ba c8 01 00
	00 00		 cmp	 DWORD PTR [edx+456], 0
  00527	74 15		 je	 SHORT $LN1@Activate
  00529	8b 45 d8	 mov	 eax, DWORD PTR _pPlayer$176882[ebp]
  0052c	83 b8 a4 00 00
	00 10		 cmp	 DWORD PTR [eax+164], 16	; 00000010H
  00533	74 09		 je	 SHORT $LN1@Activate

; 128  :             nInFightPlayerCount++;

  00535	8b 4d f0	 mov	 ecx, DWORD PTR _nInFightPlayerCount$[ebp]
  00538	83 c1 01	 add	 ecx, 1
  0053b	89 4d f0	 mov	 DWORD PTR _nInFightPlayerCount$[ebp], ecx
$LN1@Activate:

; 129  : 
; 130  : 		pSceneObjNode = pNext;

  0053e	8b 55 dc	 mov	 edx, DWORD PTR _pNext$176880[ebp]
  00541	89 55 f4	 mov	 DWORD PTR _pSceneObjNode$[ebp], edx

; 131  : 	}

  00544	eb 91		 jmp	 SHORT $LN3@Activate
$LN2@Activate:

; 132  : 
; 133  :     m_nInFightPlayerCount = nInFightPlayerCount;

  00546	8b 45 fc	 mov	 eax, DWORD PTR _this$[ebp]
  00549	8b 4d f0	 mov	 ecx, DWORD PTR _nInFightPlayerCount$[ebp]
  0054c	89 48 2c	 mov	 DWORD PTR [eax+44], ecx

; 134  : }

  0054f	5f		 pop	 edi
  00550	5e		 pop	 esi
  00551	83 c4 28	 add	 esp, 40			; 00000028H
  00554	3b ec		 cmp	 ebp, esp
  00556	e8 00 00 00 00	 call	 __RTC_CheckEsp
  0055b	8b e5		 mov	 esp, ebp
  0055d	5d		 pop	 ebp
  0055e	c3		 ret	 0
?Activate@KRegion@@QAEXXZ ENDP				; KRegion::Activate
; Function compile flags: /Odtp /RTCsu
; File d:\code\game\base\include\engine\klist.h
_TEXT	ENDS
;	COMDAT ?GetHead@KList@@QAEPAVKNode@@XZ
_TEXT	SEGMENT
_this$ = -4						; size = 4
?GetHead@KList@@QAEPAVKNode@@XZ PROC			; KList::GetHead, COMDAT
; _this$ = ecx

; 56   : {

  00000	55		 push	 ebp
  00001	8b ec		 mov	 ebp, esp
  00003	51		 push	 ecx
  00004	c7 45 fc cc cc
	cc cc		 mov	 DWORD PTR [ebp-4], -858993460 ; ccccccccH
  0000b	89 4d fc	 mov	 DWORD PTR _this$[ebp], ecx

; 57   : 	return m_ListHead.GetNext();

  0000e	8b 4d fc	 mov	 ecx, DWORD PTR _this$[ebp]
  00011	e8 00 00 00 00	 call	 ?GetNext@KNode@@QAEPAV1@XZ ; KNode::GetNext

; 58   : }

  00016	83 c4 04	 add	 esp, 4
  00019	3b ec		 cmp	 ebp, esp
  0001b	e8 00 00 00 00	 call	 __RTC_CheckEsp
  00020	8b e5		 mov	 esp, ebp
  00022	5d		 pop	 ebp
  00023	c3		 ret	 0
?GetHead@KList@@QAEPAVKNode@@XZ ENDP			; KList::GetHead
_TEXT	ENDS
PUBLIC	?LoadTerrainBufferV7@KRegion@@QAEHPBEI@Z	; KRegion::LoadTerrainBufferV7
PUBLIC	__$ArrayPad$
PUBLIC	?LoadTerrain@KRegion@@QAEHXZ			; KRegion::LoadTerrain
EXTRN	?KG_MemoryCreateBuffer@@YAPAUIKG_Buffer@@I@Z:PROC ; KG_MemoryCreateBuffer
EXTRN	__imp__g_OpenFile:PROC
EXTRN	__imp___snprintf:PROC
EXTRN	@_RTC_CheckStackVars@8:PROC
; Function compile flags: /Odtp /RTCsu
; File d:\code\game\sword3\source\common\so3world\src\kregion.cpp
_TEXT	SEGMENT
_szFileName$ = -312					; size = 260
_pFileHeader$ = -48					; size = 4
_pbyOffset$ = -44					; size = 4
_uLeftBytes$ = -40					; size = 4
_uReadBytes$ = -36					; size = 4
_uFileSize$ = -32					; size = 4
_pbyBuffer$ = -28					; size = 4
_piBuffer$ = -24					; size = 4
_piFile$ = -20						; size = 4
_bRetCode$ = -16					; size = 4
_bResult$ = -12						; size = 4
_this$ = -8						; size = 4
__$ArrayPad$ = -4					; size = 4
?LoadTerrain@KRegion@@QAEHXZ PROC			; KRegion::LoadTerrain
; _this$ = ecx

; 137  : {

  00560	55		 push	 ebp
  00561	8b ec		 mov	 ebp, esp
  00563	81 ec 3c 01 00
	00		 sub	 esp, 316		; 0000013cH
  00569	56		 push	 esi
  0056a	57		 push	 edi
  0056b	51		 push	 ecx
  0056c	8d bd c4 fe ff
	ff		 lea	 edi, DWORD PTR [ebp-316]
  00572	b9 4f 00 00 00	 mov	 ecx, 79			; 0000004fH
  00577	b8 cc cc cc cc	 mov	 eax, -858993460		; ccccccccH
  0057c	f3 ab		 rep stosd
  0057e	59		 pop	 ecx
  0057f	a1 00 00 00 00	 mov	 eax, DWORD PTR ___security_cookie
  00584	33 c5		 xor	 eax, ebp
  00586	89 45 fc	 mov	 DWORD PTR __$ArrayPad$[ebp], eax
  00589	89 4d f8	 mov	 DWORD PTR _this$[ebp], ecx

; 138  :     BOOL            bResult             = false;

  0058c	c7 45 f4 00 00
	00 00		 mov	 DWORD PTR _bResult$[ebp], 0

; 139  :     BOOL            bRetCode            = false;

  00593	c7 45 f0 00 00
	00 00		 mov	 DWORD PTR _bRetCode$[ebp], 0

; 140  :     IFile*          piFile              = NULL;

  0059a	c7 45 ec 00 00
	00 00		 mov	 DWORD PTR _piFile$[ebp], 0

; 141  :     IKG_Buffer*     piBuffer            = NULL;

  005a1	c7 45 e8 00 00
	00 00		 mov	 DWORD PTR _piBuffer$[ebp], 0

; 142  :     BYTE*           pbyBuffer           = NULL;

  005a8	c7 45 e4 00 00
	00 00		 mov	 DWORD PTR _pbyBuffer$[ebp], 0

; 143  :     size_t          uFileSize           = 0;

  005af	c7 45 e0 00 00
	00 00		 mov	 DWORD PTR _uFileSize$[ebp], 0

; 144  :     size_t          uReadBytes          = 0;

  005b6	c7 45 dc 00 00
	00 00		 mov	 DWORD PTR _uReadBytes$[ebp], 0

; 145  :     size_t          uLeftBytes          = 0;

  005bd	c7 45 d8 00 00
	00 00		 mov	 DWORD PTR _uLeftBytes$[ebp], 0

; 146  :     BYTE*           pbyOffset           = NULL;

  005c4	c7 45 d4 00 00
	00 00		 mov	 DWORD PTR _pbyOffset$[ebp], 0

; 147  :     KRegionHeader*  pFileHeader         = NULL;

  005cb	c7 45 d0 00 00
	00 00		 mov	 DWORD PTR _pFileHeader$[ebp], 0

; 148  :     char            szFileName[MAX_PATH];
; 149  : 
; 150  :     assert(m_pScene);

  005d2	8b 45 f8	 mov	 eax, DWORD PTR _this$[ebp]
  005d5	83 78 18 00	 cmp	 DWORD PTR [eax+24], 0
  005d9	75 21		 jne	 SHORT $LN62@LoadTerrai
  005db	8b f4		 mov	 esi, esp
  005dd	68 96 00 00 00	 push	 150			; 00000096H
  005e2	68 00 00 00 00	 push	 OFFSET $SG176903
  005e7	68 00 00 00 00	 push	 OFFSET $SG176904
  005ec	ff 15 00 00 00
	00		 call	 DWORD PTR __imp___wassert
  005f2	83 c4 0c	 add	 esp, 12			; 0000000cH
  005f5	3b f4		 cmp	 esi, esp
  005f7	e8 00 00 00 00	 call	 __RTC_CheckEsp
$LN62@LoadTerrai:

; 151  : 
; 152  :     snprintf(
; 153  :         szFileName, sizeof(szFileName), "%s/%s/v_%03d/%03d_Region.%s", 
; 154  :         MAP_DIR, m_pScene->m_szName, m_nRegionY, m_nRegionX, MAP_FILE_EXT
; 155  :     );

  005fc	8b f4		 mov	 esi, esp
  005fe	68 00 00 00 00	 push	 OFFSET $SG176905
  00603	8b 55 f8	 mov	 edx, DWORD PTR _this$[ebp]
  00606	8b 42 10	 mov	 eax, DWORD PTR [edx+16]
  00609	50		 push	 eax
  0060a	8b 4d f8	 mov	 ecx, DWORD PTR _this$[ebp]
  0060d	8b 51 14	 mov	 edx, DWORD PTR [ecx+20]
  00610	52		 push	 edx
  00611	8b 45 f8	 mov	 eax, DWORD PTR _this$[ebp]
  00614	8b 48 18	 mov	 ecx, DWORD PTR [eax+24]
  00617	83 c1 14	 add	 ecx, 20			; 00000014H
  0061a	51		 push	 ecx
  0061b	68 00 00 00 00	 push	 OFFSET $SG176906
  00620	68 00 00 00 00	 push	 OFFSET $SG176907
  00625	68 04 01 00 00	 push	 260			; 00000104H
  0062a	8d 95 c8 fe ff
	ff		 lea	 edx, DWORD PTR _szFileName$[ebp]
  00630	52		 push	 edx
  00631	ff 15 00 00 00
	00		 call	 DWORD PTR __imp___snprintf
  00637	83 c4 20	 add	 esp, 32			; 00000020H
  0063a	3b f4		 cmp	 esi, esp
  0063c	e8 00 00 00 00	 call	 __RTC_CheckEsp

; 156  :     szFileName[sizeof(szFileName) - 1] = '\0';

  00641	c6 45 cb 00	 mov	 BYTE PTR _szFileName$[ebp+259], 0

; 157  : 
; 158  :     piFile = g_OpenFile(szFileName);

  00645	8b f4		 mov	 esi, esp
  00647	6a 00		 push	 0
  00649	6a 00		 push	 0
  0064b	8d 85 c8 fe ff
	ff		 lea	 eax, DWORD PTR _szFileName$[ebp]
  00651	50		 push	 eax
  00652	ff 15 00 00 00
	00		 call	 DWORD PTR __imp__g_OpenFile
  00658	83 c4 0c	 add	 esp, 12			; 0000000cH
  0065b	3b f4		 cmp	 esi, esp
  0065d	e8 00 00 00 00	 call	 __RTC_CheckEsp
  00662	89 45 ec	 mov	 DWORD PTR _piFile$[ebp], eax
$LN59@LoadTerrai:

; 159  :     KGLOG_PROCESS_ERROR(piFile);

  00665	83 7d ec 00	 cmp	 DWORD PTR _piFile$[ebp], 0
  00669	75 32		 jne	 SHORT $LN58@LoadTerrai
  0066b	8b f4		 mov	 esi, esp
  0066d	68 00 00 00 00	 push	 OFFSET $SG176912
  00672	68 9f 00 00 00	 push	 159			; 0000009fH
  00677	68 00 00 00 00	 push	 OFFSET $SG176913
  0067c	68 00 00 00 00	 push	 OFFSET $SG176914
  00681	6a 07		 push	 7
  00683	ff 15 00 00 00
	00		 call	 DWORD PTR __imp_?KGLogPrintf@@YAHW4KGLOG_PRIORITY@@QBDZZ
  00689	83 c4 14	 add	 esp, 20			; 00000014H
  0068c	3b f4		 cmp	 esi, esp
  0068e	e8 00 00 00 00	 call	 __RTC_CheckEsp
  00693	e9 ed 02 00 00	 jmp	 $Exit0$176915
  00698	e9 e8 02 00 00	 jmp	 $Exit0$176915
$LN58@LoadTerrai:
  0069d	33 c9		 xor	 ecx, ecx
  0069f	75 c4		 jne	 SHORT $LN59@LoadTerrai

; 160  : 
; 161  :     uFileSize = piFile->Size();

  006a1	8b 55 ec	 mov	 edx, DWORD PTR _piFile$[ebp]
  006a4	8b 02		 mov	 eax, DWORD PTR [edx]
  006a6	8b f4		 mov	 esi, esp
  006a8	8b 4d ec	 mov	 ecx, DWORD PTR _piFile$[ebp]
  006ab	8b 50 14	 mov	 edx, DWORD PTR [eax+20]
  006ae	ff d2		 call	 edx
  006b0	3b f4		 cmp	 esi, esp
  006b2	e8 00 00 00 00	 call	 __RTC_CheckEsp
  006b7	89 45 e0	 mov	 DWORD PTR _uFileSize$[ebp], eax
$LN54@LoadTerrai:

; 162  :     KGLOG_PROCESS_ERROR(uFileSize > 0);

  006ba	83 7d e0 00	 cmp	 DWORD PTR _uFileSize$[ebp], 0
  006be	77 32		 ja	 SHORT $LN53@LoadTerrai
  006c0	8b f4		 mov	 esi, esp
  006c2	68 00 00 00 00	 push	 OFFSET $SG176921
  006c7	68 a2 00 00 00	 push	 162			; 000000a2H
  006cc	68 00 00 00 00	 push	 OFFSET $SG176922
  006d1	68 00 00 00 00	 push	 OFFSET $SG176923
  006d6	6a 07		 push	 7
  006d8	ff 15 00 00 00
	00		 call	 DWORD PTR __imp_?KGLogPrintf@@YAHW4KGLOG_PRIORITY@@QBDZZ
  006de	83 c4 14	 add	 esp, 20			; 00000014H
  006e1	3b f4		 cmp	 esi, esp
  006e3	e8 00 00 00 00	 call	 __RTC_CheckEsp
  006e8	e9 98 02 00 00	 jmp	 $Exit0$176915
  006ed	e9 93 02 00 00	 jmp	 $Exit0$176915
$LN53@LoadTerrai:
  006f2	33 c0		 xor	 eax, eax
  006f4	75 c4		 jne	 SHORT $LN54@LoadTerrai

; 163  : 
; 164  :     piBuffer = KG_MemoryCreateBuffer((unsigned)uFileSize);

  006f6	8b 4d e0	 mov	 ecx, DWORD PTR _uFileSize$[ebp]
  006f9	51		 push	 ecx
  006fa	e8 00 00 00 00	 call	 ?KG_MemoryCreateBuffer@@YAPAUIKG_Buffer@@I@Z ; KG_MemoryCreateBuffer
  006ff	83 c4 04	 add	 esp, 4
  00702	89 45 e8	 mov	 DWORD PTR _piBuffer$[ebp], eax
$LN49@LoadTerrai:

; 165  :     KGLOG_PROCESS_ERROR(piBuffer);

  00705	83 7d e8 00	 cmp	 DWORD PTR _piBuffer$[ebp], 0
  00709	75 32		 jne	 SHORT $LN48@LoadTerrai
  0070b	8b f4		 mov	 esi, esp
  0070d	68 00 00 00 00	 push	 OFFSET $SG176930
  00712	68 a5 00 00 00	 push	 165			; 000000a5H
  00717	68 00 00 00 00	 push	 OFFSET $SG176931
  0071c	68 00 00 00 00	 push	 OFFSET $SG176932
  00721	6a 07		 push	 7
  00723	ff 15 00 00 00
	00		 call	 DWORD PTR __imp_?KGLogPrintf@@YAHW4KGLOG_PRIORITY@@QBDZZ
  00729	83 c4 14	 add	 esp, 20			; 00000014H
  0072c	3b f4		 cmp	 esi, esp
  0072e	e8 00 00 00 00	 call	 __RTC_CheckEsp
  00733	e9 4d 02 00 00	 jmp	 $Exit0$176915
  00738	e9 48 02 00 00	 jmp	 $Exit0$176915
$LN48@LoadTerrai:
  0073d	33 d2		 xor	 edx, edx
  0073f	75 c4		 jne	 SHORT $LN49@LoadTerrai

; 166  : 
; 167  :     pbyBuffer = (BYTE*)piBuffer->GetData();

  00741	8b 45 e8	 mov	 eax, DWORD PTR _piBuffer$[ebp]
  00744	8b 10		 mov	 edx, DWORD PTR [eax]
  00746	8b f4		 mov	 esi, esp
  00748	8b 4d e8	 mov	 ecx, DWORD PTR _piBuffer$[ebp]
  0074b	8b 42 0c	 mov	 eax, DWORD PTR [edx+12]
  0074e	ff d0		 call	 eax
  00750	3b f4		 cmp	 esi, esp
  00752	e8 00 00 00 00	 call	 __RTC_CheckEsp
  00757	89 45 e4	 mov	 DWORD PTR _pbyBuffer$[ebp], eax
$LN44@LoadTerrai:

; 168  :     KGLOG_PROCESS_ERROR(pbyBuffer);

  0075a	83 7d e4 00	 cmp	 DWORD PTR _pbyBuffer$[ebp], 0
  0075e	75 32		 jne	 SHORT $LN43@LoadTerrai
  00760	8b f4		 mov	 esi, esp
  00762	68 00 00 00 00	 push	 OFFSET $SG176939
  00767	68 a8 00 00 00	 push	 168			; 000000a8H
  0076c	68 00 00 00 00	 push	 OFFSET $SG176940
  00771	68 00 00 00 00	 push	 OFFSET $SG176941
  00776	6a 07		 push	 7
  00778	ff 15 00 00 00
	00		 call	 DWORD PTR __imp_?KGLogPrintf@@YAHW4KGLOG_PRIORITY@@QBDZZ
  0077e	83 c4 14	 add	 esp, 20			; 00000014H
  00781	3b f4		 cmp	 esi, esp
  00783	e8 00 00 00 00	 call	 __RTC_CheckEsp
  00788	e9 f8 01 00 00	 jmp	 $Exit0$176915
  0078d	e9 f3 01 00 00	 jmp	 $Exit0$176915
$LN43@LoadTerrai:
  00792	33 c9		 xor	 ecx, ecx
  00794	75 c4		 jne	 SHORT $LN44@LoadTerrai

; 169  : 
; 170  : 	uReadBytes = piFile->Read(pbyBuffer, (unsigned long)uFileSize);

  00796	8b f4		 mov	 esi, esp
  00798	8b 55 e0	 mov	 edx, DWORD PTR _uFileSize$[ebp]
  0079b	52		 push	 edx
  0079c	8b 45 e4	 mov	 eax, DWORD PTR _pbyBuffer$[ebp]
  0079f	50		 push	 eax
  007a0	8b 4d ec	 mov	 ecx, DWORD PTR _piFile$[ebp]
  007a3	8b 11		 mov	 edx, DWORD PTR [ecx]
  007a5	8b 4d ec	 mov	 ecx, DWORD PTR _piFile$[ebp]
  007a8	8b 02		 mov	 eax, DWORD PTR [edx]
  007aa	ff d0		 call	 eax
  007ac	3b f4		 cmp	 esi, esp
  007ae	e8 00 00 00 00	 call	 __RTC_CheckEsp
  007b3	89 45 dc	 mov	 DWORD PTR _uReadBytes$[ebp], eax
$LN39@LoadTerrai:

; 171  : 	KGLOG_PROCESS_ERROR(uReadBytes == uFileSize);

  007b6	8b 4d dc	 mov	 ecx, DWORD PTR _uReadBytes$[ebp]
  007b9	3b 4d e0	 cmp	 ecx, DWORD PTR _uFileSize$[ebp]
  007bc	74 32		 je	 SHORT $LN38@LoadTerrai
  007be	8b f4		 mov	 esi, esp
  007c0	68 00 00 00 00	 push	 OFFSET $SG176948
  007c5	68 ab 00 00 00	 push	 171			; 000000abH
  007ca	68 00 00 00 00	 push	 OFFSET $SG176949
  007cf	68 00 00 00 00	 push	 OFFSET $SG176950
  007d4	6a 07		 push	 7
  007d6	ff 15 00 00 00
	00		 call	 DWORD PTR __imp_?KGLogPrintf@@YAHW4KGLOG_PRIORITY@@QBDZZ
  007dc	83 c4 14	 add	 esp, 20			; 00000014H
  007df	3b f4		 cmp	 esi, esp
  007e1	e8 00 00 00 00	 call	 __RTC_CheckEsp
  007e6	e9 9a 01 00 00	 jmp	 $Exit0$176915
  007eb	e9 95 01 00 00	 jmp	 $Exit0$176915
$LN38@LoadTerrai:
  007f0	33 d2		 xor	 edx, edx
  007f2	75 c2		 jne	 SHORT $LN39@LoadTerrai
$LN34@LoadTerrai:

; 172  : 
; 173  :     KG_COM_RELEASE(piFile);

  007f4	83 7d ec 00	 cmp	 DWORD PTR _piFile$[ebp], 0
  007f8	74 1d		 je	 SHORT $LN33@LoadTerrai
  007fa	8b 45 ec	 mov	 eax, DWORD PTR _piFile$[ebp]
  007fd	8b 10		 mov	 edx, DWORD PTR [eax]
  007ff	8b f4		 mov	 esi, esp
  00801	8b 4d ec	 mov	 ecx, DWORD PTR _piFile$[ebp]
  00804	8b 42 30	 mov	 eax, DWORD PTR [edx+48]
  00807	ff d0		 call	 eax
  00809	3b f4		 cmp	 esi, esp
  0080b	e8 00 00 00 00	 call	 __RTC_CheckEsp
  00810	c7 45 ec 00 00
	00 00		 mov	 DWORD PTR _piFile$[ebp], 0
$LN33@LoadTerrai:
  00817	33 c9		 xor	 ecx, ecx
  00819	75 d9		 jne	 SHORT $LN34@LoadTerrai

; 174  : 
; 175  :     pbyOffset  = pbyBuffer;

  0081b	8b 55 e4	 mov	 edx, DWORD PTR _pbyBuffer$[ebp]
  0081e	89 55 d4	 mov	 DWORD PTR _pbyOffset$[ebp], edx

; 176  :     uLeftBytes = uReadBytes;

  00821	8b 45 dc	 mov	 eax, DWORD PTR _uReadBytes$[ebp]
  00824	89 45 d8	 mov	 DWORD PTR _uLeftBytes$[ebp], eax
$LN30@LoadTerrai:

; 177  : 
; 178  :     KGLOG_PROCESS_ERROR(uLeftBytes >= sizeof(KRegionHeader));

  00827	83 7d d8 10	 cmp	 DWORD PTR _uLeftBytes$[ebp], 16 ; 00000010H
  0082b	73 32		 jae	 SHORT $LN29@LoadTerrai
  0082d	8b f4		 mov	 esi, esp
  0082f	68 00 00 00 00	 push	 OFFSET $SG176961
  00834	68 b2 00 00 00	 push	 178			; 000000b2H
  00839	68 00 00 00 00	 push	 OFFSET $SG176962
  0083e	68 00 00 00 00	 push	 OFFSET $SG176963
  00843	6a 07		 push	 7
  00845	ff 15 00 00 00
	00		 call	 DWORD PTR __imp_?KGLogPrintf@@YAHW4KGLOG_PRIORITY@@QBDZZ
  0084b	83 c4 14	 add	 esp, 20			; 00000014H
  0084e	3b f4		 cmp	 esi, esp
  00850	e8 00 00 00 00	 call	 __RTC_CheckEsp
  00855	e9 2b 01 00 00	 jmp	 $Exit0$176915
  0085a	e9 26 01 00 00	 jmp	 $Exit0$176915
$LN29@LoadTerrai:
  0085f	33 c9		 xor	 ecx, ecx
  00861	75 c4		 jne	 SHORT $LN30@LoadTerrai

; 179  : 	pFileHeader = (KRegionHeader*)pbyOffset;

  00863	8b 55 d4	 mov	 edx, DWORD PTR _pbyOffset$[ebp]
  00866	89 55 d0	 mov	 DWORD PTR _pFileHeader$[ebp], edx

; 180  : 
; 181  : 	pbyOffset  += sizeof(KRegionHeader);

  00869	8b 45 d4	 mov	 eax, DWORD PTR _pbyOffset$[ebp]
  0086c	83 c0 10	 add	 eax, 16			; 00000010H
  0086f	89 45 d4	 mov	 DWORD PTR _pbyOffset$[ebp], eax

; 182  :     uLeftBytes -= sizeof(KRegionHeader);

  00872	8b 4d d8	 mov	 ecx, DWORD PTR _uLeftBytes$[ebp]
  00875	83 e9 10	 sub	 ecx, 16			; 00000010H
  00878	89 4d d8	 mov	 DWORD PTR _uLeftBytes$[ebp], ecx
$LN25@LoadTerrai:

; 183  : 
; 184  : 	KGLOG_PROCESS_ERROR(pFileHeader->nRegionX == m_nRegionX);

  0087b	8b 55 d0	 mov	 edx, DWORD PTR _pFileHeader$[ebp]
  0087e	8b 45 f8	 mov	 eax, DWORD PTR _this$[ebp]
  00881	8b 4a 04	 mov	 ecx, DWORD PTR [edx+4]
  00884	3b 48 10	 cmp	 ecx, DWORD PTR [eax+16]
  00887	74 32		 je	 SHORT $LN24@LoadTerrai
  00889	8b f4		 mov	 esi, esp
  0088b	68 00 00 00 00	 push	 OFFSET $SG176972
  00890	68 b8 00 00 00	 push	 184			; 000000b8H
  00895	68 00 00 00 00	 push	 OFFSET $SG176973
  0089a	68 00 00 00 00	 push	 OFFSET $SG176974
  0089f	6a 07		 push	 7
  008a1	ff 15 00 00 00
	00		 call	 DWORD PTR __imp_?KGLogPrintf@@YAHW4KGLOG_PRIORITY@@QBDZZ
  008a7	83 c4 14	 add	 esp, 20			; 00000014H
  008aa	3b f4		 cmp	 esi, esp
  008ac	e8 00 00 00 00	 call	 __RTC_CheckEsp
  008b1	e9 cf 00 00 00	 jmp	 $Exit0$176915
  008b6	e9 ca 00 00 00	 jmp	 $Exit0$176915
$LN24@LoadTerrai:
  008bb	33 d2		 xor	 edx, edx
  008bd	75 bc		 jne	 SHORT $LN25@LoadTerrai
$LN20@LoadTerrai:

; 185  : 	KGLOG_PROCESS_ERROR(pFileHeader->nRegionY == m_nRegionY);

  008bf	8b 45 d0	 mov	 eax, DWORD PTR _pFileHeader$[ebp]
  008c2	8b 4d f8	 mov	 ecx, DWORD PTR _this$[ebp]
  008c5	8b 50 08	 mov	 edx, DWORD PTR [eax+8]
  008c8	3b 51 14	 cmp	 edx, DWORD PTR [ecx+20]
  008cb	74 32		 je	 SHORT $LN19@LoadTerrai
  008cd	8b f4		 mov	 esi, esp
  008cf	68 00 00 00 00	 push	 OFFSET $SG176980
  008d4	68 b9 00 00 00	 push	 185			; 000000b9H
  008d9	68 00 00 00 00	 push	 OFFSET $SG176981
  008de	68 00 00 00 00	 push	 OFFSET $SG176982
  008e3	6a 07		 push	 7
  008e5	ff 15 00 00 00
	00		 call	 DWORD PTR __imp_?KGLogPrintf@@YAHW4KGLOG_PRIORITY@@QBDZZ
  008eb	83 c4 14	 add	 esp, 20			; 00000014H
  008ee	3b f4		 cmp	 esi, esp
  008f0	e8 00 00 00 00	 call	 __RTC_CheckEsp
  008f5	e9 8b 00 00 00	 jmp	 $Exit0$176915
  008fa	e9 86 00 00 00	 jmp	 $Exit0$176915
$LN19@LoadTerrai:
  008ff	33 c0		 xor	 eax, eax
  00901	75 bc		 jne	 SHORT $LN20@LoadTerrai

; 186  : 
; 187  :     if (pFileHeader->nVersion != eTerrainDataVersion7)

  00903	8b 4d d0	 mov	 ecx, DWORD PTR _pFileHeader$[ebp]
  00906	83 39 07	 cmp	 DWORD PTR [ecx], 7
  00909	74 2a		 je	 SHORT $LN15@LoadTerrai

; 188  :     {
; 189  :         KGLogPrintf(KGLOG_ERR, "Unsupported map version (%d) at file: (%s)\n", pFileHeader->nVersion, szFileName);

  0090b	8b f4		 mov	 esi, esp
  0090d	8d 95 c8 fe ff
	ff		 lea	 edx, DWORD PTR _szFileName$[ebp]
  00913	52		 push	 edx
  00914	8b 45 d0	 mov	 eax, DWORD PTR _pFileHeader$[ebp]
  00917	8b 08		 mov	 ecx, DWORD PTR [eax]
  00919	51		 push	 ecx
  0091a	68 00 00 00 00	 push	 OFFSET $SG176985
  0091f	6a 03		 push	 3
  00921	ff 15 00 00 00
	00		 call	 DWORD PTR __imp_?KGLogPrintf@@YAHW4KGLOG_PRIORITY@@QBDZZ
  00927	83 c4 10	 add	 esp, 16			; 00000010H
  0092a	3b f4		 cmp	 esi, esp
  0092c	e8 00 00 00 00	 call	 __RTC_CheckEsp
  00931	eb 52		 jmp	 SHORT $Exit0$176915

; 190  :         goto Exit0;

  00933	eb 50		 jmp	 SHORT $Exit0$176915
$LN15@LoadTerrai:

; 191  :     }
; 192  :     
; 193  :     bRetCode = LoadTerrainBufferV7(pbyOffset, uLeftBytes);

  00935	8b 55 d8	 mov	 edx, DWORD PTR _uLeftBytes$[ebp]
  00938	52		 push	 edx
  00939	8b 45 d4	 mov	 eax, DWORD PTR _pbyOffset$[ebp]
  0093c	50		 push	 eax
  0093d	8b 4d f8	 mov	 ecx, DWORD PTR _this$[ebp]
  00940	e8 00 00 00 00	 call	 ?LoadTerrainBufferV7@KRegion@@QAEHPBEI@Z ; KRegion::LoadTerrainBufferV7
  00945	89 45 f0	 mov	 DWORD PTR _bRetCode$[ebp], eax
$LN13@LoadTerrai:

; 194  :     KGLOG_PROCESS_ERROR(bRetCode);

  00948	83 7d f0 00	 cmp	 DWORD PTR _bRetCode$[ebp], 0
  0094c	75 2c		 jne	 SHORT $LN12@LoadTerrai
  0094e	8b f4		 mov	 esi, esp
  00950	68 00 00 00 00	 push	 OFFSET $SG176991
  00955	68 c2 00 00 00	 push	 194			; 000000c2H
  0095a	68 00 00 00 00	 push	 OFFSET $SG176992
  0095f	68 00 00 00 00	 push	 OFFSET $SG176993
  00964	6a 07		 push	 7
  00966	ff 15 00 00 00
	00		 call	 DWORD PTR __imp_?KGLogPrintf@@YAHW4KGLOG_PRIORITY@@QBDZZ
  0096c	83 c4 14	 add	 esp, 20			; 00000014H
  0096f	3b f4		 cmp	 esi, esp
  00971	e8 00 00 00 00	 call	 __RTC_CheckEsp
  00976	eb 0d		 jmp	 SHORT $Exit0$176915
  00978	eb 0b		 jmp	 SHORT $Exit0$176915
$LN12@LoadTerrai:
  0097a	33 c9		 xor	 ecx, ecx
  0097c	75 ca		 jne	 SHORT $LN13@LoadTerrai

; 195  : 
; 196  :     bResult = true;

  0097e	c7 45 f4 01 00
	00 00		 mov	 DWORD PTR _bResult$[ebp], 1
$Exit0$176915:

; 197  : Exit0:
; 198  :     KG_COM_RELEASE(piBuffer);

  00985	83 7d e8 00	 cmp	 DWORD PTR _piBuffer$[ebp], 0
  00989	74 1e		 je	 SHORT $LN7@LoadTerrai
  0098b	8b 55 e8	 mov	 edx, DWORD PTR _piBuffer$[ebp]
  0098e	8b 02		 mov	 eax, DWORD PTR [edx]
  00990	8b f4		 mov	 esi, esp
  00992	8b 4d e8	 mov	 ecx, DWORD PTR _piBuffer$[ebp]
  00995	51		 push	 ecx
  00996	8b 50 08	 mov	 edx, DWORD PTR [eax+8]
  00999	ff d2		 call	 edx
  0099b	3b f4		 cmp	 esi, esp
  0099d	e8 00 00 00 00	 call	 __RTC_CheckEsp
  009a2	c7 45 e8 00 00
	00 00		 mov	 DWORD PTR _piBuffer$[ebp], 0
$LN7@LoadTerrai:
  009a9	33 c0		 xor	 eax, eax
  009ab	75 d8		 jne	 SHORT $Exit0$176915
$LN4@LoadTerrai:

; 199  :     KG_COM_RELEASE(piFile);

  009ad	83 7d ec 00	 cmp	 DWORD PTR _piFile$[ebp], 0
  009b1	74 1d		 je	 SHORT $LN3@LoadTerrai
  009b3	8b 4d ec	 mov	 ecx, DWORD PTR _piFile$[ebp]
  009b6	8b 11		 mov	 edx, DWORD PTR [ecx]
  009b8	8b f4		 mov	 esi, esp
  009ba	8b 4d ec	 mov	 ecx, DWORD PTR _piFile$[ebp]
  009bd	8b 42 30	 mov	 eax, DWORD PTR [edx+48]
  009c0	ff d0		 call	 eax
  009c2	3b f4		 cmp	 esi, esp
  009c4	e8 00 00 00 00	 call	 __RTC_CheckEsp
  009c9	c7 45 ec 00 00
	00 00		 mov	 DWORD PTR _piFile$[ebp], 0
$LN3@LoadTerrai:
  009d0	33 c9		 xor	 ecx, ecx
  009d2	75 d9		 jne	 SHORT $LN4@LoadTerrai

; 200  :     return bResult;

  009d4	8b 45 f4	 mov	 eax, DWORD PTR _bResult$[ebp]

; 201  : }

  009d7	52		 push	 edx
  009d8	8b cd		 mov	 ecx, ebp
  009da	50		 push	 eax
  009db	8d 15 00 00 00
	00		 lea	 edx, DWORD PTR $LN65@LoadTerrai
  009e1	e8 00 00 00 00	 call	 @_RTC_CheckStackVars@8
  009e6	58		 pop	 eax
  009e7	5a		 pop	 edx
  009e8	5f		 pop	 edi
  009e9	5e		 pop	 esi
  009ea	8b 4d fc	 mov	 ecx, DWORD PTR __$ArrayPad$[ebp]
  009ed	33 cd		 xor	 ecx, ebp
  009ef	e8 00 00 00 00	 call	 @__security_check_cookie@4
  009f4	81 c4 3c 01 00
	00		 add	 esp, 316		; 0000013cH
  009fa	3b ec		 cmp	 ebp, esp
  009fc	e8 00 00 00 00	 call	 __RTC_CheckEsp
  00a01	8b e5		 mov	 esp, ebp
  00a03	5d		 pop	 ebp
  00a04	c3		 ret	 0
  00a05	8d 49 00	 npad	 3
$LN65@LoadTerrai:
  00a08	01 00 00 00	 DD	 1
  00a0c	00 00 00 00	 DD	 $LN64@LoadTerrai
$LN64@LoadTerrai:
  00a10	c8 fe ff ff	 DD	 -312			; fffffec8H
  00a14	04 01 00 00	 DD	 260			; 00000104H
  00a18	00 00 00 00	 DD	 $LN63@LoadTerrai
$LN63@LoadTerrai:
  00a1c	73		 DB	 115			; 00000073H
  00a1d	7a		 DB	 122			; 0000007aH
  00a1e	46		 DB	 70			; 00000046H
  00a1f	69		 DB	 105			; 00000069H
  00a20	6c		 DB	 108			; 0000006cH
  00a21	65		 DB	 101			; 00000065H
  00a22	4e		 DB	 78			; 0000004eH
  00a23	61		 DB	 97			; 00000061H
  00a24	6d		 DB	 109			; 0000006dH
  00a25	65		 DB	 101			; 00000065H
  00a26	00		 DB	 0
?LoadTerrain@KRegion@@QAEHXZ ENDP			; KRegion::LoadTerrain
_TEXT	ENDS
PUBLIC	??$RawDelete@UKDynamicCell@@@KMemory@@YAXPAUKDynamicCell@@@Z ; KMemory::RawDelete<KDynamicCell>
PUBLIC	??$RawDelete@UKCell@@@KMemory@@YAXPAUKCell@@@Z	; KMemory::RawDelete<KCell>
PUBLIC	??$RawNew@UKDynamicCell@@@KMemory@@YAPAUKDynamicCell@@XZ ; KMemory::RawNew<KDynamicCell>
PUBLIC	?AddObstacle@KRegion@@QAEHHHPAUKCell@@@Z	; KRegion::AddObstacle
PUBLIC	??$RawNew@UKCell@@@KMemory@@YAPAUKCell@@XZ	; KMemory::RawNew<KCell>
PUBLIC	?GetLowestObstacle@KRegion@@QAEPAUKCell@@HH@Z	; KRegion::GetLowestObstacle
EXTRN	_memcpy:PROC
; Function compile flags: /Odtp /RTCsu
_TEXT	SEGMENT
_pBaseInfo$177150 = -96					; size = 4
_nCellY$177149 = -92					; size = 4
_nCellX$177148 = -88					; size = 4
_nIndex$177144 = -84					; size = 4
_pBaseInfo$177085 = -80					; size = 4
_nCellY$177084 = -76					; size = 4
_nCellX$177083 = -72					; size = 4
_nIndex$177079 = -68					; size = 4
_pBaseInfo$177046 = -64					; size = 4
_pCell$177045 = -60					; size = 4
_nCellX$177041 = -56					; size = 4
_nCellY$177037 = -52					; size = 4
_uExtDynamicCellDataSize$ = -48				; size = 4
_nExtDynamicCellCount$ = -44				; size = 4
_uExtNormalCellDataSize$ = -40				; size = 4
_nExtNormalCellCount$ = -36				; size = 4
_pAllocDynamicCell$ = -32				; size = 4
_pAllocNormalCell$ = -28				; size = 4
_uBaseCellInfoSize$ = -24				; size = 4
_pbyOffset$ = -20					; size = 4
_uLeftBytes$ = -16					; size = 4
_bRetCode$ = -12					; size = 4
_bResult$ = -8						; size = 4
_this$ = -4						; size = 4
_pbyData$ = 8						; size = 4
_uDataLen$ = 12						; size = 4
?LoadTerrainBufferV7@KRegion@@QAEHPBEI@Z PROC		; KRegion::LoadTerrainBufferV7
; _this$ = ecx

; 204  : {

  00a30	55		 push	 ebp
  00a31	8b ec		 mov	 ebp, esp
  00a33	83 ec 60	 sub	 esp, 96			; 00000060H
  00a36	56		 push	 esi
  00a37	57		 push	 edi
  00a38	51		 push	 ecx
  00a39	8d 7d a0	 lea	 edi, DWORD PTR [ebp-96]
  00a3c	b9 18 00 00 00	 mov	 ecx, 24			; 00000018H
  00a41	b8 cc cc cc cc	 mov	 eax, -858993460		; ccccccccH
  00a46	f3 ab		 rep stosd
  00a48	59		 pop	 ecx
  00a49	89 4d fc	 mov	 DWORD PTR _this$[ebp], ecx

; 205  :     BOOL            bResult                 = false;

  00a4c	c7 45 f8 00 00
	00 00		 mov	 DWORD PTR _bResult$[ebp], 0

; 206  :     BOOL            bRetCode                = false;

  00a53	c7 45 f4 00 00
	00 00		 mov	 DWORD PTR _bRetCode$[ebp], 0

; 207  :     size_t          uLeftBytes              = uDataLen;

  00a5a	8b 45 0c	 mov	 eax, DWORD PTR _uDataLen$[ebp]
  00a5d	89 45 f0	 mov	 DWORD PTR _uLeftBytes$[ebp], eax

; 208  :     const BYTE*     pbyOffset               = pbyData;

  00a60	8b 4d 08	 mov	 ecx, DWORD PTR _pbyData$[ebp]
  00a63	89 4d ec	 mov	 DWORD PTR _pbyOffset$[ebp], ecx

; 209  :     size_t          uBaseCellInfoSize       = sizeof(KCell::KBaseInfo) + sizeof(WORD);

  00a66	c7 45 e8 06 00
	00 00		 mov	 DWORD PTR _uBaseCellInfoSize$[ebp], 6

; 210  :     KCell*          pAllocNormalCell        = NULL;

  00a6d	c7 45 e4 00 00
	00 00		 mov	 DWORD PTR _pAllocNormalCell$[ebp], 0

; 211  :     KDynamicCell*   pAllocDynamicCell       = NULL;

  00a74	c7 45 e0 00 00
	00 00		 mov	 DWORD PTR _pAllocDynamicCell$[ebp], 0

; 212  :     int             nExtNormalCellCount     = 0;

  00a7b	c7 45 dc 00 00
	00 00		 mov	 DWORD PTR _nExtNormalCellCount$[ebp], 0

; 213  :     size_t          uExtNormalCellDataSize  = sizeof(BYTE) * 2 + sizeof(KCell::KBaseInfo) + sizeof(WORD) * 2;

  00a82	c7 45 d8 0a 00
	00 00		 mov	 DWORD PTR _uExtNormalCellDataSize$[ebp], 10 ; 0000000aH

; 214  :     int             nExtDynamicCellCount    = 0;

  00a89	c7 45 d4 00 00
	00 00		 mov	 DWORD PTR _nExtDynamicCellCount$[ebp], 0

; 215  :     size_t          uExtDynamicCellDataSize = sizeof(BYTE) * 2 + sizeof(KCell::KBaseInfo) + sizeof(WORD) * 2 + sizeof(WORD);

  00a90	c7 45 d0 0c 00
	00 00		 mov	 DWORD PTR _uExtDynamicCellDataSize$[ebp], 12 ; 0000000cH
$LN75@LoadTerrai@2:

; 216  : 
; 217  :     KGLOG_PROCESS_ERROR(uLeftBytes >= uBaseCellInfoSize * REGION_GRID_WIDTH * REGION_GRID_HEIGHT);

  00a97	8b 55 e8	 mov	 edx, DWORD PTR _uBaseCellInfoSize$[ebp]
  00a9a	c1 e2 06	 shl	 edx, 6
  00a9d	c1 e2 06	 shl	 edx, 6
  00aa0	39 55 f0	 cmp	 DWORD PTR _uLeftBytes$[ebp], edx
  00aa3	73 32		 jae	 SHORT $LN74@LoadTerrai@2
  00aa5	8b f4		 mov	 esi, esp
  00aa7	68 00 00 00 00	 push	 OFFSET $SG177032
  00aac	68 d9 00 00 00	 push	 217			; 000000d9H
  00ab1	68 00 00 00 00	 push	 OFFSET $SG177033
  00ab6	68 00 00 00 00	 push	 OFFSET $SG177034
  00abb	6a 07		 push	 7
  00abd	ff 15 00 00 00
	00		 call	 DWORD PTR __imp_?KGLogPrintf@@YAHW4KGLOG_PRIORITY@@QBDZZ
  00ac3	83 c4 14	 add	 esp, 20			; 00000014H
  00ac6	3b f4		 cmp	 esi, esp
  00ac8	e8 00 00 00 00	 call	 __RTC_CheckEsp
  00acd	e9 87 05 00 00	 jmp	 $Exit0$177035
  00ad2	e9 82 05 00 00	 jmp	 $Exit0$177035
$LN74@LoadTerrai@2:
  00ad7	33 c0		 xor	 eax, eax
  00ad9	75 bc		 jne	 SHORT $LN75@LoadTerrai@2

; 218  :     uLeftBytes -= uBaseCellInfoSize * REGION_GRID_WIDTH * REGION_GRID_HEIGHT;

  00adb	8b 4d e8	 mov	 ecx, DWORD PTR _uBaseCellInfoSize$[ebp]
  00ade	c1 e1 06	 shl	 ecx, 6
  00ae1	c1 e1 06	 shl	 ecx, 6
  00ae4	8b 55 f0	 mov	 edx, DWORD PTR _uLeftBytes$[ebp]
  00ae7	2b d1		 sub	 edx, ecx
  00ae9	89 55 f0	 mov	 DWORD PTR _uLeftBytes$[ebp], edx

; 219  : 
; 220  : 	for (int nCellY = 0; nCellY < REGION_GRID_HEIGHT; nCellY++)

  00aec	c7 45 cc 00 00
	00 00		 mov	 DWORD PTR _nCellY$177037[ebp], 0
  00af3	eb 09		 jmp	 SHORT $LN70@LoadTerrai@2
$LN69@LoadTerrai@2:
  00af5	8b 45 cc	 mov	 eax, DWORD PTR _nCellY$177037[ebp]
  00af8	83 c0 01	 add	 eax, 1
  00afb	89 45 cc	 mov	 DWORD PTR _nCellY$177037[ebp], eax
$LN70@LoadTerrai@2:
  00afe	83 7d cc 40	 cmp	 DWORD PTR _nCellY$177037[ebp], 64 ; 00000040H
  00b02	7d 79		 jge	 SHORT $LN64@LoadTerrai@2

; 221  : 	{
; 222  : 		for (int nCellX = 0; nCellX < REGION_GRID_WIDTH; nCellX++)

  00b04	c7 45 c8 00 00
	00 00		 mov	 DWORD PTR _nCellX$177041[ebp], 0
  00b0b	eb 09		 jmp	 SHORT $LN67@LoadTerrai@2
$LN66@LoadTerrai@2:
  00b0d	8b 4d c8	 mov	 ecx, DWORD PTR _nCellX$177041[ebp]
  00b10	83 c1 01	 add	 ecx, 1
  00b13	89 4d c8	 mov	 DWORD PTR _nCellX$177041[ebp], ecx
$LN67@LoadTerrai@2:
  00b16	83 7d c8 40	 cmp	 DWORD PTR _nCellX$177041[ebp], 64 ; 00000040H
  00b1a	7d 5c		 jge	 SHORT $LN65@LoadTerrai@2

; 223  : 		{
; 224  : 			KCell*              pCell       = GetLowestObstacle(nCellX, nCellY);

  00b1c	8b 55 cc	 mov	 edx, DWORD PTR _nCellY$177037[ebp]
  00b1f	52		 push	 edx
  00b20	8b 45 c8	 mov	 eax, DWORD PTR _nCellX$177041[ebp]
  00b23	50		 push	 eax
  00b24	8b 4d fc	 mov	 ecx, DWORD PTR _this$[ebp]
  00b27	e8 00 00 00 00	 call	 ?GetLowestObstacle@KRegion@@QAEPAUKCell@@HH@Z ; KRegion::GetLowestObstacle
  00b2c	89 45 c4	 mov	 DWORD PTR _pCell$177045[ebp], eax

; 225  : 			KCell::KBaseInfo*   pBaseInfo   = (KCell::KBaseInfo*)pbyOffset;

  00b2f	8b 4d ec	 mov	 ecx, DWORD PTR _pbyOffset$[ebp]
  00b32	89 4d c0	 mov	 DWORD PTR _pBaseInfo$177046[ebp], ecx

; 226  : 
; 227  :             pCell->m_BaseInfo           = *pBaseInfo;

  00b35	8b 55 c0	 mov	 edx, DWORD PTR _pBaseInfo$177046[ebp]
  00b38	8b 02		 mov	 eax, DWORD PTR [edx]
  00b3a	8b 4d c4	 mov	 ecx, DWORD PTR _pCell$177045[ebp]
  00b3d	89 01		 mov	 DWORD PTR [ecx], eax

; 228  :             pCell->m_BaseInfo.dwDynamic = 0; 

  00b3f	8b 55 c4	 mov	 edx, DWORD PTR _pCell$177045[ebp]
  00b42	8b 02		 mov	 eax, DWORD PTR [edx]
  00b44	25 ff ff fe ff	 and	 eax, -65537		; fffeffffH
  00b49	8b 4d c4	 mov	 ecx, DWORD PTR _pCell$177045[ebp]
  00b4c	89 01		 mov	 DWORD PTR [ecx], eax

; 229  : 			pCell->m_wLowLayer          = 0;

  00b4e	8b 55 c4	 mov	 edx, DWORD PTR _pCell$177045[ebp]
  00b51	66 c7 42 04 00
	00		 mov	 WORD PTR [edx+4], 0

; 230  : 
; 231  :             pbyOffset += sizeof(KCell::KBaseInfo);

  00b57	8b 45 ec	 mov	 eax, DWORD PTR _pbyOffset$[ebp]
  00b5a	83 c0 04	 add	 eax, 4
  00b5d	89 45 ec	 mov	 DWORD PTR _pbyOffset$[ebp], eax

; 232  : 
; 233  : 			pCell->m_wHighLayer = *(WORD*)pbyOffset;

  00b60	8b 4d c4	 mov	 ecx, DWORD PTR _pCell$177045[ebp]
  00b63	8b 55 ec	 mov	 edx, DWORD PTR _pbyOffset$[ebp]
  00b66	66 8b 02	 mov	 ax, WORD PTR [edx]
  00b69	66 89 41 06	 mov	 WORD PTR [ecx+6], ax

; 234  :             pbyOffset += sizeof(WORD);

  00b6d	8b 4d ec	 mov	 ecx, DWORD PTR _pbyOffset$[ebp]
  00b70	83 c1 02	 add	 ecx, 2
  00b73	89 4d ec	 mov	 DWORD PTR _pbyOffset$[ebp], ecx

; 235  : 		}

  00b76	eb 95		 jmp	 SHORT $LN66@LoadTerrai@2
$LN65@LoadTerrai@2:

; 236  : 	}

  00b78	e9 78 ff ff ff	 jmp	 $LN69@LoadTerrai@2
$LN64@LoadTerrai@2:

; 237  : 
; 238  :     // -------- Cell---------------------------------
; 239  : 
; 240  :     KGLOG_PROCESS_ERROR(uLeftBytes >= sizeof(int));

  00b7d	83 7d f0 04	 cmp	 DWORD PTR _uLeftBytes$[ebp], 4
  00b81	73 32		 jae	 SHORT $LN63@LoadTerrai@2
  00b83	8b f4		 mov	 esi, esp
  00b85	68 00 00 00 00	 push	 OFFSET $SG177056
  00b8a	68 f0 00 00 00	 push	 240			; 000000f0H
  00b8f	68 00 00 00 00	 push	 OFFSET $SG177057
  00b94	68 00 00 00 00	 push	 OFFSET $SG177058
  00b99	6a 07		 push	 7
  00b9b	ff 15 00 00 00
	00		 call	 DWORD PTR __imp_?KGLogPrintf@@YAHW4KGLOG_PRIORITY@@QBDZZ
  00ba1	83 c4 14	 add	 esp, 20			; 00000014H
  00ba4	3b f4		 cmp	 esi, esp
  00ba6	e8 00 00 00 00	 call	 __RTC_CheckEsp
  00bab	e9 a9 04 00 00	 jmp	 $Exit0$177035
  00bb0	e9 a4 04 00 00	 jmp	 $Exit0$177035
$LN63@LoadTerrai@2:
  00bb5	33 d2		 xor	 edx, edx
  00bb7	75 c4		 jne	 SHORT $LN64@LoadTerrai@2

; 241  :     uLeftBytes -= sizeof(int);

  00bb9	8b 45 f0	 mov	 eax, DWORD PTR _uLeftBytes$[ebp]
  00bbc	83 e8 04	 sub	 eax, 4
  00bbf	89 45 f0	 mov	 DWORD PTR _uLeftBytes$[ebp], eax

; 242  : 
; 243  :     nExtNormalCellCount = *(int*)pbyOffset;

  00bc2	8b 4d ec	 mov	 ecx, DWORD PTR _pbyOffset$[ebp]
  00bc5	8b 11		 mov	 edx, DWORD PTR [ecx]
  00bc7	89 55 dc	 mov	 DWORD PTR _nExtNormalCellCount$[ebp], edx

; 244  :     pbyOffset += sizeof(int);

  00bca	8b 45 ec	 mov	 eax, DWORD PTR _pbyOffset$[ebp]
  00bcd	83 c0 04	 add	 eax, 4
  00bd0	89 45 ec	 mov	 DWORD PTR _pbyOffset$[ebp], eax
$LN59@LoadTerrai@2:

; 245  : 
; 246  :     KGLOG_PROCESS_ERROR(nExtNormalCellCount >= 0);

  00bd3	83 7d dc 00	 cmp	 DWORD PTR _nExtNormalCellCount$[ebp], 0
  00bd7	7d 32		 jge	 SHORT $LN58@LoadTerrai@2
  00bd9	8b f4		 mov	 esi, esp
  00bdb	68 00 00 00 00	 push	 OFFSET $SG177067
  00be0	68 f6 00 00 00	 push	 246			; 000000f6H
  00be5	68 00 00 00 00	 push	 OFFSET $SG177068
  00bea	68 00 00 00 00	 push	 OFFSET $SG177069
  00bef	6a 07		 push	 7
  00bf1	ff 15 00 00 00
	00		 call	 DWORD PTR __imp_?KGLogPrintf@@YAHW4KGLOG_PRIORITY@@QBDZZ
  00bf7	83 c4 14	 add	 esp, 20			; 00000014H
  00bfa	3b f4		 cmp	 esi, esp
  00bfc	e8 00 00 00 00	 call	 __RTC_CheckEsp
  00c01	e9 53 04 00 00	 jmp	 $Exit0$177035
  00c06	e9 4e 04 00 00	 jmp	 $Exit0$177035
$LN58@LoadTerrai@2:
  00c0b	33 c9		 xor	 ecx, ecx
  00c0d	75 c4		 jne	 SHORT $LN59@LoadTerrai@2
$LN54@LoadTerrai@2:

; 247  :     KGLOG_PROCESS_ERROR(uLeftBytes >= nExtNormalCellCount * uExtNormalCellDataSize);

  00c0f	8b 55 dc	 mov	 edx, DWORD PTR _nExtNormalCellCount$[ebp]
  00c12	0f af 55 d8	 imul	 edx, DWORD PTR _uExtNormalCellDataSize$[ebp]
  00c16	39 55 f0	 cmp	 DWORD PTR _uLeftBytes$[ebp], edx
  00c19	73 32		 jae	 SHORT $LN53@LoadTerrai@2
  00c1b	8b f4		 mov	 esi, esp
  00c1d	68 00 00 00 00	 push	 OFFSET $SG177075
  00c22	68 f7 00 00 00	 push	 247			; 000000f7H
  00c27	68 00 00 00 00	 push	 OFFSET $SG177076
  00c2c	68 00 00 00 00	 push	 OFFSET $SG177077
  00c31	6a 07		 push	 7
  00c33	ff 15 00 00 00
	00		 call	 DWORD PTR __imp_?KGLogPrintf@@YAHW4KGLOG_PRIORITY@@QBDZZ
  00c39	83 c4 14	 add	 esp, 20			; 00000014H
  00c3c	3b f4		 cmp	 esi, esp
  00c3e	e8 00 00 00 00	 call	 __RTC_CheckEsp
  00c43	e9 11 04 00 00	 jmp	 $Exit0$177035
  00c48	e9 0c 04 00 00	 jmp	 $Exit0$177035
$LN53@LoadTerrai@2:
  00c4d	33 c0		 xor	 eax, eax
  00c4f	75 be		 jne	 SHORT $LN54@LoadTerrai@2

; 248  :     uLeftBytes -= nExtNormalCellCount * uExtNormalCellDataSize;

  00c51	8b 4d dc	 mov	 ecx, DWORD PTR _nExtNormalCellCount$[ebp]
  00c54	0f af 4d d8	 imul	 ecx, DWORD PTR _uExtNormalCellDataSize$[ebp]
  00c58	8b 55 f0	 mov	 edx, DWORD PTR _uLeftBytes$[ebp]
  00c5b	2b d1		 sub	 edx, ecx
  00c5d	89 55 f0	 mov	 DWORD PTR _uLeftBytes$[ebp], edx

; 249  : 
; 250  : 	for (int nIndex = 0; nIndex < nExtNormalCellCount; nIndex++)

  00c60	c7 45 bc 00 00
	00 00		 mov	 DWORD PTR _nIndex$177079[ebp], 0
  00c67	eb 09		 jmp	 SHORT $LN49@LoadTerrai@2
$LN48@LoadTerrai@2:
  00c69	8b 45 bc	 mov	 eax, DWORD PTR _nIndex$177079[ebp]
  00c6c	83 c0 01	 add	 eax, 1
  00c6f	89 45 bc	 mov	 DWORD PTR _nIndex$177079[ebp], eax
$LN49@LoadTerrai@2:
  00c72	8b 4d bc	 mov	 ecx, DWORD PTR _nIndex$177079[ebp]
  00c75	3b 4d dc	 cmp	 ecx, DWORD PTR _nExtNormalCellCount$[ebp]
  00c78	0f 8d 30 01 00
	00		 jge	 $LN36@LoadTerrai@2

; 251  : 	{
; 252  :         int                 nCellX      = 0;

  00c7e	c7 45 b8 00 00
	00 00		 mov	 DWORD PTR _nCellX$177083[ebp], 0

; 253  :         int                 nCellY      = 0;

  00c85	c7 45 b4 00 00
	00 00		 mov	 DWORD PTR _nCellY$177084[ebp], 0

; 254  :         KCell::KBaseInfo*   pBaseInfo   = NULL;

  00c8c	c7 45 b0 00 00
	00 00		 mov	 DWORD PTR _pBaseInfo$177085[ebp], 0

; 255  : 
; 256  : 		pAllocNormalCell = KMemory::RawNew<KCell>();

  00c93	e8 00 00 00 00	 call	 ??$RawNew@UKCell@@@KMemory@@YAPAUKCell@@XZ ; KMemory::RawNew<KCell>
  00c98	89 45 e4	 mov	 DWORD PTR _pAllocNormalCell$[ebp], eax
$LN46@LoadTerrai@2:

; 257  : 		KGLOG_PROCESS_ERROR(pAllocNormalCell);

  00c9b	83 7d e4 00	 cmp	 DWORD PTR _pAllocNormalCell$[ebp], 0
  00c9f	75 32		 jne	 SHORT $LN45@LoadTerrai@2
  00ca1	8b f4		 mov	 esi, esp
  00ca3	68 00 00 00 00	 push	 OFFSET $SG177094
  00ca8	68 01 01 00 00	 push	 257			; 00000101H
  00cad	68 00 00 00 00	 push	 OFFSET $SG177095
  00cb2	68 00 00 00 00	 push	 OFFSET $SG177096
  00cb7	6a 07		 push	 7
  00cb9	ff 15 00 00 00
	00		 call	 DWORD PTR __imp_?KGLogPrintf@@YAHW4KGLOG_PRIORITY@@QBDZZ
  00cbf	83 c4 14	 add	 esp, 20			; 00000014H
  00cc2	3b f4		 cmp	 esi, esp
  00cc4	e8 00 00 00 00	 call	 __RTC_CheckEsp
  00cc9	e9 8b 03 00 00	 jmp	 $Exit0$177035
  00cce	e9 86 03 00 00	 jmp	 $Exit0$177035
$LN45@LoadTerrai@2:
  00cd3	33 d2		 xor	 edx, edx
  00cd5	75 c4		 jne	 SHORT $LN46@LoadTerrai@2

; 258  : 
; 259  : 		nCellX = *(BYTE*)pbyOffset;

  00cd7	8b 45 ec	 mov	 eax, DWORD PTR _pbyOffset$[ebp]
  00cda	0f b6 08	 movzx	 ecx, BYTE PTR [eax]
  00cdd	89 4d b8	 mov	 DWORD PTR _nCellX$177083[ebp], ecx

; 260  : 		pbyOffset += sizeof(BYTE);

  00ce0	8b 55 ec	 mov	 edx, DWORD PTR _pbyOffset$[ebp]
  00ce3	83 c2 01	 add	 edx, 1
  00ce6	89 55 ec	 mov	 DWORD PTR _pbyOffset$[ebp], edx

; 261  : 
; 262  : 		nCellY = *(BYTE*)pbyOffset;

  00ce9	8b 45 ec	 mov	 eax, DWORD PTR _pbyOffset$[ebp]
  00cec	0f b6 08	 movzx	 ecx, BYTE PTR [eax]
  00cef	89 4d b4	 mov	 DWORD PTR _nCellY$177084[ebp], ecx

; 263  : 		pbyOffset += sizeof(BYTE);

  00cf2	8b 55 ec	 mov	 edx, DWORD PTR _pbyOffset$[ebp]
  00cf5	83 c2 01	 add	 edx, 1
  00cf8	89 55 ec	 mov	 DWORD PTR _pbyOffset$[ebp], edx

; 264  : 
; 265  : 		pBaseInfo = (KCell::KBaseInfo*)pbyOffset;

  00cfb	8b 45 ec	 mov	 eax, DWORD PTR _pbyOffset$[ebp]
  00cfe	89 45 b0	 mov	 DWORD PTR _pBaseInfo$177085[ebp], eax

; 266  : 		pbyOffset += sizeof(KCell::KBaseInfo);

  00d01	8b 4d ec	 mov	 ecx, DWORD PTR _pbyOffset$[ebp]
  00d04	83 c1 04	 add	 ecx, 4
  00d07	89 4d ec	 mov	 DWORD PTR _pbyOffset$[ebp], ecx

; 267  : 
; 268  : 		pAllocNormalCell->m_BaseInfo = *pBaseInfo;

  00d0a	8b 55 b0	 mov	 edx, DWORD PTR _pBaseInfo$177085[ebp]
  00d0d	8b 02		 mov	 eax, DWORD PTR [edx]
  00d0f	8b 4d e4	 mov	 ecx, DWORD PTR _pAllocNormalCell$[ebp]
  00d12	89 01		 mov	 DWORD PTR [ecx], eax

; 269  :         pAllocNormalCell->m_BaseInfo.dwDynamic = 0;

  00d14	8b 55 e4	 mov	 edx, DWORD PTR _pAllocNormalCell$[ebp]
  00d17	8b 02		 mov	 eax, DWORD PTR [edx]
  00d19	25 ff ff fe ff	 and	 eax, -65537		; fffeffffH
  00d1e	8b 4d e4	 mov	 ecx, DWORD PTR _pAllocNormalCell$[ebp]
  00d21	89 01		 mov	 DWORD PTR [ecx], eax

; 270  : 
; 271  :         pAllocNormalCell->m_wHighLayer = *(WORD*)pbyOffset;

  00d23	8b 55 e4	 mov	 edx, DWORD PTR _pAllocNormalCell$[ebp]
  00d26	8b 45 ec	 mov	 eax, DWORD PTR _pbyOffset$[ebp]
  00d29	66 8b 08	 mov	 cx, WORD PTR [eax]
  00d2c	66 89 4a 06	 mov	 WORD PTR [edx+6], cx

; 272  : 		pbyOffset += sizeof(WORD);

  00d30	8b 55 ec	 mov	 edx, DWORD PTR _pbyOffset$[ebp]
  00d33	83 c2 02	 add	 edx, 2
  00d36	89 55 ec	 mov	 DWORD PTR _pbyOffset$[ebp], edx

; 273  : 
; 274  :         pAllocNormalCell->m_wLowLayer = *(WORD*)pbyOffset;

  00d39	8b 45 e4	 mov	 eax, DWORD PTR _pAllocNormalCell$[ebp]
  00d3c	8b 4d ec	 mov	 ecx, DWORD PTR _pbyOffset$[ebp]
  00d3f	66 8b 11	 mov	 dx, WORD PTR [ecx]
  00d42	66 89 50 04	 mov	 WORD PTR [eax+4], dx

; 275  : 		pbyOffset += sizeof(WORD);

  00d46	8b 45 ec	 mov	 eax, DWORD PTR _pbyOffset$[ebp]
  00d49	83 c0 02	 add	 eax, 2
  00d4c	89 45 ec	 mov	 DWORD PTR _pbyOffset$[ebp], eax

; 276  : 
; 277  : 		bRetCode = AddObstacle(nCellX, nCellY, pAllocNormalCell);

  00d4f	8b 4d e4	 mov	 ecx, DWORD PTR _pAllocNormalCell$[ebp]
  00d52	51		 push	 ecx
  00d53	8b 55 b4	 mov	 edx, DWORD PTR _nCellY$177084[ebp]
  00d56	52		 push	 edx
  00d57	8b 45 b8	 mov	 eax, DWORD PTR _nCellX$177083[ebp]
  00d5a	50		 push	 eax
  00d5b	8b 4d fc	 mov	 ecx, DWORD PTR _this$[ebp]
  00d5e	e8 00 00 00 00	 call	 ?AddObstacle@KRegion@@QAEHHHPAUKCell@@@Z ; KRegion::AddObstacle
  00d63	89 45 f4	 mov	 DWORD PTR _bRetCode$[ebp], eax
$LN41@LoadTerrai@2:

; 278  : 		KGLOG_PROCESS_ERROR(bRetCode);

  00d66	83 7d f4 00	 cmp	 DWORD PTR _bRetCode$[ebp], 0
  00d6a	75 32		 jne	 SHORT $LN40@LoadTerrai@2
  00d6c	8b f4		 mov	 esi, esp
  00d6e	68 00 00 00 00	 push	 OFFSET $SG177112
  00d73	68 16 01 00 00	 push	 278			; 00000116H
  00d78	68 00 00 00 00	 push	 OFFSET $SG177113
  00d7d	68 00 00 00 00	 push	 OFFSET $SG177114
  00d82	6a 07		 push	 7
  00d84	ff 15 00 00 00
	00		 call	 DWORD PTR __imp_?KGLogPrintf@@YAHW4KGLOG_PRIORITY@@QBDZZ
  00d8a	83 c4 14	 add	 esp, 20			; 00000014H
  00d8d	3b f4		 cmp	 esi, esp
  00d8f	e8 00 00 00 00	 call	 __RTC_CheckEsp
  00d94	e9 c0 02 00 00	 jmp	 $Exit0$177035
  00d99	e9 bb 02 00 00	 jmp	 $Exit0$177035
$LN40@LoadTerrai@2:
  00d9e	33 c9		 xor	 ecx, ecx
  00da0	75 c4		 jne	 SHORT $LN41@LoadTerrai@2

; 279  : 
; 280  :         pAllocNormalCell = NULL;

  00da2	c7 45 e4 00 00
	00 00		 mov	 DWORD PTR _pAllocNormalCell$[ebp], 0

; 281  : 	}

  00da9	e9 bb fe ff ff	 jmp	 $LN48@LoadTerrai@2
$LN36@LoadTerrai@2:

; 282  : 
; 283  :     // -------- Cell---------------------------------
; 284  : 
; 285  :     KGLOG_PROCESS_ERROR(uLeftBytes >= sizeof(int));

  00dae	83 7d f0 04	 cmp	 DWORD PTR _uLeftBytes$[ebp], 4
  00db2	73 32		 jae	 SHORT $LN35@LoadTerrai@2
  00db4	8b f4		 mov	 esi, esp
  00db6	68 00 00 00 00	 push	 OFFSET $SG177121
  00dbb	68 1d 01 00 00	 push	 285			; 0000011dH
  00dc0	68 00 00 00 00	 push	 OFFSET $SG177122
  00dc5	68 00 00 00 00	 push	 OFFSET $SG177123
  00dca	6a 07		 push	 7
  00dcc	ff 15 00 00 00
	00		 call	 DWORD PTR __imp_?KGLogPrintf@@YAHW4KGLOG_PRIORITY@@QBDZZ
  00dd2	83 c4 14	 add	 esp, 20			; 00000014H
  00dd5	3b f4		 cmp	 esi, esp
  00dd7	e8 00 00 00 00	 call	 __RTC_CheckEsp
  00ddc	e9 78 02 00 00	 jmp	 $Exit0$177035
  00de1	e9 73 02 00 00	 jmp	 $Exit0$177035
$LN35@LoadTerrai@2:
  00de6	33 d2		 xor	 edx, edx
  00de8	75 c4		 jne	 SHORT $LN36@LoadTerrai@2

; 286  :     uLeftBytes -= sizeof(int);

  00dea	8b 45 f0	 mov	 eax, DWORD PTR _uLeftBytes$[ebp]
  00ded	83 e8 04	 sub	 eax, 4
  00df0	89 45 f0	 mov	 DWORD PTR _uLeftBytes$[ebp], eax

; 287  : 
; 288  :     nExtDynamicCellCount = *(int*)pbyOffset;

  00df3	8b 4d ec	 mov	 ecx, DWORD PTR _pbyOffset$[ebp]
  00df6	8b 11		 mov	 edx, DWORD PTR [ecx]
  00df8	89 55 d4	 mov	 DWORD PTR _nExtDynamicCellCount$[ebp], edx

; 289  :     pbyOffset += sizeof(int);

  00dfb	8b 45 ec	 mov	 eax, DWORD PTR _pbyOffset$[ebp]
  00dfe	83 c0 04	 add	 eax, 4
  00e01	89 45 ec	 mov	 DWORD PTR _pbyOffset$[ebp], eax
$LN31@LoadTerrai@2:

; 290  : 
; 291  :     KGLOG_PROCESS_ERROR(nExtDynamicCellCount >= 0);

  00e04	83 7d d4 00	 cmp	 DWORD PTR _nExtDynamicCellCount$[ebp], 0
  00e08	7d 32		 jge	 SHORT $LN30@LoadTerrai@2
  00e0a	8b f4		 mov	 esi, esp
  00e0c	68 00 00 00 00	 push	 OFFSET $SG177132
  00e11	68 23 01 00 00	 push	 291			; 00000123H
  00e16	68 00 00 00 00	 push	 OFFSET $SG177133
  00e1b	68 00 00 00 00	 push	 OFFSET $SG177134
  00e20	6a 07		 push	 7
  00e22	ff 15 00 00 00
	00		 call	 DWORD PTR __imp_?KGLogPrintf@@YAHW4KGLOG_PRIORITY@@QBDZZ
  00e28	83 c4 14	 add	 esp, 20			; 00000014H
  00e2b	3b f4		 cmp	 esi, esp
  00e2d	e8 00 00 00 00	 call	 __RTC_CheckEsp
  00e32	e9 22 02 00 00	 jmp	 $Exit0$177035
  00e37	e9 1d 02 00 00	 jmp	 $Exit0$177035
$LN30@LoadTerrai@2:
  00e3c	33 c9		 xor	 ecx, ecx
  00e3e	75 c4		 jne	 SHORT $LN31@LoadTerrai@2
$LN26@LoadTerrai@2:

; 292  :     KGLOG_PROCESS_ERROR(uLeftBytes >= nExtDynamicCellCount * uExtDynamicCellDataSize);

  00e40	8b 55 d4	 mov	 edx, DWORD PTR _nExtDynamicCellCount$[ebp]
  00e43	0f af 55 d0	 imul	 edx, DWORD PTR _uExtDynamicCellDataSize$[ebp]
  00e47	39 55 f0	 cmp	 DWORD PTR _uLeftBytes$[ebp], edx
  00e4a	73 32		 jae	 SHORT $LN25@LoadTerrai@2
  00e4c	8b f4		 mov	 esi, esp
  00e4e	68 00 00 00 00	 push	 OFFSET $SG177140
  00e53	68 24 01 00 00	 push	 292			; 00000124H
  00e58	68 00 00 00 00	 push	 OFFSET $SG177141
  00e5d	68 00 00 00 00	 push	 OFFSET $SG177142
  00e62	6a 07		 push	 7
  00e64	ff 15 00 00 00
	00		 call	 DWORD PTR __imp_?KGLogPrintf@@YAHW4KGLOG_PRIORITY@@QBDZZ
  00e6a	83 c4 14	 add	 esp, 20			; 00000014H
  00e6d	3b f4		 cmp	 esi, esp
  00e6f	e8 00 00 00 00	 call	 __RTC_CheckEsp
  00e74	e9 e0 01 00 00	 jmp	 $Exit0$177035
  00e79	e9 db 01 00 00	 jmp	 $Exit0$177035
$LN25@LoadTerrai@2:
  00e7e	33 c0		 xor	 eax, eax
  00e80	75 be		 jne	 SHORT $LN26@LoadTerrai@2

; 293  :     uLeftBytes -= nExtDynamicCellCount * uExtDynamicCellDataSize;

  00e82	8b 4d d4	 mov	 ecx, DWORD PTR _nExtDynamicCellCount$[ebp]
  00e85	0f af 4d d0	 imul	 ecx, DWORD PTR _uExtDynamicCellDataSize$[ebp]
  00e89	8b 55 f0	 mov	 edx, DWORD PTR _uLeftBytes$[ebp]
  00e8c	2b d1		 sub	 edx, ecx
  00e8e	89 55 f0	 mov	 DWORD PTR _uLeftBytes$[ebp], edx

; 294  : 
; 295  : 	for (int nIndex = 0; nIndex < nExtDynamicCellCount; nIndex++)

  00e91	c7 45 ac 00 00
	00 00		 mov	 DWORD PTR _nIndex$177144[ebp], 0
  00e98	eb 09		 jmp	 SHORT $LN21@LoadTerrai@2
$LN20@LoadTerrai@2:
  00e9a	8b 45 ac	 mov	 eax, DWORD PTR _nIndex$177144[ebp]
  00e9d	83 c0 01	 add	 eax, 1
  00ea0	89 45 ac	 mov	 DWORD PTR _nIndex$177144[ebp], eax
$LN21@LoadTerrai@2:
  00ea3	8b 4d ac	 mov	 ecx, DWORD PTR _nIndex$177144[ebp]
  00ea6	3b 4d d4	 cmp	 ecx, DWORD PTR _nExtDynamicCellCount$[ebp]
  00ea9	0f 8d 40 01 00
	00		 jge	 $LN19@LoadTerrai@2

; 296  : 	{
; 297  :         int                 nCellX      = 0;

  00eaf	c7 45 a8 00 00
	00 00		 mov	 DWORD PTR _nCellX$177148[ebp], 0

; 298  :         int                 nCellY      = 0;

  00eb6	c7 45 a4 00 00
	00 00		 mov	 DWORD PTR _nCellY$177149[ebp], 0

; 299  :         KCell::KBaseInfo*   pBaseInfo   = NULL;

  00ebd	c7 45 a0 00 00
	00 00		 mov	 DWORD PTR _pBaseInfo$177150[ebp], 0

; 300  : 
; 301  : 		pAllocDynamicCell = KMemory::RawNew<KDynamicCell>();

  00ec4	e8 00 00 00 00	 call	 ??$RawNew@UKDynamicCell@@@KMemory@@YAPAUKDynamicCell@@XZ ; KMemory::RawNew<KDynamicCell>
  00ec9	89 45 e0	 mov	 DWORD PTR _pAllocDynamicCell$[ebp], eax
$LN18@LoadTerrai@2:

; 302  : 		KGLOG_PROCESS_ERROR(pAllocDynamicCell);

  00ecc	83 7d e0 00	 cmp	 DWORD PTR _pAllocDynamicCell$[ebp], 0
  00ed0	75 32		 jne	 SHORT $LN17@LoadTerrai@2
  00ed2	8b f4		 mov	 esi, esp
  00ed4	68 00 00 00 00	 push	 OFFSET $SG177159
  00ed9	68 2e 01 00 00	 push	 302			; 0000012eH
  00ede	68 00 00 00 00	 push	 OFFSET $SG177160
  00ee3	68 00 00 00 00	 push	 OFFSET $SG177161
  00ee8	6a 07		 push	 7
  00eea	ff 15 00 00 00
	00		 call	 DWORD PTR __imp_?KGLogPrintf@@YAHW4KGLOG_PRIORITY@@QBDZZ
  00ef0	83 c4 14	 add	 esp, 20			; 00000014H
  00ef3	3b f4		 cmp	 esi, esp
  00ef5	e8 00 00 00 00	 call	 __RTC_CheckEsp
  00efa	e9 5a 01 00 00	 jmp	 $Exit0$177035
  00eff	e9 55 01 00 00	 jmp	 $Exit0$177035
$LN17@LoadTerrai@2:
  00f04	33 d2		 xor	 edx, edx
  00f06	75 c4		 jne	 SHORT $LN18@LoadTerrai@2

; 303  : 
; 304  : 		nCellX = *(BYTE*)pbyOffset;

  00f08	8b 45 ec	 mov	 eax, DWORD PTR _pbyOffset$[ebp]
  00f0b	0f b6 08	 movzx	 ecx, BYTE PTR [eax]
  00f0e	89 4d a8	 mov	 DWORD PTR _nCellX$177148[ebp], ecx

; 305  : 		pbyOffset += sizeof(BYTE);

  00f11	8b 55 ec	 mov	 edx, DWORD PTR _pbyOffset$[ebp]
  00f14	83 c2 01	 add	 edx, 1
  00f17	89 55 ec	 mov	 DWORD PTR _pbyOffset$[ebp], edx

; 306  : 
; 307  : 		nCellY = *(BYTE*)pbyOffset;

  00f1a	8b 45 ec	 mov	 eax, DWORD PTR _pbyOffset$[ebp]
  00f1d	0f b6 08	 movzx	 ecx, BYTE PTR [eax]
  00f20	89 4d a4	 mov	 DWORD PTR _nCellY$177149[ebp], ecx

; 308  : 		pbyOffset += sizeof(BYTE);

  00f23	8b 55 ec	 mov	 edx, DWORD PTR _pbyOffset$[ebp]
  00f26	83 c2 01	 add	 edx, 1
  00f29	89 55 ec	 mov	 DWORD PTR _pbyOffset$[ebp], edx

; 309  : 
; 310  : 		pBaseInfo = (KCell::KBaseInfo*)pbyOffset;

  00f2c	8b 45 ec	 mov	 eax, DWORD PTR _pbyOffset$[ebp]
  00f2f	89 45 a0	 mov	 DWORD PTR _pBaseInfo$177150[ebp], eax

; 311  : 		pbyOffset += sizeof(KCell::KBaseInfo);

  00f32	8b 4d ec	 mov	 ecx, DWORD PTR _pbyOffset$[ebp]
  00f35	83 c1 04	 add	 ecx, 4
  00f38	89 4d ec	 mov	 DWORD PTR _pbyOffset$[ebp], ecx

; 312  : 
; 313  : 		pAllocDynamicCell->m_BaseInfo = *pBaseInfo;

  00f3b	8b 55 a0	 mov	 edx, DWORD PTR _pBaseInfo$177150[ebp]
  00f3e	8b 02		 mov	 eax, DWORD PTR [edx]
  00f40	8b 4d e0	 mov	 ecx, DWORD PTR _pAllocDynamicCell$[ebp]
  00f43	89 01		 mov	 DWORD PTR [ecx], eax

; 314  :         pAllocDynamicCell->m_BaseInfo.dwDynamic = 1;

  00f45	8b 55 e0	 mov	 edx, DWORD PTR _pAllocDynamicCell$[ebp]
  00f48	8b 02		 mov	 eax, DWORD PTR [edx]
  00f4a	0d 00 00 01 00	 or	 eax, 65536		; 00010000H
  00f4f	8b 4d e0	 mov	 ecx, DWORD PTR _pAllocDynamicCell$[ebp]
  00f52	89 01		 mov	 DWORD PTR [ecx], eax

; 315  : 
; 316  :         pAllocDynamicCell->m_wHighLayer = *(WORD*)pbyOffset;

  00f54	8b 55 e0	 mov	 edx, DWORD PTR _pAllocDynamicCell$[ebp]
  00f57	8b 45 ec	 mov	 eax, DWORD PTR _pbyOffset$[ebp]
  00f5a	66 8b 08	 mov	 cx, WORD PTR [eax]
  00f5d	66 89 4a 06	 mov	 WORD PTR [edx+6], cx

; 317  : 		pbyOffset += sizeof(WORD);

  00f61	8b 55 ec	 mov	 edx, DWORD PTR _pbyOffset$[ebp]
  00f64	83 c2 02	 add	 edx, 2
  00f67	89 55 ec	 mov	 DWORD PTR _pbyOffset$[ebp], edx

; 318  : 
; 319  :         pAllocDynamicCell->m_wLowLayer = *(WORD*)pbyOffset;

  00f6a	8b 45 e0	 mov	 eax, DWORD PTR _pAllocDynamicCell$[ebp]
  00f6d	8b 4d ec	 mov	 ecx, DWORD PTR _pbyOffset$[ebp]
  00f70	66 8b 11	 mov	 dx, WORD PTR [ecx]
  00f73	66 89 50 04	 mov	 WORD PTR [eax+4], dx

; 320  : 		pbyOffset += sizeof(WORD);

  00f77	8b 45 ec	 mov	 eax, DWORD PTR _pbyOffset$[ebp]
  00f7a	83 c0 02	 add	 eax, 2
  00f7d	89 45 ec	 mov	 DWORD PTR _pbyOffset$[ebp], eax

; 321  : 
; 322  :         pAllocDynamicCell->m_wGroupIndex = *(WORD*)pbyOffset;

  00f80	8b 4d e0	 mov	 ecx, DWORD PTR _pAllocDynamicCell$[ebp]
  00f83	8b 55 ec	 mov	 edx, DWORD PTR _pbyOffset$[ebp]
  00f86	66 8b 02	 mov	 ax, WORD PTR [edx]
  00f89	66 89 41 0c	 mov	 WORD PTR [ecx+12], ax

; 323  : 		pbyOffset += sizeof(WORD);

  00f8d	8b 4d ec	 mov	 ecx, DWORD PTR _pbyOffset$[ebp]
  00f90	83 c1 02	 add	 ecx, 2
  00f93	89 4d ec	 mov	 DWORD PTR _pbyOffset$[ebp], ecx

; 324  : 
; 325  : 		bRetCode = AddObstacle(nCellX, nCellY, pAllocDynamicCell);

  00f96	8b 55 e0	 mov	 edx, DWORD PTR _pAllocDynamicCell$[ebp]
  00f99	52		 push	 edx
  00f9a	8b 45 a4	 mov	 eax, DWORD PTR _nCellY$177149[ebp]
  00f9d	50		 push	 eax
  00f9e	8b 4d a8	 mov	 ecx, DWORD PTR _nCellX$177148[ebp]
  00fa1	51		 push	 ecx
  00fa2	8b 4d fc	 mov	 ecx, DWORD PTR _this$[ebp]
  00fa5	e8 00 00 00 00	 call	 ?AddObstacle@KRegion@@QAEHHHPAUKCell@@@Z ; KRegion::AddObstacle
  00faa	89 45 f4	 mov	 DWORD PTR _bRetCode$[ebp], eax
$LN13@LoadTerrai@2:

; 326  : 		KGLOG_PROCESS_ERROR(bRetCode);

  00fad	83 7d f4 00	 cmp	 DWORD PTR _bRetCode$[ebp], 0
  00fb1	75 2c		 jne	 SHORT $LN12@LoadTerrai@2
  00fb3	8b f4		 mov	 esi, esp
  00fb5	68 00 00 00 00	 push	 OFFSET $SG177179
  00fba	68 46 01 00 00	 push	 326			; 00000146H
  00fbf	68 00 00 00 00	 push	 OFFSET $SG177180
  00fc4	68 00 00 00 00	 push	 OFFSET $SG177181
  00fc9	6a 07		 push	 7
  00fcb	ff 15 00 00 00
	00		 call	 DWORD PTR __imp_?KGLogPrintf@@YAHW4KGLOG_PRIORITY@@QBDZZ
  00fd1	83 c4 14	 add	 esp, 20			; 00000014H
  00fd4	3b f4		 cmp	 esi, esp
  00fd6	e8 00 00 00 00	 call	 __RTC_CheckEsp
  00fdb	eb 7c		 jmp	 SHORT $Exit0$177035
  00fdd	eb 7a		 jmp	 SHORT $Exit0$177035
$LN12@LoadTerrai@2:
  00fdf	33 d2		 xor	 edx, edx
  00fe1	75 ca		 jne	 SHORT $LN13@LoadTerrai@2

; 327  : 
; 328  :         pAllocDynamicCell = NULL;

  00fe3	c7 45 e0 00 00
	00 00		 mov	 DWORD PTR _pAllocDynamicCell$[ebp], 0

; 329  : 	}

  00fea	e9 ab fe ff ff	 jmp	 $LN20@LoadTerrai@2
$LN19@LoadTerrai@2:

; 330  :     
; 331  :     
; 332  : 	if (uLeftBytes >= SCRIPT_DATA_SIZE)

  00fef	83 7d f0 40	 cmp	 DWORD PTR _uLeftBytes$[ebp], 64 ; 00000040H
  00ff3	72 27		 jb	 SHORT $LN7@LoadTerrai@2

; 333  :     {
; 334  : 	    memcpy(m_pdwScriptList, pbyOffset, SCRIPT_DATA_SIZE);

  00ff5	6a 40		 push	 64			; 00000040H
  00ff7	8b 45 ec	 mov	 eax, DWORD PTR _pbyOffset$[ebp]
  00ffa	50		 push	 eax
  00ffb	8b 4d fc	 mov	 ecx, DWORD PTR _this$[ebp]
  00ffe	8b 51 20	 mov	 edx, DWORD PTR [ecx+32]
  01001	52		 push	 edx
  01002	e8 00 00 00 00	 call	 _memcpy
  01007	83 c4 0c	 add	 esp, 12			; 0000000cH

; 335  :         pbyOffset  += SCRIPT_DATA_SIZE;

  0100a	8b 45 ec	 mov	 eax, DWORD PTR _pbyOffset$[ebp]
  0100d	83 c0 40	 add	 eax, 64			; 00000040H
  01010	89 45 ec	 mov	 DWORD PTR _pbyOffset$[ebp], eax

; 336  :         uLeftBytes -= SCRIPT_DATA_SIZE;

  01013	8b 4d f0	 mov	 ecx, DWORD PTR _uLeftBytes$[ebp]
  01016	83 e9 40	 sub	 ecx, 64			; 00000040H
  01019	89 4d f0	 mov	 DWORD PTR _uLeftBytes$[ebp], ecx
$LN7@LoadTerrai@2:

; 337  :     }
; 338  : 
; 339  :     KGLOG_PROCESS_ERROR(uLeftBytes == 0);

  0101c	83 7d f0 00	 cmp	 DWORD PTR _uLeftBytes$[ebp], 0
  01020	74 2c		 je	 SHORT $LN6@LoadTerrai@2
  01022	8b f4		 mov	 esi, esp
  01024	68 00 00 00 00	 push	 OFFSET $SG177192
  01029	68 53 01 00 00	 push	 339			; 00000153H
  0102e	68 00 00 00 00	 push	 OFFSET $SG177193
  01033	68 00 00 00 00	 push	 OFFSET $SG177194
  01038	6a 07		 push	 7
  0103a	ff 15 00 00 00
	00		 call	 DWORD PTR __imp_?KGLogPrintf@@YAHW4KGLOG_PRIORITY@@QBDZZ
  01040	83 c4 14	 add	 esp, 20			; 00000014H
  01043	3b f4		 cmp	 esi, esp
  01045	e8 00 00 00 00	 call	 __RTC_CheckEsp
  0104a	eb 0d		 jmp	 SHORT $Exit0$177035
  0104c	eb 0b		 jmp	 SHORT $Exit0$177035
$LN6@LoadTerrai@2:
  0104e	33 d2		 xor	 edx, edx
  01050	75 ca		 jne	 SHORT $LN7@LoadTerrai@2

; 340  : 
; 341  :     bResult = true;

  01052	c7 45 f8 01 00
	00 00		 mov	 DWORD PTR _bResult$[ebp], 1
$Exit0$177035:

; 342  : Exit0:
; 343  :     if (pAllocNormalCell)

  01059	83 7d e4 00	 cmp	 DWORD PTR _pAllocNormalCell$[ebp], 0
  0105d	74 13		 je	 SHORT $LN2@LoadTerrai@2

; 344  :     {
; 345  :         KMemory::RawDelete(pAllocNormalCell);

  0105f	8b 45 e4	 mov	 eax, DWORD PTR _pAllocNormalCell$[ebp]
  01062	50		 push	 eax
  01063	e8 00 00 00 00	 call	 ??$RawDelete@UKCell@@@KMemory@@YAXPAUKCell@@@Z ; KMemory::RawDelete<KCell>
  01068	83 c4 04	 add	 esp, 4

; 346  :         pAllocNormalCell = NULL;

  0106b	c7 45 e4 00 00
	00 00		 mov	 DWORD PTR _pAllocNormalCell$[ebp], 0
$LN2@LoadTerrai@2:

; 347  :     }
; 348  : 
; 349  :     if (pAllocDynamicCell)

  01072	83 7d e0 00	 cmp	 DWORD PTR _pAllocDynamicCell$[ebp], 0
  01076	74 13		 je	 SHORT $LN1@LoadTerrai@2

; 350  :     {
; 351  :         KMemory::RawDelete(pAllocDynamicCell);

  01078	8b 4d e0	 mov	 ecx, DWORD PTR _pAllocDynamicCell$[ebp]
  0107b	51		 push	 ecx
  0107c	e8 00 00 00 00	 call	 ??$RawDelete@UKDynamicCell@@@KMemory@@YAXPAUKDynamicCell@@@Z ; KMemory::RawDelete<KDynamicCell>
  01081	83 c4 04	 add	 esp, 4

; 352  :         pAllocDynamicCell = NULL;

  01084	c7 45 e0 00 00
	00 00		 mov	 DWORD PTR _pAllocDynamicCell$[ebp], 0
$LN1@LoadTerrai@2:

; 353  :     }
; 354  :     return bResult;

  0108b	8b 45 f8	 mov	 eax, DWORD PTR _bResult$[ebp]

; 355  : }

  0108e	5f		 pop	 edi
  0108f	5e		 pop	 esi
  01090	83 c4 60	 add	 esp, 96			; 00000060H
  01093	3b ec		 cmp	 ebp, esp
  01095	e8 00 00 00 00	 call	 __RTC_CheckEsp
  0109a	8b e5		 mov	 esp, ebp
  0109c	5d		 pop	 ebp
  0109d	c2 08 00	 ret	 8
?LoadTerrainBufferV7@KRegion@@QAEHPBEI@Z ENDP		; KRegion::LoadTerrainBufferV7
_TEXT	ENDS
PUBLIC	?CheckUpdate@KRegion@@QAEHQBDPAEI@Z		; KRegion::CheckUpdate
PUBLIC	__$ArrayPad$
PUBLIC	?SaveTerrain@KRegion@@QAEHXZ			; KRegion::SaveTerrain
EXTRN	__imp__fclose:PROC
EXTRN	__imp__fwrite:PROC
EXTRN	__imp__fopen:PROC
EXTRN	__imp__mkdir:PROC
EXTRN	__imp__g_GetRootPath:PROC
; Function compile flags: /Odtp /RTCsu
_TEXT	SEGMENT
_pwGroupIndex$177298 = -664				; size = 4
_pwHighLayer$177297 = -660				; size = 4
_pwLowLayer$177296 = -656				; size = 4
_pBaseInfo$177295 = -652				; size = 4
_pCell$177294 = -648					; size = 4
_nCellX$177290 = -644					; size = 4
_nCellY$177286 = -640					; size = 4
_pExtendCell$177248 = -636				; size = 4
_pBaseCell$177247 = -632				; size = 4
_nCellX$177243 = -628					; size = 4
_nCellY$177239 = -624					; size = 4
_szPath$ = -616						; size = 260
_szRoot$ = -348						; size = 260
_pFile$ = -84						; size = 4
_pdwScriptData$ = -80					; size = 4
_pbyExtDynamicCellData$ = -76				; size = 4
_pbyExtNormalCellData$ = -72				; size = 4
_pnExtDynamicCellCount$ = -68				; size = 4
_pnExtNormalCellCount$ = -64				; size = 4
_pbyBaseCellData$ = -60					; size = 4
_pRegionHeader$ = -56					; size = 4
_pbyBuffer$ = -52					; size = 4
_piBuffer$ = -48					; size = 4
_nExtendDynamicCellCount$ = -44				; size = 4
_nExtendNormalCellCount$ = -40				; size = 4
_uExtDynamicCellDataSize$ = -36				; size = 4
_uExtNormalCellDataSize$ = -32				; size = 4
_uBaseCellDataSize$ = -28				; size = 4
_uWriteNum$ = -24					; size = 4
_uDataLen$ = -20					; size = 4
_nRetCode$ = -16					; size = 4
_bResult$ = -12						; size = 4
_this$ = -8						; size = 4
__$ArrayPad$ = -4					; size = 4
?SaveTerrain@KRegion@@QAEHXZ PROC			; KRegion::SaveTerrain
; _this$ = ecx

; 358  : {

  010a0	55		 push	 ebp
  010a1	8b ec		 mov	 ebp, esp
  010a3	81 ec 98 02 00
	00		 sub	 esp, 664		; 00000298H
  010a9	56		 push	 esi
  010aa	57		 push	 edi
  010ab	51		 push	 ecx
  010ac	8d bd 68 fd ff
	ff		 lea	 edi, DWORD PTR [ebp-664]
  010b2	b9 a6 00 00 00	 mov	 ecx, 166		; 000000a6H
  010b7	b8 cc cc cc cc	 mov	 eax, -858993460		; ccccccccH
  010bc	f3 ab		 rep stosd
  010be	59		 pop	 ecx
  010bf	a1 00 00 00 00	 mov	 eax, DWORD PTR ___security_cookie
  010c4	33 c5		 xor	 eax, ebp
  010c6	89 45 fc	 mov	 DWORD PTR __$ArrayPad$[ebp], eax
  010c9	89 4d f8	 mov	 DWORD PTR _this$[ebp], ecx

; 359  :     BOOL            bResult                 = false;

  010cc	c7 45 f4 00 00
	00 00		 mov	 DWORD PTR _bResult$[ebp], 0

; 360  : 	int             nRetCode                = false;

  010d3	c7 45 f0 00 00
	00 00		 mov	 DWORD PTR _nRetCode$[ebp], 0

; 361  :     size_t          uDataLen                = 0;

  010da	c7 45 ec 00 00
	00 00		 mov	 DWORD PTR _uDataLen$[ebp], 0

; 362  : 	size_t          uWriteNum               = 0;

  010e1	c7 45 e8 00 00
	00 00		 mov	 DWORD PTR _uWriteNum$[ebp], 0

; 363  :     size_t          uBaseCellDataSize       = sizeof(KCell::KBaseInfo) + sizeof(WORD);

  010e8	c7 45 e4 06 00
	00 00		 mov	 DWORD PTR _uBaseCellDataSize$[ebp], 6

; 364  :     size_t          uExtNormalCellDataSize  = sizeof(BYTE) * 2 + sizeof(KCell::KBaseInfo) + sizeof(WORD) * 2;

  010ef	c7 45 e0 0a 00
	00 00		 mov	 DWORD PTR _uExtNormalCellDataSize$[ebp], 10 ; 0000000aH

; 365  :     size_t          uExtDynamicCellDataSize = sizeof(BYTE) * 2 + sizeof(KCell::KBaseInfo) + sizeof(WORD) * 2 + sizeof(WORD);

  010f6	c7 45 dc 0c 00
	00 00		 mov	 DWORD PTR _uExtDynamicCellDataSize$[ebp], 12 ; 0000000cH

; 366  :     int             nExtendNormalCellCount  = 0;

  010fd	c7 45 d8 00 00
	00 00		 mov	 DWORD PTR _nExtendNormalCellCount$[ebp], 0

; 367  :     int             nExtendDynamicCellCount = 0;

  01104	c7 45 d4 00 00
	00 00		 mov	 DWORD PTR _nExtendDynamicCellCount$[ebp], 0

; 368  :     IKG_Buffer*     piBuffer                = NULL;

  0110b	c7 45 d0 00 00
	00 00		 mov	 DWORD PTR _piBuffer$[ebp], 0

; 369  :     BYTE*           pbyBuffer               = NULL;

  01112	c7 45 cc 00 00
	00 00		 mov	 DWORD PTR _pbyBuffer$[ebp], 0

; 370  : 	KRegionHeader*  pRegionHeader           = NULL;

  01119	c7 45 c8 00 00
	00 00		 mov	 DWORD PTR _pRegionHeader$[ebp], 0

; 371  :     BYTE*           pbyBaseCellData         = NULL;

  01120	c7 45 c4 00 00
	00 00		 mov	 DWORD PTR _pbyBaseCellData$[ebp], 0

; 372  :     int*            pnExtNormalCellCount    = NULL;

  01127	c7 45 c0 00 00
	00 00		 mov	 DWORD PTR _pnExtNormalCellCount$[ebp], 0

; 373  :     int*            pnExtDynamicCellCount   = NULL;

  0112e	c7 45 bc 00 00
	00 00		 mov	 DWORD PTR _pnExtDynamicCellCount$[ebp], 0

; 374  :     BYTE*           pbyExtNormalCellData    = NULL;

  01135	c7 45 b8 00 00
	00 00		 mov	 DWORD PTR _pbyExtNormalCellData$[ebp], 0

; 375  :     BYTE*           pbyExtDynamicCellData   = NULL;

  0113c	c7 45 b4 00 00
	00 00		 mov	 DWORD PTR _pbyExtDynamicCellData$[ebp], 0

; 376  :     DWORD*          pdwScriptData           = NULL;

  01143	c7 45 b0 00 00
	00 00		 mov	 DWORD PTR _pdwScriptData$[ebp], 0

; 377  :     FILE*           pFile                   = NULL;

  0114a	c7 45 ac 00 00
	00 00		 mov	 DWORD PTR _pFile$[ebp], 0

; 378  :     char            szRoot[MAX_PATH];
; 379  : 	char            szPath[MAX_PATH];
; 380  : 
; 381  : 	for (int nCellY = 0; nCellY < REGION_GRID_HEIGHT; nCellY++)

  01151	c7 85 90 fd ff
	ff 00 00 00 00	 mov	 DWORD PTR _nCellY$177239[ebp], 0
  0115b	eb 0f		 jmp	 SHORT $LN70@SaveTerrai
$LN69@SaveTerrai:
  0115d	8b 85 90 fd ff
	ff		 mov	 eax, DWORD PTR _nCellY$177239[ebp]
  01163	83 c0 01	 add	 eax, 1
  01166	89 85 90 fd ff
	ff		 mov	 DWORD PTR _nCellY$177239[ebp], eax
$LN70@SaveTerrai:
  0116c	83 bd 90 fd ff
	ff 40		 cmp	 DWORD PTR _nCellY$177239[ebp], 64 ; 00000040H
  01173	0f 8d 97 00 00
	00		 jge	 $LN68@SaveTerrai

; 382  : 	{
; 383  : 		for (int nCellX = 0; nCellX < REGION_GRID_WIDTH; nCellX++)

  01179	c7 85 8c fd ff
	ff 00 00 00 00	 mov	 DWORD PTR _nCellX$177243[ebp], 0
  01183	eb 0f		 jmp	 SHORT $LN67@SaveTerrai
$LN66@SaveTerrai:
  01185	8b 8d 8c fd ff
	ff		 mov	 ecx, DWORD PTR _nCellX$177243[ebp]
  0118b	83 c1 01	 add	 ecx, 1
  0118e	89 8d 8c fd ff
	ff		 mov	 DWORD PTR _nCellX$177243[ebp], ecx
$LN67@SaveTerrai:
  01194	83 bd 8c fd ff
	ff 40		 cmp	 DWORD PTR _nCellX$177243[ebp], 64 ; 00000040H
  0119b	7d 6e		 jge	 SHORT $LN65@SaveTerrai

; 384  : 		{
; 385  : 			KCell* pBaseCell    = GetLowestObstacle(nCellX, nCellY);

  0119d	8b 95 90 fd ff
	ff		 mov	 edx, DWORD PTR _nCellY$177239[ebp]
  011a3	52		 push	 edx
  011a4	8b 85 8c fd ff
	ff		 mov	 eax, DWORD PTR _nCellX$177243[ebp]
  011aa	50		 push	 eax
  011ab	8b 4d f8	 mov	 ecx, DWORD PTR _this$[ebp]
  011ae	e8 00 00 00 00	 call	 ?GetLowestObstacle@KRegion@@QAEPAUKCell@@HH@Z ; KRegion::GetLowestObstacle
  011b3	89 85 88 fd ff
	ff		 mov	 DWORD PTR _pBaseCell$177247[ebp], eax

; 386  :             KCell* pExtendCell  = pBaseCell->m_pNext;

  011b9	8b 8d 88 fd ff
	ff		 mov	 ecx, DWORD PTR _pBaseCell$177247[ebp]
  011bf	8b 51 08	 mov	 edx, DWORD PTR [ecx+8]
  011c2	89 95 84 fd ff
	ff		 mov	 DWORD PTR _pExtendCell$177248[ebp], edx
$LN64@SaveTerrai:

; 387  : 
; 388  :             while (pExtendCell)

  011c8	83 bd 84 fd ff
	ff 00		 cmp	 DWORD PTR _pExtendCell$177248[ebp], 0
  011cf	74 35		 je	 SHORT $LN63@SaveTerrai

; 389  :             {
; 390  :                 if (pExtendCell->m_BaseInfo.dwDynamic)

  011d1	8b 85 84 fd ff
	ff		 mov	 eax, DWORD PTR _pExtendCell$177248[ebp]
  011d7	8b 08		 mov	 ecx, DWORD PTR [eax]
  011d9	c1 e9 10	 shr	 ecx, 16			; 00000010H
  011dc	83 e1 01	 and	 ecx, 1
  011df	74 0b		 je	 SHORT $LN62@SaveTerrai

; 391  :                 {
; 392  :                     nExtendDynamicCellCount++;

  011e1	8b 55 d4	 mov	 edx, DWORD PTR _nExtendDynamicCellCount$[ebp]
  011e4	83 c2 01	 add	 edx, 1
  011e7	89 55 d4	 mov	 DWORD PTR _nExtendDynamicCellCount$[ebp], edx

; 393  :                 }
; 394  :                 else

  011ea	eb 09		 jmp	 SHORT $LN61@SaveTerrai
$LN62@SaveTerrai:

; 395  :                 {
; 396  :                     nExtendNormalCellCount++;

  011ec	8b 45 d8	 mov	 eax, DWORD PTR _nExtendNormalCellCount$[ebp]
  011ef	83 c0 01	 add	 eax, 1
  011f2	89 45 d8	 mov	 DWORD PTR _nExtendNormalCellCount$[ebp], eax
$LN61@SaveTerrai:

; 397  :                 }
; 398  : 
; 399  :                 pExtendCell = pExtendCell->m_pNext;

  011f5	8b 8d 84 fd ff
	ff		 mov	 ecx, DWORD PTR _pExtendCell$177248[ebp]
  011fb	8b 51 08	 mov	 edx, DWORD PTR [ecx+8]
  011fe	89 95 84 fd ff
	ff		 mov	 DWORD PTR _pExtendCell$177248[ebp], edx

; 400  :             }

  01204	eb c2		 jmp	 SHORT $LN64@SaveTerrai
$LN63@SaveTerrai:

; 401  : 		}

  01206	e9 7a ff ff ff	 jmp	 $LN66@SaveTerrai
$LN65@SaveTerrai:

; 402  : 	}

  0120b	e9 4d ff ff ff	 jmp	 $LN69@SaveTerrai
$LN68@SaveTerrai:

; 403  : 
; 404  :     uDataLen += sizeof(KRegionHeader);

  01210	8b 45 ec	 mov	 eax, DWORD PTR _uDataLen$[ebp]
  01213	83 c0 10	 add	 eax, 16			; 00000010H
  01216	89 45 ec	 mov	 DWORD PTR _uDataLen$[ebp], eax

; 405  :     uDataLen += uBaseCellDataSize * REGION_GRID_WIDTH * REGION_GRID_HEIGHT;

  01219	8b 4d e4	 mov	 ecx, DWORD PTR _uBaseCellDataSize$[ebp]
  0121c	c1 e1 06	 shl	 ecx, 6
  0121f	c1 e1 06	 shl	 ecx, 6
  01222	03 4d ec	 add	 ecx, DWORD PTR _uDataLen$[ebp]
  01225	89 4d ec	 mov	 DWORD PTR _uDataLen$[ebp], ecx

; 406  :     uDataLen += sizeof(int);

  01228	8b 55 ec	 mov	 edx, DWORD PTR _uDataLen$[ebp]
  0122b	83 c2 04	 add	 edx, 4
  0122e	89 55 ec	 mov	 DWORD PTR _uDataLen$[ebp], edx

; 407  :     uDataLen += uExtNormalCellDataSize * nExtendNormalCellCount;

  01231	8b 45 e0	 mov	 eax, DWORD PTR _uExtNormalCellDataSize$[ebp]
  01234	0f af 45 d8	 imul	 eax, DWORD PTR _nExtendNormalCellCount$[ebp]
  01238	03 45 ec	 add	 eax, DWORD PTR _uDataLen$[ebp]
  0123b	89 45 ec	 mov	 DWORD PTR _uDataLen$[ebp], eax

; 408  :     uDataLen += sizeof(int);

  0123e	8b 4d ec	 mov	 ecx, DWORD PTR _uDataLen$[ebp]
  01241	83 c1 04	 add	 ecx, 4
  01244	89 4d ec	 mov	 DWORD PTR _uDataLen$[ebp], ecx

; 409  :     uDataLen += uExtDynamicCellDataSize * nExtendDynamicCellCount;

  01247	8b 55 dc	 mov	 edx, DWORD PTR _uExtDynamicCellDataSize$[ebp]
  0124a	0f af 55 d4	 imul	 edx, DWORD PTR _nExtendDynamicCellCount$[ebp]
  0124e	03 55 ec	 add	 edx, DWORD PTR _uDataLen$[ebp]
  01251	89 55 ec	 mov	 DWORD PTR _uDataLen$[ebp], edx

; 410  :     uDataLen += SCRIPT_DATA_SIZE;

  01254	8b 45 ec	 mov	 eax, DWORD PTR _uDataLen$[ebp]
  01257	83 c0 40	 add	 eax, 64			; 00000040H
  0125a	89 45 ec	 mov	 DWORD PTR _uDataLen$[ebp], eax

; 411  : 
; 412  :     piBuffer = KG_MemoryCreateBuffer((unsigned)uDataLen);

  0125d	8b 4d ec	 mov	 ecx, DWORD PTR _uDataLen$[ebp]
  01260	51		 push	 ecx
  01261	e8 00 00 00 00	 call	 ?KG_MemoryCreateBuffer@@YAPAUIKG_Buffer@@I@Z ; KG_MemoryCreateBuffer
  01266	83 c4 04	 add	 esp, 4
  01269	89 45 d0	 mov	 DWORD PTR _piBuffer$[ebp], eax
$LN60@SaveTerrai:

; 413  :     KGLOG_PROCESS_ERROR(piBuffer);

  0126c	83 7d d0 00	 cmp	 DWORD PTR _piBuffer$[ebp], 0
  01270	75 32		 jne	 SHORT $LN59@SaveTerrai
  01272	8b f4		 mov	 esi, esp
  01274	68 00 00 00 00	 push	 OFFSET $SG177263
  01279	68 9d 01 00 00	 push	 413			; 0000019dH
  0127e	68 00 00 00 00	 push	 OFFSET $SG177264
  01283	68 00 00 00 00	 push	 OFFSET $SG177265
  01288	6a 07		 push	 7
  0128a	ff 15 00 00 00
	00		 call	 DWORD PTR __imp_?KGLogPrintf@@YAHW4KGLOG_PRIORITY@@QBDZZ
  01290	83 c4 14	 add	 esp, 20			; 00000014H
  01293	3b f4		 cmp	 esi, esp
  01295	e8 00 00 00 00	 call	 __RTC_CheckEsp
  0129a	e9 c6 06 00 00	 jmp	 $Exit0$177266
  0129f	e9 c1 06 00 00	 jmp	 $Exit0$177266
$LN59@SaveTerrai:
  012a4	33 d2		 xor	 edx, edx
  012a6	75 c4		 jne	 SHORT $LN60@SaveTerrai

; 414  : 
; 415  :     pbyBuffer = (BYTE*)piBuffer->GetData();

  012a8	8b 45 d0	 mov	 eax, DWORD PTR _piBuffer$[ebp]
  012ab	8b 10		 mov	 edx, DWORD PTR [eax]
  012ad	8b f4		 mov	 esi, esp
  012af	8b 4d d0	 mov	 ecx, DWORD PTR _piBuffer$[ebp]
  012b2	8b 42 0c	 mov	 eax, DWORD PTR [edx+12]
  012b5	ff d0		 call	 eax
  012b7	3b f4		 cmp	 esi, esp
  012b9	e8 00 00 00 00	 call	 __RTC_CheckEsp
  012be	89 45 cc	 mov	 DWORD PTR _pbyBuffer$[ebp], eax
$LN55@SaveTerrai:

; 416  :     KGLOG_PROCESS_ERROR(pbyBuffer);

  012c1	83 7d cc 00	 cmp	 DWORD PTR _pbyBuffer$[ebp], 0
  012c5	75 32		 jne	 SHORT $LN54@SaveTerrai
  012c7	8b f4		 mov	 esi, esp
  012c9	68 00 00 00 00	 push	 OFFSET $SG177273
  012ce	68 a0 01 00 00	 push	 416			; 000001a0H
  012d3	68 00 00 00 00	 push	 OFFSET $SG177274
  012d8	68 00 00 00 00	 push	 OFFSET $SG177275
  012dd	6a 07		 push	 7
  012df	ff 15 00 00 00
	00		 call	 DWORD PTR __imp_?KGLogPrintf@@YAHW4KGLOG_PRIORITY@@QBDZZ
  012e5	83 c4 14	 add	 esp, 20			; 00000014H
  012e8	3b f4		 cmp	 esi, esp
  012ea	e8 00 00 00 00	 call	 __RTC_CheckEsp
  012ef	e9 71 06 00 00	 jmp	 $Exit0$177266
  012f4	e9 6c 06 00 00	 jmp	 $Exit0$177266
$LN54@SaveTerrai:
  012f9	33 c9		 xor	 ecx, ecx
  012fb	75 c4		 jne	 SHORT $LN55@SaveTerrai

; 417  : 
; 418  :     pRegionHeader = (KRegionHeader*)pbyBuffer;

  012fd	8b 55 cc	 mov	 edx, DWORD PTR _pbyBuffer$[ebp]
  01300	89 55 c8	 mov	 DWORD PTR _pRegionHeader$[ebp], edx

; 419  :     pbyBaseCellData = pbyBuffer + sizeof(KRegionHeader);

  01303	8b 45 cc	 mov	 eax, DWORD PTR _pbyBuffer$[ebp]
  01306	83 c0 10	 add	 eax, 16			; 00000010H
  01309	89 45 c4	 mov	 DWORD PTR _pbyBaseCellData$[ebp], eax

; 420  :     pnExtNormalCellCount = (int*)(pbyBaseCellData + uBaseCellDataSize * REGION_GRID_WIDTH * REGION_GRID_HEIGHT);

  0130c	8b 4d e4	 mov	 ecx, DWORD PTR _uBaseCellDataSize$[ebp]
  0130f	c1 e1 06	 shl	 ecx, 6
  01312	c1 e1 06	 shl	 ecx, 6
  01315	03 4d c4	 add	 ecx, DWORD PTR _pbyBaseCellData$[ebp]
  01318	89 4d c0	 mov	 DWORD PTR _pnExtNormalCellCount$[ebp], ecx

; 421  :     pbyExtNormalCellData = (BYTE*)pnExtNormalCellCount + sizeof(int);

  0131b	8b 55 c0	 mov	 edx, DWORD PTR _pnExtNormalCellCount$[ebp]
  0131e	83 c2 04	 add	 edx, 4
  01321	89 55 b8	 mov	 DWORD PTR _pbyExtNormalCellData$[ebp], edx

; 422  :     pnExtDynamicCellCount = (int*)(pbyExtNormalCellData + uExtNormalCellDataSize * nExtendNormalCellCount);

  01324	8b 45 e0	 mov	 eax, DWORD PTR _uExtNormalCellDataSize$[ebp]
  01327	0f af 45 d8	 imul	 eax, DWORD PTR _nExtendNormalCellCount$[ebp]
  0132b	03 45 b8	 add	 eax, DWORD PTR _pbyExtNormalCellData$[ebp]
  0132e	89 45 bc	 mov	 DWORD PTR _pnExtDynamicCellCount$[ebp], eax

; 423  :     pbyExtDynamicCellData = (BYTE*)pnExtDynamicCellCount + sizeof(int);

  01331	8b 4d bc	 mov	 ecx, DWORD PTR _pnExtDynamicCellCount$[ebp]
  01334	83 c1 04	 add	 ecx, 4
  01337	89 4d b4	 mov	 DWORD PTR _pbyExtDynamicCellData$[ebp], ecx

; 424  :     pdwScriptData = (DWORD*)(pbyExtDynamicCellData + uExtDynamicCellDataSize * nExtendDynamicCellCount);

  0133a	8b 55 dc	 mov	 edx, DWORD PTR _uExtDynamicCellDataSize$[ebp]
  0133d	0f af 55 d4	 imul	 edx, DWORD PTR _nExtendDynamicCellCount$[ebp]
  01341	03 55 b4	 add	 edx, DWORD PTR _pbyExtDynamicCellData$[ebp]
  01344	89 55 b0	 mov	 DWORD PTR _pdwScriptData$[ebp], edx

; 425  : 
; 426  : 	pRegionHeader->nVersion     = eTerrainDataVersion7;

  01347	8b 45 c8	 mov	 eax, DWORD PTR _pRegionHeader$[ebp]
  0134a	c7 00 07 00 00
	00		 mov	 DWORD PTR [eax], 7

; 427  : 	pRegionHeader->nRegionX     = m_nRegionX;

  01350	8b 4d c8	 mov	 ecx, DWORD PTR _pRegionHeader$[ebp]
  01353	8b 55 f8	 mov	 edx, DWORD PTR _this$[ebp]
  01356	8b 42 10	 mov	 eax, DWORD PTR [edx+16]
  01359	89 41 04	 mov	 DWORD PTR [ecx+4], eax

; 428  : 	pRegionHeader->nRegionY     = m_nRegionY;

  0135c	8b 4d c8	 mov	 ecx, DWORD PTR _pRegionHeader$[ebp]
  0135f	8b 55 f8	 mov	 edx, DWORD PTR _this$[ebp]
  01362	8b 42 14	 mov	 eax, DWORD PTR [edx+20]
  01365	89 41 08	 mov	 DWORD PTR [ecx+8], eax

; 429  : 	pRegionHeader->nReserved    = 0;

  01368	8b 4d c8	 mov	 ecx, DWORD PTR _pRegionHeader$[ebp]
  0136b	c7 41 0c 00 00
	00 00		 mov	 DWORD PTR [ecx+12], 0

; 430  : 
; 431  : 	for (int nCellY = 0; nCellY < REGION_GRID_HEIGHT; nCellY++)

  01372	c7 85 80 fd ff
	ff 00 00 00 00	 mov	 DWORD PTR _nCellY$177286[ebp], 0
  0137c	eb 0f		 jmp	 SHORT $LN50@SaveTerrai
$LN49@SaveTerrai:
  0137e	8b 95 80 fd ff
	ff		 mov	 edx, DWORD PTR _nCellY$177286[ebp]
  01384	83 c2 01	 add	 edx, 1
  01387	89 95 80 fd ff
	ff		 mov	 DWORD PTR _nCellY$177286[ebp], edx
$LN50@SaveTerrai:
  0138d	83 bd 80 fd ff
	ff 40		 cmp	 DWORD PTR _nCellY$177286[ebp], 64 ; 00000040H
  01394	0f 8d 53 02 00
	00		 jge	 $LN48@SaveTerrai

; 432  : 	{
; 433  : 		for (int nCellX = 0; nCellX < REGION_GRID_WIDTH; nCellX++)

  0139a	c7 85 7c fd ff
	ff 00 00 00 00	 mov	 DWORD PTR _nCellX$177290[ebp], 0
  013a4	eb 0f		 jmp	 SHORT $LN47@SaveTerrai
$LN46@SaveTerrai:
  013a6	8b 85 7c fd ff
	ff		 mov	 eax, DWORD PTR _nCellX$177290[ebp]
  013ac	83 c0 01	 add	 eax, 1
  013af	89 85 7c fd ff
	ff		 mov	 DWORD PTR _nCellX$177290[ebp], eax
$LN47@SaveTerrai:
  013b5	83 bd 7c fd ff
	ff 40		 cmp	 DWORD PTR _nCellX$177290[ebp], 64 ; 00000040H
  013bc	0f 8d 26 02 00
	00		 jge	 $LN45@SaveTerrai

; 434  : 		{
; 435  : 			KCell*              pCell           = GetLowestObstacle(nCellX, nCellY);

  013c2	8b 8d 80 fd ff
	ff		 mov	 ecx, DWORD PTR _nCellY$177286[ebp]
  013c8	51		 push	 ecx
  013c9	8b 95 7c fd ff
	ff		 mov	 edx, DWORD PTR _nCellX$177290[ebp]
  013cf	52		 push	 edx
  013d0	8b 4d f8	 mov	 ecx, DWORD PTR _this$[ebp]
  013d3	e8 00 00 00 00	 call	 ?GetLowestObstacle@KRegion@@QAEPAUKCell@@HH@Z ; KRegion::GetLowestObstacle
  013d8	89 85 78 fd ff
	ff		 mov	 DWORD PTR _pCell$177294[ebp], eax

; 436  :             KCell::KBaseInfo*   pBaseInfo       = NULL;

  013de	c7 85 74 fd ff
	ff 00 00 00 00	 mov	 DWORD PTR _pBaseInfo$177295[ebp], 0

; 437  :             WORD*               pwLowLayer      = NULL;

  013e8	c7 85 70 fd ff
	ff 00 00 00 00	 mov	 DWORD PTR _pwLowLayer$177296[ebp], 0

; 438  :             WORD*               pwHighLayer     = NULL;

  013f2	c7 85 6c fd ff
	ff 00 00 00 00	 mov	 DWORD PTR _pwHighLayer$177297[ebp], 0

; 439  :             WORD*               pwGroupIndex    = NULL;

  013fc	c7 85 68 fd ff
	ff 00 00 00 00	 mov	 DWORD PTR _pwGroupIndex$177298[ebp], 0

; 440  : 
; 441  :             pBaseInfo = (KCell::KBaseInfo*)pbyBaseCellData;

  01406	8b 45 c4	 mov	 eax, DWORD PTR _pbyBaseCellData$[ebp]
  01409	89 85 74 fd ff
	ff		 mov	 DWORD PTR _pBaseInfo$177295[ebp], eax

; 442  :             pbyBaseCellData+= sizeof(KCell::KBaseInfo);

  0140f	8b 4d c4	 mov	 ecx, DWORD PTR _pbyBaseCellData$[ebp]
  01412	83 c1 04	 add	 ecx, 4
  01415	89 4d c4	 mov	 DWORD PTR _pbyBaseCellData$[ebp], ecx

; 443  :             *pBaseInfo = pCell->m_BaseInfo;

  01418	8b 95 78 fd ff
	ff		 mov	 edx, DWORD PTR _pCell$177294[ebp]
  0141e	8b 02		 mov	 eax, DWORD PTR [edx]
  01420	8b 8d 74 fd ff
	ff		 mov	 ecx, DWORD PTR _pBaseInfo$177295[ebp]
  01426	89 01		 mov	 DWORD PTR [ecx], eax

; 444  : 
; 445  :             pwHighLayer = (WORD*)pbyBaseCellData;

  01428	8b 55 c4	 mov	 edx, DWORD PTR _pbyBaseCellData$[ebp]
  0142b	89 95 6c fd ff
	ff		 mov	 DWORD PTR _pwHighLayer$177297[ebp], edx

; 446  :             pbyBaseCellData += sizeof(WORD);

  01431	8b 45 c4	 mov	 eax, DWORD PTR _pbyBaseCellData$[ebp]
  01434	83 c0 02	 add	 eax, 2
  01437	89 45 c4	 mov	 DWORD PTR _pbyBaseCellData$[ebp], eax

; 447  :             *pwHighLayer = pCell->m_wHighLayer;

  0143a	8b 8d 6c fd ff
	ff		 mov	 ecx, DWORD PTR _pwHighLayer$177297[ebp]
  01440	8b 95 78 fd ff
	ff		 mov	 edx, DWORD PTR _pCell$177294[ebp]
  01446	66 8b 42 06	 mov	 ax, WORD PTR [edx+6]
  0144a	66 89 01	 mov	 WORD PTR [ecx], ax

; 448  :          
; 449  :             pCell = pCell->m_pNext;

  0144d	8b 8d 78 fd ff
	ff		 mov	 ecx, DWORD PTR _pCell$177294[ebp]
  01453	8b 51 08	 mov	 edx, DWORD PTR [ecx+8]
  01456	89 95 78 fd ff
	ff		 mov	 DWORD PTR _pCell$177294[ebp], edx
$LN44@SaveTerrai:

; 450  : 
; 451  :             while (pCell)

  0145c	83 bd 78 fd ff
	ff 00		 cmp	 DWORD PTR _pCell$177294[ebp], 0
  01463	0f 84 7a 01 00
	00		 je	 $LN43@SaveTerrai

; 452  :             {
; 453  :                 if (pCell->m_BaseInfo.dwDynamic)

  01469	8b 85 78 fd ff
	ff		 mov	 eax, DWORD PTR _pCell$177294[ebp]
  0146f	8b 08		 mov	 ecx, DWORD PTR [eax]
  01471	c1 e9 10	 shr	 ecx, 16			; 00000010H
  01474	83 e1 01	 and	 ecx, 1
  01477	0f 84 be 00 00
	00		 je	 $LN42@SaveTerrai

; 454  :                 {
; 455  :                     *pbyExtDynamicCellData = (BYTE)nCellX;

  0147d	8b 55 b4	 mov	 edx, DWORD PTR _pbyExtDynamicCellData$[ebp]
  01480	8a 85 7c fd ff
	ff		 mov	 al, BYTE PTR _nCellX$177290[ebp]
  01486	88 02		 mov	 BYTE PTR [edx], al

; 456  :                     pbyExtDynamicCellData++;

  01488	8b 4d b4	 mov	 ecx, DWORD PTR _pbyExtDynamicCellData$[ebp]
  0148b	83 c1 01	 add	 ecx, 1
  0148e	89 4d b4	 mov	 DWORD PTR _pbyExtDynamicCellData$[ebp], ecx

; 457  : 
; 458  :                     *pbyExtDynamicCellData = (BYTE)nCellY;

  01491	8b 55 b4	 mov	 edx, DWORD PTR _pbyExtDynamicCellData$[ebp]
  01494	8a 85 80 fd ff
	ff		 mov	 al, BYTE PTR _nCellY$177286[ebp]
  0149a	88 02		 mov	 BYTE PTR [edx], al

; 459  :                     pbyExtDynamicCellData++;

  0149c	8b 4d b4	 mov	 ecx, DWORD PTR _pbyExtDynamicCellData$[ebp]
  0149f	83 c1 01	 add	 ecx, 1
  014a2	89 4d b4	 mov	 DWORD PTR _pbyExtDynamicCellData$[ebp], ecx

; 460  : 
; 461  :                     pBaseInfo = (KCell::KBaseInfo*)pbyExtDynamicCellData;

  014a5	8b 55 b4	 mov	 edx, DWORD PTR _pbyExtDynamicCellData$[ebp]
  014a8	89 95 74 fd ff
	ff		 mov	 DWORD PTR _pBaseInfo$177295[ebp], edx

; 462  :                     pbyExtDynamicCellData += sizeof(KCell::KBaseInfo);

  014ae	8b 45 b4	 mov	 eax, DWORD PTR _pbyExtDynamicCellData$[ebp]
  014b1	83 c0 04	 add	 eax, 4
  014b4	89 45 b4	 mov	 DWORD PTR _pbyExtDynamicCellData$[ebp], eax

; 463  :                     *pBaseInfo = pCell->m_BaseInfo;

  014b7	8b 8d 78 fd ff
	ff		 mov	 ecx, DWORD PTR _pCell$177294[ebp]
  014bd	8b 11		 mov	 edx, DWORD PTR [ecx]
  014bf	8b 85 74 fd ff
	ff		 mov	 eax, DWORD PTR _pBaseInfo$177295[ebp]
  014c5	89 10		 mov	 DWORD PTR [eax], edx

; 464  : 
; 465  :                     pwHighLayer = (WORD*)pbyExtDynamicCellData;

  014c7	8b 4d b4	 mov	 ecx, DWORD PTR _pbyExtDynamicCellData$[ebp]
  014ca	89 8d 6c fd ff
	ff		 mov	 DWORD PTR _pwHighLayer$177297[ebp], ecx

; 466  :                     pbyExtDynamicCellData += sizeof(WORD);

  014d0	8b 55 b4	 mov	 edx, DWORD PTR _pbyExtDynamicCellData$[ebp]
  014d3	83 c2 02	 add	 edx, 2
  014d6	89 55 b4	 mov	 DWORD PTR _pbyExtDynamicCellData$[ebp], edx

; 467  :                     *pwHighLayer = pCell->m_wHighLayer;

  014d9	8b 85 6c fd ff
	ff		 mov	 eax, DWORD PTR _pwHighLayer$177297[ebp]
  014df	8b 8d 78 fd ff
	ff		 mov	 ecx, DWORD PTR _pCell$177294[ebp]
  014e5	66 8b 51 06	 mov	 dx, WORD PTR [ecx+6]
  014e9	66 89 10	 mov	 WORD PTR [eax], dx

; 468  : 
; 469  :                     pwLowLayer = (WORD*)pbyExtDynamicCellData;

  014ec	8b 45 b4	 mov	 eax, DWORD PTR _pbyExtDynamicCellData$[ebp]
  014ef	89 85 70 fd ff
	ff		 mov	 DWORD PTR _pwLowLayer$177296[ebp], eax

; 470  :                     pbyExtDynamicCellData += sizeof(WORD);

  014f5	8b 4d b4	 mov	 ecx, DWORD PTR _pbyExtDynamicCellData$[ebp]
  014f8	83 c1 02	 add	 ecx, 2
  014fb	89 4d b4	 mov	 DWORD PTR _pbyExtDynamicCellData$[ebp], ecx

; 471  :                     *pwLowLayer = pCell->m_wLowLayer;

  014fe	8b 95 70 fd ff
	ff		 mov	 edx, DWORD PTR _pwLowLayer$177296[ebp]
  01504	8b 85 78 fd ff
	ff		 mov	 eax, DWORD PTR _pCell$177294[ebp]
  0150a	66 8b 48 04	 mov	 cx, WORD PTR [eax+4]
  0150e	66 89 0a	 mov	 WORD PTR [edx], cx

; 472  : 
; 473  :                     pwGroupIndex = (WORD*)pbyExtDynamicCellData;

  01511	8b 55 b4	 mov	 edx, DWORD PTR _pbyExtDynamicCellData$[ebp]
  01514	89 95 68 fd ff
	ff		 mov	 DWORD PTR _pwGroupIndex$177298[ebp], edx

; 474  :                     pbyExtDynamicCellData += sizeof(WORD);

  0151a	8b 45 b4	 mov	 eax, DWORD PTR _pbyExtDynamicCellData$[ebp]
  0151d	83 c0 02	 add	 eax, 2
  01520	89 45 b4	 mov	 DWORD PTR _pbyExtDynamicCellData$[ebp], eax

; 475  :                     *pwGroupIndex = ((KDynamicCell*)pCell)->m_wGroupIndex;

  01523	8b 8d 68 fd ff
	ff		 mov	 ecx, DWORD PTR _pwGroupIndex$177298[ebp]
  01529	8b 95 78 fd ff
	ff		 mov	 edx, DWORD PTR _pCell$177294[ebp]
  0152f	66 8b 42 0c	 mov	 ax, WORD PTR [edx+12]
  01533	66 89 01	 mov	 WORD PTR [ecx], ax

; 476  :                 }
; 477  :                 else

  01536	e9 94 00 00 00	 jmp	 $LN41@SaveTerrai
$LN42@SaveTerrai:

; 478  :                 {
; 479  :                     *pbyExtNormalCellData = (BYTE)nCellX;

  0153b	8b 4d b8	 mov	 ecx, DWORD PTR _pbyExtNormalCellData$[ebp]
  0153e	8a 95 7c fd ff
	ff		 mov	 dl, BYTE PTR _nCellX$177290[ebp]
  01544	88 11		 mov	 BYTE PTR [ecx], dl

; 480  :                     pbyExtNormalCellData++;

  01546	8b 45 b8	 mov	 eax, DWORD PTR _pbyExtNormalCellData$[ebp]
  01549	83 c0 01	 add	 eax, 1
  0154c	89 45 b8	 mov	 DWORD PTR _pbyExtNormalCellData$[ebp], eax

; 481  : 
; 482  :                     *pbyExtNormalCellData = (BYTE)nCellY;

  0154f	8b 4d b8	 mov	 ecx, DWORD PTR _pbyExtNormalCellData$[ebp]
  01552	8a 95 80 fd ff
	ff		 mov	 dl, BYTE PTR _nCellY$177286[ebp]
  01558	88 11		 mov	 BYTE PTR [ecx], dl

; 483  :                     pbyExtNormalCellData++;

  0155a	8b 45 b8	 mov	 eax, DWORD PTR _pbyExtNormalCellData$[ebp]
  0155d	83 c0 01	 add	 eax, 1
  01560	89 45 b8	 mov	 DWORD PTR _pbyExtNormalCellData$[ebp], eax

; 484  : 
; 485  :                     pBaseInfo = (KCell::KBaseInfo*)pbyExtNormalCellData;

  01563	8b 4d b8	 mov	 ecx, DWORD PTR _pbyExtNormalCellData$[ebp]
  01566	89 8d 74 fd ff
	ff		 mov	 DWORD PTR _pBaseInfo$177295[ebp], ecx

; 486  :                     pbyExtNormalCellData += sizeof(KCell::KBaseInfo);

  0156c	8b 55 b8	 mov	 edx, DWORD PTR _pbyExtNormalCellData$[ebp]
  0156f	83 c2 04	 add	 edx, 4
  01572	89 55 b8	 mov	 DWORD PTR _pbyExtNormalCellData$[ebp], edx

; 487  :                     *pBaseInfo = pCell->m_BaseInfo;

  01575	8b 85 78 fd ff
	ff		 mov	 eax, DWORD PTR _pCell$177294[ebp]
  0157b	8b 08		 mov	 ecx, DWORD PTR [eax]
  0157d	8b 95 74 fd ff
	ff		 mov	 edx, DWORD PTR _pBaseInfo$177295[ebp]
  01583	89 0a		 mov	 DWORD PTR [edx], ecx

; 488  : 
; 489  :                     pwHighLayer = (WORD*)pbyExtNormalCellData;

  01585	8b 45 b8	 mov	 eax, DWORD PTR _pbyExtNormalCellData$[ebp]
  01588	89 85 6c fd ff
	ff		 mov	 DWORD PTR _pwHighLayer$177297[ebp], eax

; 490  :                     pbyExtNormalCellData += sizeof(WORD);

  0158e	8b 4d b8	 mov	 ecx, DWORD PTR _pbyExtNormalCellData$[ebp]
  01591	83 c1 02	 add	 ecx, 2
  01594	89 4d b8	 mov	 DWORD PTR _pbyExtNormalCellData$[ebp], ecx

; 491  :                     *pwHighLayer = pCell->m_wHighLayer;

  01597	8b 95 6c fd ff
	ff		 mov	 edx, DWORD PTR _pwHighLayer$177297[ebp]
  0159d	8b 85 78 fd ff
	ff		 mov	 eax, DWORD PTR _pCell$177294[ebp]
  015a3	66 8b 48 06	 mov	 cx, WORD PTR [eax+6]
  015a7	66 89 0a	 mov	 WORD PTR [edx], cx

; 492  : 
; 493  :                     pwLowLayer = (WORD*)pbyExtNormalCellData;

  015aa	8b 55 b8	 mov	 edx, DWORD PTR _pbyExtNormalCellData$[ebp]
  015ad	89 95 70 fd ff
	ff		 mov	 DWORD PTR _pwLowLayer$177296[ebp], edx

; 494  :                     pbyExtNormalCellData += sizeof(WORD);

  015b3	8b 45 b8	 mov	 eax, DWORD PTR _pbyExtNormalCellData$[ebp]
  015b6	83 c0 02	 add	 eax, 2
  015b9	89 45 b8	 mov	 DWORD PTR _pbyExtNormalCellData$[ebp], eax

; 495  :                     *pwLowLayer = pCell->m_wLowLayer;

  015bc	8b 8d 70 fd ff
	ff		 mov	 ecx, DWORD PTR _pwLowLayer$177296[ebp]
  015c2	8b 95 78 fd ff
	ff		 mov	 edx, DWORD PTR _pCell$177294[ebp]
  015c8	66 8b 42 04	 mov	 ax, WORD PTR [edx+4]
  015cc	66 89 01	 mov	 WORD PTR [ecx], ax
$LN41@SaveTerrai:

; 496  :                 }
; 497  : 
; 498  :                 pCell = pCell->m_pNext;

  015cf	8b 8d 78 fd ff
	ff		 mov	 ecx, DWORD PTR _pCell$177294[ebp]
  015d5	8b 51 08	 mov	 edx, DWORD PTR [ecx+8]
  015d8	89 95 78 fd ff
	ff		 mov	 DWORD PTR _pCell$177294[ebp], edx

; 499  :             }

  015de	e9 79 fe ff ff	 jmp	 $LN44@SaveTerrai
$LN43@SaveTerrai:

; 500  : 		}

  015e3	e9 be fd ff ff	 jmp	 $LN46@SaveTerrai
$LN45@SaveTerrai:

; 501  : 	}

  015e8	e9 91 fd ff ff	 jmp	 $LN49@SaveTerrai
$LN48@SaveTerrai:

; 502  : 
; 503  :     *pnExtNormalCellCount = nExtendNormalCellCount;

  015ed	8b 45 c0	 mov	 eax, DWORD PTR _pnExtNormalCellCount$[ebp]
  015f0	8b 4d d8	 mov	 ecx, DWORD PTR _nExtendNormalCellCount$[ebp]
  015f3	89 08		 mov	 DWORD PTR [eax], ecx

; 504  :     *pnExtDynamicCellCount  = nExtendDynamicCellCount;

  015f5	8b 55 bc	 mov	 edx, DWORD PTR _pnExtDynamicCellCount$[ebp]
  015f8	8b 45 d4	 mov	 eax, DWORD PTR _nExtendDynamicCellCount$[ebp]
  015fb	89 02		 mov	 DWORD PTR [edx], eax

; 505  : 
; 506  :     memcpy(pdwScriptData, m_pdwScriptList, SCRIPT_DATA_SIZE);

  015fd	6a 40		 push	 64			; 00000040H
  015ff	8b 4d f8	 mov	 ecx, DWORD PTR _this$[ebp]
  01602	8b 51 20	 mov	 edx, DWORD PTR [ecx+32]
  01605	52		 push	 edx
  01606	8b 45 b0	 mov	 eax, DWORD PTR _pdwScriptData$[ebp]
  01609	50		 push	 eax
  0160a	e8 00 00 00 00	 call	 _memcpy
  0160f	83 c4 0c	 add	 esp, 12			; 0000000cH

; 507  : 
; 508  : 	g_GetRootPath(szRoot);

  01612	8b f4		 mov	 esi, esp
  01614	8d 8d a4 fe ff
	ff		 lea	 ecx, DWORD PTR _szRoot$[ebp]
  0161a	51		 push	 ecx
  0161b	ff 15 00 00 00
	00		 call	 DWORD PTR __imp__g_GetRootPath
  01621	83 c4 04	 add	 esp, 4
  01624	3b f4		 cmp	 esi, esp
  01626	e8 00 00 00 00	 call	 __RTC_CheckEsp

; 509  : 
; 510  : 	nRetCode = snprintf(szPath, sizeof(szPath), "%s/%s", szRoot, MAP_DIR);

  0162b	8b f4		 mov	 esi, esp
  0162d	68 00 00 00 00	 push	 OFFSET $SG177328
  01632	8d 95 a4 fe ff
	ff		 lea	 edx, DWORD PTR _szRoot$[ebp]
  01638	52		 push	 edx
  01639	68 00 00 00 00	 push	 OFFSET $SG177329
  0163e	68 04 01 00 00	 push	 260			; 00000104H
  01643	8d 85 98 fd ff
	ff		 lea	 eax, DWORD PTR _szPath$[ebp]
  01649	50		 push	 eax
  0164a	ff 15 00 00 00
	00		 call	 DWORD PTR __imp___snprintf
  01650	83 c4 14	 add	 esp, 20			; 00000014H
  01653	3b f4		 cmp	 esi, esp
  01655	e8 00 00 00 00	 call	 __RTC_CheckEsp
  0165a	89 45 f0	 mov	 DWORD PTR _nRetCode$[ebp], eax
$LN40@SaveTerrai:

; 511  :     KGLOG_PROCESS_ERROR(nRetCode > 0 && nRetCode < (int)sizeof(szPath));

  0165d	83 7d f0 00	 cmp	 DWORD PTR _nRetCode$[ebp], 0
  01661	7e 09		 jle	 SHORT $LN36@SaveTerrai
  01663	81 7d f0 04 01
	00 00		 cmp	 DWORD PTR _nRetCode$[ebp], 260 ; 00000104H
  0166a	7c 32		 jl	 SHORT $LN39@SaveTerrai
$LN36@SaveTerrai:
  0166c	8b f4		 mov	 esi, esp
  0166e	68 00 00 00 00	 push	 OFFSET $SG177336
  01673	68 ff 01 00 00	 push	 511			; 000001ffH
  01678	68 00 00 00 00	 push	 OFFSET $SG177337
  0167d	68 00 00 00 00	 push	 OFFSET $SG177338
  01682	6a 07		 push	 7
  01684	ff 15 00 00 00
	00		 call	 DWORD PTR __imp_?KGLogPrintf@@YAHW4KGLOG_PRIORITY@@QBDZZ
  0168a	83 c4 14	 add	 esp, 20			; 00000014H
  0168d	3b f4		 cmp	 esi, esp
  0168f	e8 00 00 00 00	 call	 __RTC_CheckEsp
  01694	e9 cc 02 00 00	 jmp	 $Exit0$177266
  01699	e9 c7 02 00 00	 jmp	 $Exit0$177266
$LN39@SaveTerrai:
  0169e	33 c9		 xor	 ecx, ecx
  016a0	75 bb		 jne	 SHORT $LN40@SaveTerrai

; 512  : #ifdef WIN32
; 513  : 	mkdir(szPath);

  016a2	8b f4		 mov	 esi, esp
  016a4	8d 95 98 fd ff
	ff		 lea	 edx, DWORD PTR _szPath$[ebp]
  016aa	52		 push	 edx
  016ab	ff 15 00 00 00
	00		 call	 DWORD PTR __imp__mkdir
  016b1	83 c4 04	 add	 esp, 4
  016b4	3b f4		 cmp	 esi, esp
  016b6	e8 00 00 00 00	 call	 __RTC_CheckEsp

; 514  : #else
; 515  :     mkdir(szPath, S_IRUSR | S_IWUSR | S_IXUSR);
; 516  : #endif
; 517  : 
; 518  : 	nRetCode = snprintf(szPath, sizeof(szPath), "%s/%s/%s", szRoot, MAP_DIR, m_pScene->m_szName);

  016bb	8b 45 f8	 mov	 eax, DWORD PTR _this$[ebp]
  016be	8b 48 18	 mov	 ecx, DWORD PTR [eax+24]
  016c1	83 c1 14	 add	 ecx, 20			; 00000014H
  016c4	8b f4		 mov	 esi, esp
  016c6	51		 push	 ecx
  016c7	68 00 00 00 00	 push	 OFFSET $SG177340
  016cc	8d 95 a4 fe ff
	ff		 lea	 edx, DWORD PTR _szRoot$[ebp]
  016d2	52		 push	 edx
  016d3	68 00 00 00 00	 push	 OFFSET $SG177341
  016d8	68 04 01 00 00	 push	 260			; 00000104H
  016dd	8d 85 98 fd ff
	ff		 lea	 eax, DWORD PTR _szPath$[ebp]
  016e3	50		 push	 eax
  016e4	ff 15 00 00 00
	00		 call	 DWORD PTR __imp___snprintf
  016ea	83 c4 18	 add	 esp, 24			; 00000018H
  016ed	3b f4		 cmp	 esi, esp
  016ef	e8 00 00 00 00	 call	 __RTC_CheckEsp
  016f4	89 45 f0	 mov	 DWORD PTR _nRetCode$[ebp], eax
$LN34@SaveTerrai:

; 519  :     KGLOG_PROCESS_ERROR(nRetCode > 0 && nRetCode < (int)sizeof(szPath));

  016f7	83 7d f0 00	 cmp	 DWORD PTR _nRetCode$[ebp], 0
  016fb	7e 09		 jle	 SHORT $LN30@SaveTerrai
  016fd	81 7d f0 04 01
	00 00		 cmp	 DWORD PTR _nRetCode$[ebp], 260 ; 00000104H
  01704	7c 32		 jl	 SHORT $LN33@SaveTerrai
$LN30@SaveTerrai:
  01706	8b f4		 mov	 esi, esp
  01708	68 00 00 00 00	 push	 OFFSET $SG177348
  0170d	68 07 02 00 00	 push	 519			; 00000207H
  01712	68 00 00 00 00	 push	 OFFSET $SG177349
  01717	68 00 00 00 00	 push	 OFFSET $SG177350
  0171c	6a 07		 push	 7
  0171e	ff 15 00 00 00
	00		 call	 DWORD PTR __imp_?KGLogPrintf@@YAHW4KGLOG_PRIORITY@@QBDZZ
  01724	83 c4 14	 add	 esp, 20			; 00000014H
  01727	3b f4		 cmp	 esi, esp
  01729	e8 00 00 00 00	 call	 __RTC_CheckEsp
  0172e	e9 32 02 00 00	 jmp	 $Exit0$177266
  01733	e9 2d 02 00 00	 jmp	 $Exit0$177266
$LN33@SaveTerrai:
  01738	33 c9		 xor	 ecx, ecx
  0173a	75 bb		 jne	 SHORT $LN34@SaveTerrai

; 520  : #ifdef WIN32
; 521  :     mkdir(szPath);

  0173c	8b f4		 mov	 esi, esp
  0173e	8d 95 98 fd ff
	ff		 lea	 edx, DWORD PTR _szPath$[ebp]
  01744	52		 push	 edx
  01745	ff 15 00 00 00
	00		 call	 DWORD PTR __imp__mkdir
  0174b	83 c4 04	 add	 esp, 4
  0174e	3b f4		 cmp	 esi, esp
  01750	e8 00 00 00 00	 call	 __RTC_CheckEsp

; 522  : #else
; 523  :     mkdir(szPath, S_IRUSR | S_IWUSR | S_IXUSR);
; 524  : #endif
; 525  : 
; 526  : 	nRetCode = snprintf(szPath, sizeof(szPath), "%s/%s/%s/v_%03d", szRoot, MAP_DIR, m_pScene->m_szName, m_nRegionY);

  01755	8b f4		 mov	 esi, esp
  01757	8b 45 f8	 mov	 eax, DWORD PTR _this$[ebp]
  0175a	8b 48 14	 mov	 ecx, DWORD PTR [eax+20]
  0175d	51		 push	 ecx
  0175e	8b 55 f8	 mov	 edx, DWORD PTR _this$[ebp]
  01761	8b 42 18	 mov	 eax, DWORD PTR [edx+24]
  01764	83 c0 14	 add	 eax, 20			; 00000014H
  01767	50		 push	 eax
  01768	68 00 00 00 00	 push	 OFFSET $SG177352
  0176d	8d 8d a4 fe ff
	ff		 lea	 ecx, DWORD PTR _szRoot$[ebp]
  01773	51		 push	 ecx
  01774	68 00 00 00 00	 push	 OFFSET $SG177353
  01779	68 04 01 00 00	 push	 260			; 00000104H
  0177e	8d 95 98 fd ff
	ff		 lea	 edx, DWORD PTR _szPath$[ebp]
  01784	52		 push	 edx
  01785	ff 15 00 00 00
	00		 call	 DWORD PTR __imp___snprintf
  0178b	83 c4 1c	 add	 esp, 28			; 0000001cH
  0178e	3b f4		 cmp	 esi, esp
  01790	e8 00 00 00 00	 call	 __RTC_CheckEsp
  01795	89 45 f0	 mov	 DWORD PTR _nRetCode$[ebp], eax
$LN28@SaveTerrai:

; 527  :     KGLOG_PROCESS_ERROR(nRetCode > 0 && nRetCode < (int)sizeof(szPath));

  01798	83 7d f0 00	 cmp	 DWORD PTR _nRetCode$[ebp], 0
  0179c	7e 09		 jle	 SHORT $LN24@SaveTerrai
  0179e	81 7d f0 04 01
	00 00		 cmp	 DWORD PTR _nRetCode$[ebp], 260 ; 00000104H
  017a5	7c 32		 jl	 SHORT $LN27@SaveTerrai
$LN24@SaveTerrai:
  017a7	8b f4		 mov	 esi, esp
  017a9	68 00 00 00 00	 push	 OFFSET $SG177360
  017ae	68 0f 02 00 00	 push	 527			; 0000020fH
  017b3	68 00 00 00 00	 push	 OFFSET $SG177361
  017b8	68 00 00 00 00	 push	 OFFSET $SG177362
  017bd	6a 07		 push	 7
  017bf	ff 15 00 00 00
	00		 call	 DWORD PTR __imp_?KGLogPrintf@@YAHW4KGLOG_PRIORITY@@QBDZZ
  017c5	83 c4 14	 add	 esp, 20			; 00000014H
  017c8	3b f4		 cmp	 esi, esp
  017ca	e8 00 00 00 00	 call	 __RTC_CheckEsp
  017cf	e9 91 01 00 00	 jmp	 $Exit0$177266
  017d4	e9 8c 01 00 00	 jmp	 $Exit0$177266
$LN27@SaveTerrai:
  017d9	33 c0		 xor	 eax, eax
  017db	75 bb		 jne	 SHORT $LN28@SaveTerrai

; 528  : #ifdef WIN32
; 529  :     mkdir(szPath);

  017dd	8b f4		 mov	 esi, esp
  017df	8d 8d 98 fd ff
	ff		 lea	 ecx, DWORD PTR _szPath$[ebp]
  017e5	51		 push	 ecx
  017e6	ff 15 00 00 00
	00		 call	 DWORD PTR __imp__mkdir
  017ec	83 c4 04	 add	 esp, 4
  017ef	3b f4		 cmp	 esi, esp
  017f1	e8 00 00 00 00	 call	 __RTC_CheckEsp

; 530  : #else
; 531  :     mkdir(szPath, S_IRUSR | S_IWUSR | S_IXUSR);
; 532  : #endif
; 533  : 
; 534  : 	nRetCode = snprintf(
; 535  :         szPath, sizeof(szPath), 
; 536  :         "%s/%s/%s/v_%03d/%03d_Region.%s", 
; 537  :         szRoot, MAP_DIR, m_pScene->m_szName, m_nRegionY, m_nRegionX, MAP_FILE_EXT
; 538  :     );

  017f6	8b f4		 mov	 esi, esp
  017f8	68 00 00 00 00	 push	 OFFSET $SG177364
  017fd	8b 55 f8	 mov	 edx, DWORD PTR _this$[ebp]
  01800	8b 42 10	 mov	 eax, DWORD PTR [edx+16]
  01803	50		 push	 eax
  01804	8b 4d f8	 mov	 ecx, DWORD PTR _this$[ebp]
  01807	8b 51 14	 mov	 edx, DWORD PTR [ecx+20]
  0180a	52		 push	 edx
  0180b	8b 45 f8	 mov	 eax, DWORD PTR _this$[ebp]
  0180e	8b 48 18	 mov	 ecx, DWORD PTR [eax+24]
  01811	83 c1 14	 add	 ecx, 20			; 00000014H
  01814	51		 push	 ecx
  01815	68 00 00 00 00	 push	 OFFSET $SG177365
  0181a	8d 95 a4 fe ff
	ff		 lea	 edx, DWORD PTR _szRoot$[ebp]
  01820	52		 push	 edx
  01821	68 00 00 00 00	 push	 OFFSET $SG177366
  01826	68 04 01 00 00	 push	 260			; 00000104H
  0182b	8d 85 98 fd ff
	ff		 lea	 eax, DWORD PTR _szPath$[ebp]
  01831	50		 push	 eax
  01832	ff 15 00 00 00
	00		 call	 DWORD PTR __imp___snprintf
  01838	83 c4 24	 add	 esp, 36			; 00000024H
  0183b	3b f4		 cmp	 esi, esp
  0183d	e8 00 00 00 00	 call	 __RTC_CheckEsp
  01842	89 45 f0	 mov	 DWORD PTR _nRetCode$[ebp], eax
$LN22@SaveTerrai:

; 539  :     KGLOG_PROCESS_ERROR(nRetCode > 0 && nRetCode < (int)sizeof(szPath));

  01845	83 7d f0 00	 cmp	 DWORD PTR _nRetCode$[ebp], 0
  01849	7e 09		 jle	 SHORT $LN18@SaveTerrai
  0184b	81 7d f0 04 01
	00 00		 cmp	 DWORD PTR _nRetCode$[ebp], 260 ; 00000104H
  01852	7c 32		 jl	 SHORT $LN21@SaveTerrai
$LN18@SaveTerrai:
  01854	8b f4		 mov	 esi, esp
  01856	68 00 00 00 00	 push	 OFFSET $SG177373
  0185b	68 1b 02 00 00	 push	 539			; 0000021bH
  01860	68 00 00 00 00	 push	 OFFSET $SG177374
  01865	68 00 00 00 00	 push	 OFFSET $SG177375
  0186a	6a 07		 push	 7
  0186c	ff 15 00 00 00
	00		 call	 DWORD PTR __imp_?KGLogPrintf@@YAHW4KGLOG_PRIORITY@@QBDZZ
  01872	83 c4 14	 add	 esp, 20			; 00000014H
  01875	3b f4		 cmp	 esi, esp
  01877	e8 00 00 00 00	 call	 __RTC_CheckEsp
  0187c	e9 e4 00 00 00	 jmp	 $Exit0$177266
  01881	e9 df 00 00 00	 jmp	 $Exit0$177266
$LN21@SaveTerrai:
  01886	33 c9		 xor	 ecx, ecx
  01888	75 bb		 jne	 SHORT $LN22@SaveTerrai

; 540  : 
; 541  :     nRetCode = CheckUpdate(szPath, pbyBuffer, uDataLen);

  0188a	8b 55 ec	 mov	 edx, DWORD PTR _uDataLen$[ebp]
  0188d	52		 push	 edx
  0188e	8b 45 cc	 mov	 eax, DWORD PTR _pbyBuffer$[ebp]
  01891	50		 push	 eax
  01892	8d 8d 98 fd ff
	ff		 lea	 ecx, DWORD PTR _szPath$[ebp]
  01898	51		 push	 ecx
  01899	8b 4d f8	 mov	 ecx, DWORD PTR _this$[ebp]
  0189c	e8 00 00 00 00	 call	 ?CheckUpdate@KRegion@@QAEHQBDPAEI@Z ; KRegion::CheckUpdate
  018a1	89 45 f0	 mov	 DWORD PTR _nRetCode$[ebp], eax

; 542  :     if (nRetCode)

  018a4	83 7d f0 00	 cmp	 DWORD PTR _nRetCode$[ebp], 0
  018a8	0f 84 b0 00 00
	00		 je	 $LN16@SaveTerrai

; 543  :     {
; 544  : 	    pFile = fopen(szPath, "wb");

  018ae	8b f4		 mov	 esi, esp
  018b0	68 00 00 00 00	 push	 OFFSET $SG177378
  018b5	8d 95 98 fd ff
	ff		 lea	 edx, DWORD PTR _szPath$[ebp]
  018bb	52		 push	 edx
  018bc	ff 15 00 00 00
	00		 call	 DWORD PTR __imp__fopen
  018c2	83 c4 08	 add	 esp, 8
  018c5	3b f4		 cmp	 esi, esp
  018c7	e8 00 00 00 00	 call	 __RTC_CheckEsp
  018cc	89 45 ac	 mov	 DWORD PTR _pFile$[ebp], eax
$LN15@SaveTerrai:

; 545  : 	    KGLOG_PROCESS_ERROR(pFile);

  018cf	83 7d ac 00	 cmp	 DWORD PTR _pFile$[ebp], 0
  018d3	75 2c		 jne	 SHORT $LN14@SaveTerrai
  018d5	8b f4		 mov	 esi, esp
  018d7	68 00 00 00 00	 push	 OFFSET $SG177383
  018dc	68 21 02 00 00	 push	 545			; 00000221H
  018e1	68 00 00 00 00	 push	 OFFSET $SG177384
  018e6	68 00 00 00 00	 push	 OFFSET $SG177385
  018eb	6a 07		 push	 7
  018ed	ff 15 00 00 00
	00		 call	 DWORD PTR __imp_?KGLogPrintf@@YAHW4KGLOG_PRIORITY@@QBDZZ
  018f3	83 c4 14	 add	 esp, 20			; 00000014H
  018f6	3b f4		 cmp	 esi, esp
  018f8	e8 00 00 00 00	 call	 __RTC_CheckEsp
  018fd	eb 66		 jmp	 SHORT $Exit0$177266
  018ff	eb 64		 jmp	 SHORT $Exit0$177266
$LN14@SaveTerrai:
  01901	33 c0		 xor	 eax, eax
  01903	75 ca		 jne	 SHORT $LN15@SaveTerrai

; 546  : 
; 547  :         uWriteNum = fwrite(pbyBuffer, uDataLen, 1, pFile);

  01905	8b f4		 mov	 esi, esp
  01907	8b 4d ac	 mov	 ecx, DWORD PTR _pFile$[ebp]
  0190a	51		 push	 ecx
  0190b	6a 01		 push	 1
  0190d	8b 55 ec	 mov	 edx, DWORD PTR _uDataLen$[ebp]
  01910	52		 push	 edx
  01911	8b 45 cc	 mov	 eax, DWORD PTR _pbyBuffer$[ebp]
  01914	50		 push	 eax
  01915	ff 15 00 00 00
	00		 call	 DWORD PTR __imp__fwrite
  0191b	83 c4 10	 add	 esp, 16			; 00000010H
  0191e	3b f4		 cmp	 esi, esp
  01920	e8 00 00 00 00	 call	 __RTC_CheckEsp
  01925	89 45 e8	 mov	 DWORD PTR _uWriteNum$[ebp], eax
$LN10@SaveTerrai:

; 548  :         KGLOG_PROCESS_ERROR(uWriteNum == 1);

  01928	83 7d e8 01	 cmp	 DWORD PTR _uWriteNum$[ebp], 1
  0192c	74 2c		 je	 SHORT $LN9@SaveTerrai
  0192e	8b f4		 mov	 esi, esp
  01930	68 00 00 00 00	 push	 OFFSET $SG177391
  01935	68 24 02 00 00	 push	 548			; 00000224H
  0193a	68 00 00 00 00	 push	 OFFSET $SG177392
  0193f	68 00 00 00 00	 push	 OFFSET $SG177393
  01944	6a 07		 push	 7
  01946	ff 15 00 00 00
	00		 call	 DWORD PTR __imp_?KGLogPrintf@@YAHW4KGLOG_PRIORITY@@QBDZZ
  0194c	83 c4 14	 add	 esp, 20			; 00000014H
  0194f	3b f4		 cmp	 esi, esp
  01951	e8 00 00 00 00	 call	 __RTC_CheckEsp
  01956	eb 0d		 jmp	 SHORT $Exit0$177266
  01958	eb 0b		 jmp	 SHORT $Exit0$177266
$LN9@SaveTerrai:
  0195a	33 c9		 xor	 ecx, ecx
  0195c	75 ca		 jne	 SHORT $LN10@SaveTerrai
$LN16@SaveTerrai:

; 549  :     }
; 550  : 
; 551  :     bResult = true;

  0195e	c7 45 f4 01 00
	00 00		 mov	 DWORD PTR _bResult$[ebp], 1
$Exit0$177266:

; 552  : Exit0:
; 553  :     if (pFile)

  01965	83 7d ac 00	 cmp	 DWORD PTR _pFile$[ebp], 0
  01969	74 1d		 je	 SHORT $LN4@SaveTerrai

; 554  :     {
; 555  :         fclose(pFile);

  0196b	8b f4		 mov	 esi, esp
  0196d	8b 55 ac	 mov	 edx, DWORD PTR _pFile$[ebp]
  01970	52		 push	 edx
  01971	ff 15 00 00 00
	00		 call	 DWORD PTR __imp__fclose
  01977	83 c4 04	 add	 esp, 4
  0197a	3b f4		 cmp	 esi, esp
  0197c	e8 00 00 00 00	 call	 __RTC_CheckEsp

; 556  :         pFile = NULL;

  01981	c7 45 ac 00 00
	00 00		 mov	 DWORD PTR _pFile$[ebp], 0
$LN4@SaveTerrai:

; 557  :     }
; 558  :     KG_COM_RELEASE(piBuffer);

  01988	83 7d d0 00	 cmp	 DWORD PTR _piBuffer$[ebp], 0
  0198c	74 1e		 je	 SHORT $LN3@SaveTerrai
  0198e	8b 45 d0	 mov	 eax, DWORD PTR _piBuffer$[ebp]
  01991	8b 08		 mov	 ecx, DWORD PTR [eax]
  01993	8b f4		 mov	 esi, esp
  01995	8b 55 d0	 mov	 edx, DWORD PTR _piBuffer$[ebp]
  01998	52		 push	 edx
  01999	8b 41 08	 mov	 eax, DWORD PTR [ecx+8]
  0199c	ff d0		 call	 eax
  0199e	3b f4		 cmp	 esi, esp
  019a0	e8 00 00 00 00	 call	 __RTC_CheckEsp
  019a5	c7 45 d0 00 00
	00 00		 mov	 DWORD PTR _piBuffer$[ebp], 0
$LN3@SaveTerrai:
  019ac	33 c9		 xor	 ecx, ecx
  019ae	75 d8		 jne	 SHORT $LN4@SaveTerrai

; 559  : 	return bResult;

  019b0	8b 45 f4	 mov	 eax, DWORD PTR _bResult$[ebp]

; 560  : }

  019b3	52		 push	 edx
  019b4	8b cd		 mov	 ecx, ebp
  019b6	50		 push	 eax
  019b7	8d 15 00 00 00
	00		 lea	 edx, DWORD PTR $LN76@SaveTerrai
  019bd	e8 00 00 00 00	 call	 @_RTC_CheckStackVars@8
  019c2	58		 pop	 eax
  019c3	5a		 pop	 edx
  019c4	5f		 pop	 edi
  019c5	5e		 pop	 esi
  019c6	8b 4d fc	 mov	 ecx, DWORD PTR __$ArrayPad$[ebp]
  019c9	33 cd		 xor	 ecx, ebp
  019cb	e8 00 00 00 00	 call	 @__security_check_cookie@4
  019d0	81 c4 98 02 00
	00		 add	 esp, 664		; 00000298H
  019d6	3b ec		 cmp	 ebp, esp
  019d8	e8 00 00 00 00	 call	 __RTC_CheckEsp
  019dd	8b e5		 mov	 esp, ebp
  019df	5d		 pop	 ebp
  019e0	c3		 ret	 0
  019e1	8d 49 00	 npad	 3
$LN76@SaveTerrai:
  019e4	02 00 00 00	 DD	 2
  019e8	00 00 00 00	 DD	 $LN75@SaveTerrai
$LN75@SaveTerrai:
  019ec	a4 fe ff ff	 DD	 -348			; fffffea4H
  019f0	04 01 00 00	 DD	 260			; 00000104H
  019f4	00 00 00 00	 DD	 $LN73@SaveTerrai
  019f8	98 fd ff ff	 DD	 -616			; fffffd98H
  019fc	04 01 00 00	 DD	 260			; 00000104H
  01a00	00 00 00 00	 DD	 $LN74@SaveTerrai
$LN74@SaveTerrai:
  01a04	73		 DB	 115			; 00000073H
  01a05	7a		 DB	 122			; 0000007aH
  01a06	50		 DB	 80			; 00000050H
  01a07	61		 DB	 97			; 00000061H
  01a08	74		 DB	 116			; 00000074H
  01a09	68		 DB	 104			; 00000068H
  01a0a	00		 DB	 0
$LN73@SaveTerrai:
  01a0b	73		 DB	 115			; 00000073H
  01a0c	7a		 DB	 122			; 0000007aH
  01a0d	52		 DB	 82			; 00000052H
  01a0e	6f		 DB	 111			; 0000006fH
  01a0f	6f		 DB	 111			; 0000006fH
  01a10	74		 DB	 116			; 00000074H
  01a11	00		 DB	 0
?SaveTerrain@KRegion@@QAEHXZ ENDP			; KRegion::SaveTerrain
_TEXT	ENDS
EXTRN	_memcmp:PROC
; Function compile flags: /Odtp /RTCsu
_TEXT	SEGMENT
_uReadBytes$ = -32					; size = 4
_uFileSize$ = -28					; size = 4
_pbyBuffer$ = -24					; size = 4
_piBuffer$ = -20					; size = 4
_piFile$ = -16						; size = 4
_nRetCode$ = -12					; size = 4
_bResult$ = -8						; size = 4
_this$ = -4						; size = 4
_cszFileName$ = 8					; size = 4
_pbyNewData$ = 12					; size = 4
_uNewDataLen$ = 16					; size = 4
?CheckUpdate@KRegion@@QAEHQBDPAEI@Z PROC		; KRegion::CheckUpdate
; _this$ = ecx

; 564  : {

  01a20	55		 push	 ebp
  01a21	8b ec		 mov	 ebp, esp
  01a23	83 ec 20	 sub	 esp, 32			; 00000020H
  01a26	56		 push	 esi
  01a27	b8 cc cc cc cc	 mov	 eax, -858993460		; ccccccccH
  01a2c	89 45 e0	 mov	 DWORD PTR [ebp-32], eax
  01a2f	89 45 e4	 mov	 DWORD PTR [ebp-28], eax
  01a32	89 45 e8	 mov	 DWORD PTR [ebp-24], eax
  01a35	89 45 ec	 mov	 DWORD PTR [ebp-20], eax
  01a38	89 45 f0	 mov	 DWORD PTR [ebp-16], eax
  01a3b	89 45 f4	 mov	 DWORD PTR [ebp-12], eax
  01a3e	89 45 f8	 mov	 DWORD PTR [ebp-8], eax
  01a41	89 45 fc	 mov	 DWORD PTR [ebp-4], eax
  01a44	89 4d fc	 mov	 DWORD PTR _this$[ebp], ecx

; 565  :     BOOL            bResult             = true;

  01a47	c7 45 f8 01 00
	00 00		 mov	 DWORD PTR _bResult$[ebp], 1

; 566  :     int             nRetCode            = false;

  01a4e	c7 45 f4 00 00
	00 00		 mov	 DWORD PTR _nRetCode$[ebp], 0

; 567  :     IFile*          piFile              = NULL;

  01a55	c7 45 f0 00 00
	00 00		 mov	 DWORD PTR _piFile$[ebp], 0

; 568  :     IKG_Buffer*     piBuffer            = NULL;

  01a5c	c7 45 ec 00 00
	00 00		 mov	 DWORD PTR _piBuffer$[ebp], 0

; 569  :     BYTE*           pbyBuffer           = NULL;

  01a63	c7 45 e8 00 00
	00 00		 mov	 DWORD PTR _pbyBuffer$[ebp], 0

; 570  :     size_t          uFileSize           = 0;

  01a6a	c7 45 e4 00 00
	00 00		 mov	 DWORD PTR _uFileSize$[ebp], 0

; 571  :     size_t          uReadBytes          = 0;

  01a71	c7 45 e0 00 00
	00 00		 mov	 DWORD PTR _uReadBytes$[ebp], 0

; 572  : 
; 573  :     
; 574  :     piFile = g_OpenFile(cszFileName);

  01a78	8b f4		 mov	 esi, esp
  01a7a	6a 00		 push	 0
  01a7c	6a 00		 push	 0
  01a7e	8b 45 08	 mov	 eax, DWORD PTR _cszFileName$[ebp]
  01a81	50		 push	 eax
  01a82	ff 15 00 00 00
	00		 call	 DWORD PTR __imp__g_OpenFile
  01a88	83 c4 0c	 add	 esp, 12			; 0000000cH
  01a8b	3b f4		 cmp	 esi, esp
  01a8d	e8 00 00 00 00	 call	 __RTC_CheckEsp
  01a92	89 45 f0	 mov	 DWORD PTR _piFile$[ebp], eax
$LN35@CheckUpdat:

; 575  :     KG_PROCESS_ERROR(piFile);

  01a95	83 7d f0 00	 cmp	 DWORD PTR _piFile$[ebp], 0
  01a99	75 0a		 jne	 SHORT $LN34@CheckUpdat
  01a9b	e9 82 01 00 00	 jmp	 $Exit0$177417
  01aa0	e9 7d 01 00 00	 jmp	 $Exit0$177417
$LN34@CheckUpdat:
  01aa5	33 c9		 xor	 ecx, ecx
  01aa7	75 ec		 jne	 SHORT $LN35@CheckUpdat

; 576  : 
; 577  :     uFileSize = piFile->Size();

  01aa9	8b 55 f0	 mov	 edx, DWORD PTR _piFile$[ebp]
  01aac	8b 02		 mov	 eax, DWORD PTR [edx]
  01aae	8b f4		 mov	 esi, esp
  01ab0	8b 4d f0	 mov	 ecx, DWORD PTR _piFile$[ebp]
  01ab3	8b 50 14	 mov	 edx, DWORD PTR [eax+20]
  01ab6	ff d2		 call	 edx
  01ab8	3b f4		 cmp	 esi, esp
  01aba	e8 00 00 00 00	 call	 __RTC_CheckEsp
  01abf	89 45 e4	 mov	 DWORD PTR _uFileSize$[ebp], eax
$LN30@CheckUpdat:

; 578  :     KGLOG_PROCESS_ERROR(uFileSize > 0);

  01ac2	83 7d e4 00	 cmp	 DWORD PTR _uFileSize$[ebp], 0
  01ac6	77 32		 ja	 SHORT $LN29@CheckUpdat
  01ac8	8b f4		 mov	 esi, esp
  01aca	68 00 00 00 00	 push	 OFFSET $SG177423
  01acf	68 42 02 00 00	 push	 578			; 00000242H
  01ad4	68 00 00 00 00	 push	 OFFSET $SG177424
  01ad9	68 00 00 00 00	 push	 OFFSET $SG177425
  01ade	6a 07		 push	 7
  01ae0	ff 15 00 00 00
	00		 call	 DWORD PTR __imp_?KGLogPrintf@@YAHW4KGLOG_PRIORITY@@QBDZZ
  01ae6	83 c4 14	 add	 esp, 20			; 00000014H
  01ae9	3b f4		 cmp	 esi, esp
  01aeb	e8 00 00 00 00	 call	 __RTC_CheckEsp
  01af0	e9 2d 01 00 00	 jmp	 $Exit0$177417
  01af5	e9 28 01 00 00	 jmp	 $Exit0$177417
$LN29@CheckUpdat:
  01afa	33 c0		 xor	 eax, eax
  01afc	75 c4		 jne	 SHORT $LN30@CheckUpdat

; 579  : 
; 580  :     piBuffer = KG_MemoryCreateBuffer((unsigned)uFileSize);

  01afe	8b 4d e4	 mov	 ecx, DWORD PTR _uFileSize$[ebp]
  01b01	51		 push	 ecx
  01b02	e8 00 00 00 00	 call	 ?KG_MemoryCreateBuffer@@YAPAUIKG_Buffer@@I@Z ; KG_MemoryCreateBuffer
  01b07	83 c4 04	 add	 esp, 4
  01b0a	89 45 ec	 mov	 DWORD PTR _piBuffer$[ebp], eax
$LN25@CheckUpdat:

; 581  :     KGLOG_PROCESS_ERROR(piBuffer);

  01b0d	83 7d ec 00	 cmp	 DWORD PTR _piBuffer$[ebp], 0
  01b11	75 32		 jne	 SHORT $LN24@CheckUpdat
  01b13	8b f4		 mov	 esi, esp
  01b15	68 00 00 00 00	 push	 OFFSET $SG177432
  01b1a	68 45 02 00 00	 push	 581			; 00000245H
  01b1f	68 00 00 00 00	 push	 OFFSET $SG177433
  01b24	68 00 00 00 00	 push	 OFFSET $SG177434
  01b29	6a 07		 push	 7
  01b2b	ff 15 00 00 00
	00		 call	 DWORD PTR __imp_?KGLogPrintf@@YAHW4KGLOG_PRIORITY@@QBDZZ
  01b31	83 c4 14	 add	 esp, 20			; 00000014H
  01b34	3b f4		 cmp	 esi, esp
  01b36	e8 00 00 00 00	 call	 __RTC_CheckEsp
  01b3b	e9 e2 00 00 00	 jmp	 $Exit0$177417
  01b40	e9 dd 00 00 00	 jmp	 $Exit0$177417
$LN24@CheckUpdat:
  01b45	33 d2		 xor	 edx, edx
  01b47	75 c4		 jne	 SHORT $LN25@CheckUpdat

; 582  : 
; 583  :     pbyBuffer = (BYTE*)piBuffer->GetData();

  01b49	8b 45 ec	 mov	 eax, DWORD PTR _piBuffer$[ebp]
  01b4c	8b 10		 mov	 edx, DWORD PTR [eax]
  01b4e	8b f4		 mov	 esi, esp
  01b50	8b 4d ec	 mov	 ecx, DWORD PTR _piBuffer$[ebp]
  01b53	8b 42 0c	 mov	 eax, DWORD PTR [edx+12]
  01b56	ff d0		 call	 eax
  01b58	3b f4		 cmp	 esi, esp
  01b5a	e8 00 00 00 00	 call	 __RTC_CheckEsp
  01b5f	89 45 e8	 mov	 DWORD PTR _pbyBuffer$[ebp], eax
$LN20@CheckUpdat:

; 584  :     KGLOG_PROCESS_ERROR(pbyBuffer);

  01b62	83 7d e8 00	 cmp	 DWORD PTR _pbyBuffer$[ebp], 0
  01b66	75 32		 jne	 SHORT $LN19@CheckUpdat
  01b68	8b f4		 mov	 esi, esp
  01b6a	68 00 00 00 00	 push	 OFFSET $SG177441
  01b6f	68 48 02 00 00	 push	 584			; 00000248H
  01b74	68 00 00 00 00	 push	 OFFSET $SG177442
  01b79	68 00 00 00 00	 push	 OFFSET $SG177443
  01b7e	6a 07		 push	 7
  01b80	ff 15 00 00 00
	00		 call	 DWORD PTR __imp_?KGLogPrintf@@YAHW4KGLOG_PRIORITY@@QBDZZ
  01b86	83 c4 14	 add	 esp, 20			; 00000014H
  01b89	3b f4		 cmp	 esi, esp
  01b8b	e8 00 00 00 00	 call	 __RTC_CheckEsp
  01b90	e9 8d 00 00 00	 jmp	 $Exit0$177417
  01b95	e9 88 00 00 00	 jmp	 $Exit0$177417
$LN19@CheckUpdat:
  01b9a	33 c9		 xor	 ecx, ecx
  01b9c	75 c4		 jne	 SHORT $LN20@CheckUpdat

; 585  : 
; 586  : 	uReadBytes = piFile->Read(pbyBuffer, (unsigned long)uFileSize);

  01b9e	8b f4		 mov	 esi, esp
  01ba0	8b 55 e4	 mov	 edx, DWORD PTR _uFileSize$[ebp]
  01ba3	52		 push	 edx
  01ba4	8b 45 e8	 mov	 eax, DWORD PTR _pbyBuffer$[ebp]
  01ba7	50		 push	 eax
  01ba8	8b 4d f0	 mov	 ecx, DWORD PTR _piFile$[ebp]
  01bab	8b 11		 mov	 edx, DWORD PTR [ecx]
  01bad	8b 4d f0	 mov	 ecx, DWORD PTR _piFile$[ebp]
  01bb0	8b 02		 mov	 eax, DWORD PTR [edx]
  01bb2	ff d0		 call	 eax
  01bb4	3b f4		 cmp	 esi, esp
  01bb6	e8 00 00 00 00	 call	 __RTC_CheckEsp
  01bbb	89 45 e0	 mov	 DWORD PTR _uReadBytes$[ebp], eax
$LN15@CheckUpdat:

; 587  : 	KGLOG_PROCESS_ERROR(uReadBytes == uFileSize);

  01bbe	8b 4d e0	 mov	 ecx, DWORD PTR _uReadBytes$[ebp]
  01bc1	3b 4d e4	 cmp	 ecx, DWORD PTR _uFileSize$[ebp]
  01bc4	74 2c		 je	 SHORT $LN14@CheckUpdat
  01bc6	8b f4		 mov	 esi, esp
  01bc8	68 00 00 00 00	 push	 OFFSET $SG177450
  01bcd	68 4b 02 00 00	 push	 587			; 0000024bH
  01bd2	68 00 00 00 00	 push	 OFFSET $SG177451
  01bd7	68 00 00 00 00	 push	 OFFSET $SG177452
  01bdc	6a 07		 push	 7
  01bde	ff 15 00 00 00
	00		 call	 DWORD PTR __imp_?KGLogPrintf@@YAHW4KGLOG_PRIORITY@@QBDZZ
  01be4	83 c4 14	 add	 esp, 20			; 00000014H
  01be7	3b f4		 cmp	 esi, esp
  01be9	e8 00 00 00 00	 call	 __RTC_CheckEsp
  01bee	eb 32		 jmp	 SHORT $Exit0$177417
  01bf0	eb 30		 jmp	 SHORT $Exit0$177417
$LN14@CheckUpdat:
  01bf2	33 d2		 xor	 edx, edx
  01bf4	75 c8		 jne	 SHORT $LN15@CheckUpdat

; 588  : 
; 589  :     // ,
; 590  :     if (uFileSize == uNewDataLen)

  01bf6	8b 45 e4	 mov	 eax, DWORD PTR _uFileSize$[ebp]
  01bf9	3b 45 10	 cmp	 eax, DWORD PTR _uNewDataLen$[ebp]
  01bfc	75 24		 jne	 SHORT $Exit0$177417

; 591  :     {
; 592  :         nRetCode = memcmp(pbyBuffer, pbyNewData, uNewDataLen);

  01bfe	8b 4d 10	 mov	 ecx, DWORD PTR _uNewDataLen$[ebp]
  01c01	51		 push	 ecx
  01c02	8b 55 0c	 mov	 edx, DWORD PTR _pbyNewData$[ebp]
  01c05	52		 push	 edx
  01c06	8b 45 e8	 mov	 eax, DWORD PTR _pbyBuffer$[ebp]
  01c09	50		 push	 eax
  01c0a	e8 00 00 00 00	 call	 _memcmp
  01c0f	83 c4 0c	 add	 esp, 12			; 0000000cH
  01c12	89 45 f4	 mov	 DWORD PTR _nRetCode$[ebp], eax

; 593  :         if (nRetCode == 0)

  01c15	83 7d f4 00	 cmp	 DWORD PTR _nRetCode$[ebp], 0
  01c19	75 07		 jne	 SHORT $Exit0$177417

; 594  :         {
; 595  :             bResult = false;

  01c1b	c7 45 f8 00 00
	00 00		 mov	 DWORD PTR _bResult$[ebp], 0
$Exit0$177417:

; 596  :         }
; 597  :     }    
; 598  : 
; 599  : Exit0:
; 600  :     KG_COM_RELEASE(piBuffer);

  01c22	83 7d ec 00	 cmp	 DWORD PTR _piBuffer$[ebp], 0
  01c26	74 1e		 je	 SHORT $LN7@CheckUpdat
  01c28	8b 4d ec	 mov	 ecx, DWORD PTR _piBuffer$[ebp]
  01c2b	8b 11		 mov	 edx, DWORD PTR [ecx]
  01c2d	8b f4		 mov	 esi, esp
  01c2f	8b 45 ec	 mov	 eax, DWORD PTR _piBuffer$[ebp]
  01c32	50		 push	 eax
  01c33	8b 4a 08	 mov	 ecx, DWORD PTR [edx+8]
  01c36	ff d1		 call	 ecx
  01c38	3b f4		 cmp	 esi, esp
  01c3a	e8 00 00 00 00	 call	 __RTC_CheckEsp
  01c3f	c7 45 ec 00 00
	00 00		 mov	 DWORD PTR _piBuffer$[ebp], 0
$LN7@CheckUpdat:
  01c46	33 d2		 xor	 edx, edx
  01c48	75 d8		 jne	 SHORT $Exit0$177417
$LN4@CheckUpdat:

; 601  :     KG_COM_RELEASE(piFile);

  01c4a	83 7d f0 00	 cmp	 DWORD PTR _piFile$[ebp], 0
  01c4e	74 1d		 je	 SHORT $LN3@CheckUpdat
  01c50	8b 45 f0	 mov	 eax, DWORD PTR _piFile$[ebp]
  01c53	8b 10		 mov	 edx, DWORD PTR [eax]
  01c55	8b f4		 mov	 esi, esp
  01c57	8b 4d f0	 mov	 ecx, DWORD PTR _piFile$[ebp]
  01c5a	8b 42 30	 mov	 eax, DWORD PTR [edx+48]
  01c5d	ff d0		 call	 eax
  01c5f	3b f4		 cmp	 esi, esp
  01c61	e8 00 00 00 00	 call	 __RTC_CheckEsp
  01c66	c7 45 f0 00 00
	00 00		 mov	 DWORD PTR _piFile$[ebp], 0
$LN3@CheckUpdat:
  01c6d	33 c9		 xor	 ecx, ecx
  01c6f	75 d9		 jne	 SHORT $LN4@CheckUpdat

; 602  :     return bResult;

  01c71	8b 45 f8	 mov	 eax, DWORD PTR _bResult$[ebp]

; 603  : }

  01c74	5e		 pop	 esi
  01c75	83 c4 20	 add	 esp, 32			; 00000020H
  01c78	3b ec		 cmp	 ebp, esp
  01c7a	e8 00 00 00 00	 call	 __RTC_CheckEsp
  01c7f	8b e5		 mov	 esp, ebp
  01c81	5d		 pop	 ebp
  01c82	c2 0c 00	 ret	 12			; 0000000cH
?CheckUpdate@KRegion@@QAEHQBDPAEI@Z ENDP		; KRegion::CheckUpdate
_TEXT	ENDS
PUBLIC	?SetActive@KRegion@@QAEXXZ			; KRegion::SetActive
EXTRN	?g_pSO3World@@3PAVKSO3World@@A:DWORD		; g_pSO3World
; Function compile flags: /Odtp /RTCsu
_TEXT	SEGMENT
_this$ = -4						; size = 4
?SetActive@KRegion@@QAEXXZ PROC				; KRegion::SetActive
; _this$ = ecx

; 606  : { 

  01c90	55		 push	 ebp
  01c91	8b ec		 mov	 ebp, esp
  01c93	51		 push	 ecx
  01c94	c7 45 fc cc cc
	cc cc		 mov	 DWORD PTR [ebp-4], -858993460 ; ccccccccH
  01c9b	89 4d fc	 mov	 DWORD PTR _this$[ebp], ecx

; 607  :     m_nActiveFrame = g_pSO3World->m_nGameLoop; 

  01c9e	8b 45 fc	 mov	 eax, DWORD PTR _this$[ebp]
  01ca1	8b 0d 00 00 00
	00		 mov	 ecx, DWORD PTR ?g_pSO3World@@3PAVKSO3World@@A ; g_pSO3World
  01ca7	8b 11		 mov	 edx, DWORD PTR [ecx]
  01ca9	89 50 28	 mov	 DWORD PTR [eax+40], edx

; 608  : }

  01cac	8b e5		 mov	 esp, ebp
  01cae	5d		 pop	 ebp
  01caf	c3		 ret	 0
?SetActive@KRegion@@QAEXXZ ENDP				; KRegion::SetActive
_TEXT	ENDS
PUBLIC	?IsActive@KRegion@@QAEHXZ			; KRegion::IsActive
; Function compile flags: /Odtp /RTCsu
_TEXT	SEGMENT
_this$ = -4						; size = 4
?IsActive@KRegion@@QAEHXZ PROC				; KRegion::IsActive
; _this$ = ecx

; 611  : {

  01cb0	55		 push	 ebp
  01cb1	8b ec		 mov	 ebp, esp
  01cb3	51		 push	 ecx
  01cb4	c7 45 fc cc cc
	cc cc		 mov	 DWORD PTR [ebp-4], -858993460 ; ccccccccH
  01cbb	89 4d fc	 mov	 DWORD PTR _this$[ebp], ecx

; 612  : #ifdef _SERVER
; 613  :     return (g_pSO3World->m_nGameLoop < m_nActiveFrame + GAME_FPS * 3); 

  01cbe	8b 45 fc	 mov	 eax, DWORD PTR _this$[ebp]
  01cc1	8b 48 28	 mov	 ecx, DWORD PTR [eax+40]
  01cc4	83 c1 30	 add	 ecx, 48			; 00000030H
  01cc7	8b 15 00 00 00
	00		 mov	 edx, DWORD PTR ?g_pSO3World@@3PAVKSO3World@@A ; g_pSO3World
  01ccd	33 c0		 xor	 eax, eax
  01ccf	39 0a		 cmp	 DWORD PTR [edx], ecx
  01cd1	0f 9c c0	 setl	 al

; 614  : #else
; 615  :     return (g_pSO3World->m_nGameLoop < m_nActiveFrame + GAME_FPS / 2); 
; 616  : #endif
; 617  : }

  01cd4	8b e5		 mov	 esp, ebp
  01cd6	5d		 pop	 ebp
  01cd7	c3		 ret	 0
?IsActive@KRegion@@QAEHXZ ENDP				; KRegion::IsActive
; Function compile flags: /Odtp /RTCsu
_pInsertPos$ = -12					; size = 4
_bFound$ = -8						; size = 4
_this$ = -4						; size = 4
_nXCell$ = 8						; size = 4
_nYCell$ = 12						; size = 4
_pCell$ = 16						; size = 4
?AddObstacle@KRegion@@QAEHHHPAUKCell@@@Z PROC		; KRegion::AddObstacle
; _this$ = ecx

; 620  : {

  01ce0	55		 push	 ebp
  01ce1	8b ec		 mov	 ebp, esp
  01ce3	83 ec 0c	 sub	 esp, 12			; 0000000cH
  01ce6	56		 push	 esi
  01ce7	c7 45 f4 cc cc
	cc cc		 mov	 DWORD PTR [ebp-12], -858993460 ; ccccccccH
  01cee	c7 45 f8 cc cc
	cc cc		 mov	 DWORD PTR [ebp-8], -858993460 ; ccccccccH
  01cf5	c7 45 fc cc cc
	cc cc		 mov	 DWORD PTR [ebp-4], -858993460 ; ccccccccH
  01cfc	89 4d fc	 mov	 DWORD PTR _this$[ebp], ecx

; 621  : 	BOOL bFound = false;

  01cff	c7 45 f8 00 00
	00 00		 mov	 DWORD PTR _bFound$[ebp], 0

; 622  : 
; 623  : 	assert(nXCell >= 0);

  01d06	83 7d 08 00	 cmp	 DWORD PTR _nXCell$[ebp], 0
  01d0a	7d 21		 jge	 SHORT $LN14@AddObstacl
  01d0c	8b f4		 mov	 esi, esp
  01d0e	68 6f 02 00 00	 push	 623			; 0000026fH
  01d13	68 00 00 00 00	 push	 OFFSET $SG177478
  01d18	68 00 00 00 00	 push	 OFFSET $SG177479
  01d1d	ff 15 00 00 00
	00		 call	 DWORD PTR __imp___wassert
  01d23	83 c4 0c	 add	 esp, 12			; 0000000cH
  01d26	3b f4		 cmp	 esi, esp
  01d28	e8 00 00 00 00	 call	 __RTC_CheckEsp
$LN14@AddObstacl:

; 624  : 	assert(nXCell < REGION_GRID_WIDTH);

  01d2d	83 7d 08 40	 cmp	 DWORD PTR _nXCell$[ebp], 64 ; 00000040H
  01d31	7c 21		 jl	 SHORT $LN15@AddObstacl
  01d33	8b f4		 mov	 esi, esp
  01d35	68 70 02 00 00	 push	 624			; 00000270H
  01d3a	68 00 00 00 00	 push	 OFFSET $SG177481
  01d3f	68 00 00 00 00	 push	 OFFSET $SG177482
  01d44	ff 15 00 00 00
	00		 call	 DWORD PTR __imp___wassert
  01d4a	83 c4 0c	 add	 esp, 12			; 0000000cH
  01d4d	3b f4		 cmp	 esi, esp
  01d4f	e8 00 00 00 00	 call	 __RTC_CheckEsp
$LN15@AddObstacl:

; 625  : 	assert(nYCell >= 0);

  01d54	83 7d 0c 00	 cmp	 DWORD PTR _nYCell$[ebp], 0
  01d58	7d 21		 jge	 SHORT $LN16@AddObstacl
  01d5a	8b f4		 mov	 esi, esp
  01d5c	68 71 02 00 00	 push	 625			; 00000271H
  01d61	68 00 00 00 00	 push	 OFFSET $SG177484
  01d66	68 00 00 00 00	 push	 OFFSET $SG177485
  01d6b	ff 15 00 00 00
	00		 call	 DWORD PTR __imp___wassert
  01d71	83 c4 0c	 add	 esp, 12			; 0000000cH
  01d74	3b f4		 cmp	 esi, esp
  01d76	e8 00 00 00 00	 call	 __RTC_CheckEsp
$LN16@AddObstacl:

; 626  : 	assert(nYCell < REGION_GRID_HEIGHT);

  01d7b	83 7d 0c 40	 cmp	 DWORD PTR _nYCell$[ebp], 64 ; 00000040H
  01d7f	7c 21		 jl	 SHORT $LN17@AddObstacl
  01d81	8b f4		 mov	 esi, esp
  01d83	68 72 02 00 00	 push	 626			; 00000272H
  01d88	68 00 00 00 00	 push	 OFFSET $SG177487
  01d8d	68 00 00 00 00	 push	 OFFSET $SG177488
  01d92	ff 15 00 00 00
	00		 call	 DWORD PTR __imp___wassert
  01d98	83 c4 0c	 add	 esp, 12			; 0000000cH
  01d9b	3b f4		 cmp	 esi, esp
  01d9d	e8 00 00 00 00	 call	 __RTC_CheckEsp
$LN17@AddObstacl:

; 627  : 	assert(pCell);

  01da2	83 7d 10 00	 cmp	 DWORD PTR _pCell$[ebp], 0
  01da6	75 21		 jne	 SHORT $LN18@AddObstacl
  01da8	8b f4		 mov	 esi, esp
  01daa	68 73 02 00 00	 push	 627			; 00000273H
  01daf	68 00 00 00 00	 push	 OFFSET $SG177490
  01db4	68 00 00 00 00	 push	 OFFSET $SG177491
  01db9	ff 15 00 00 00
	00		 call	 DWORD PTR __imp___wassert
  01dbf	83 c4 0c	 add	 esp, 12			; 0000000cH
  01dc2	3b f4		 cmp	 esi, esp
  01dc4	e8 00 00 00 00	 call	 __RTC_CheckEsp
$LN18@AddObstacl:

; 628  : 
; 629  : 	KCell* pInsertPos = GetLowestObstacle(nXCell, nYCell);

  01dc9	8b 55 0c	 mov	 edx, DWORD PTR _nYCell$[ebp]
  01dcc	52		 push	 edx
  01dcd	8b 45 08	 mov	 eax, DWORD PTR _nXCell$[ebp]
  01dd0	50		 push	 eax
  01dd1	8b 4d fc	 mov	 ecx, DWORD PTR _this$[ebp]
  01dd4	e8 00 00 00 00	 call	 ?GetLowestObstacle@KRegion@@QAEPAUKCell@@HH@Z ; KRegion::GetLowestObstacle
  01dd9	89 45 f4	 mov	 DWORD PTR _pInsertPos$[ebp], eax
$LN11@AddObstacl:

; 630  : 
; 631  : 	//
; 632  : 	while (!bFound)

  01ddc	83 7d f8 00	 cmp	 DWORD PTR _bFound$[ebp], 0
  01de0	0f 85 92 00 00
	00		 jne	 $LN10@AddObstacl
$LN9@AddObstacl:

; 633  : 	{
; 634  : 		KGLOG_PROCESS_ERROR(pCell->m_wLowLayer >= pInsertPos->m_wHighLayer);

  01de6	8b 4d 10	 mov	 ecx, DWORD PTR _pCell$[ebp]
  01de9	0f b7 51 04	 movzx	 edx, WORD PTR [ecx+4]
  01ded	8b 45 f4	 mov	 eax, DWORD PTR _pInsertPos$[ebp]
  01df0	0f b7 48 06	 movzx	 ecx, WORD PTR [eax+6]
  01df4	3b d1		 cmp	 edx, ecx
  01df6	7d 2c		 jge	 SHORT $LN8@AddObstacl
  01df8	8b f4		 mov	 esi, esp
  01dfa	68 00 00 00 00	 push	 OFFSET $SG177500
  01dff	68 7a 02 00 00	 push	 634			; 0000027aH
  01e04	68 00 00 00 00	 push	 OFFSET $SG177501
  01e09	68 00 00 00 00	 push	 OFFSET $SG177502
  01e0e	6a 07		 push	 7
  01e10	ff 15 00 00 00
	00		 call	 DWORD PTR __imp_?KGLogPrintf@@YAHW4KGLOG_PRIORITY@@QBDZZ
  01e16	83 c4 14	 add	 esp, 20			; 00000014H
  01e19	3b f4		 cmp	 esi, esp
  01e1b	e8 00 00 00 00	 call	 __RTC_CheckEsp
  01e20	eb 72		 jmp	 SHORT $Exit0$177503
  01e22	eb 70		 jmp	 SHORT $Exit0$177503
$LN8@AddObstacl:
  01e24	33 d2		 xor	 edx, edx
  01e26	75 be		 jne	 SHORT $LN9@AddObstacl

; 635  : 
; 636  : 		if (pInsertPos->m_pNext)

  01e28	8b 45 f4	 mov	 eax, DWORD PTR _pInsertPos$[ebp]
  01e2b	83 78 08 00	 cmp	 DWORD PTR [eax+8], 0
  01e2f	74 3b		 je	 SHORT $LN4@AddObstacl

; 637  : 		{
; 638  : 			if (pCell->m_wLowLayer >= pInsertPos->m_wHighLayer &&
; 639  : 				pCell->m_wHighLayer <= pInsertPos->m_pNext->m_wLowLayer)

  01e31	8b 4d 10	 mov	 ecx, DWORD PTR _pCell$[ebp]
  01e34	0f b7 51 04	 movzx	 edx, WORD PTR [ecx+4]
  01e38	8b 45 f4	 mov	 eax, DWORD PTR _pInsertPos$[ebp]
  01e3b	0f b7 48 06	 movzx	 ecx, WORD PTR [eax+6]
  01e3f	3b d1		 cmp	 edx, ecx
  01e41	7c 1e		 jl	 SHORT $LN3@AddObstacl
  01e43	8b 55 10	 mov	 edx, DWORD PTR _pCell$[ebp]
  01e46	0f b7 42 06	 movzx	 eax, WORD PTR [edx+6]
  01e4a	8b 4d f4	 mov	 ecx, DWORD PTR _pInsertPos$[ebp]
  01e4d	8b 51 08	 mov	 edx, DWORD PTR [ecx+8]
  01e50	0f b7 4a 04	 movzx	 ecx, WORD PTR [edx+4]
  01e54	3b c1		 cmp	 eax, ecx
  01e56	7f 09		 jg	 SHORT $LN3@AddObstacl

; 640  : 			{
; 641  : 				bFound = true;

  01e58	c7 45 f8 01 00
	00 00		 mov	 DWORD PTR _bFound$[ebp], 1

; 642  : 			}
; 643  : 			else

  01e5f	eb 09		 jmp	 SHORT $LN2@AddObstacl
$LN3@AddObstacl:

; 644  : 			{
; 645  : 				pInsertPos = pInsertPos->m_pNext;

  01e61	8b 55 f4	 mov	 edx, DWORD PTR _pInsertPos$[ebp]
  01e64	8b 42 08	 mov	 eax, DWORD PTR [edx+8]
  01e67	89 45 f4	 mov	 DWORD PTR _pInsertPos$[ebp], eax
$LN2@AddObstacl:

; 646  : 			}
; 647  : 		}
; 648  : 		else

  01e6a	eb 07		 jmp	 SHORT $LN1@AddObstacl
$LN4@AddObstacl:

; 649  : 		{			
; 650  : 			bFound = true;

  01e6c	c7 45 f8 01 00
	00 00		 mov	 DWORD PTR _bFound$[ebp], 1
$LN1@AddObstacl:

; 651  : 		}
; 652  : 	}

  01e73	e9 64 ff ff ff	 jmp	 $LN11@AddObstacl
$LN10@AddObstacl:

; 653  : 
; 654  : 	//
; 655  : 	pCell->m_pNext = pInsertPos->m_pNext;

  01e78	8b 4d 10	 mov	 ecx, DWORD PTR _pCell$[ebp]
  01e7b	8b 55 f4	 mov	 edx, DWORD PTR _pInsertPos$[ebp]
  01e7e	8b 42 08	 mov	 eax, DWORD PTR [edx+8]
  01e81	89 41 08	 mov	 DWORD PTR [ecx+8], eax

; 656  : 	pInsertPos->m_pNext = pCell;

  01e84	8b 4d f4	 mov	 ecx, DWORD PTR _pInsertPos$[ebp]
  01e87	8b 55 10	 mov	 edx, DWORD PTR _pCell$[ebp]
  01e8a	89 51 08	 mov	 DWORD PTR [ecx+8], edx

; 657  : 
; 658  : 	return true;

  01e8d	b8 01 00 00 00	 mov	 eax, 1
  01e92	eb 02		 jmp	 SHORT $LN12@AddObstacl
$Exit0$177503:

; 659  : 
; 660  : Exit0:
; 661  : 
; 662  : 	return false;

  01e94	33 c0		 xor	 eax, eax
$LN12@AddObstacl:

; 663  : }

  01e96	5e		 pop	 esi
  01e97	83 c4 0c	 add	 esp, 12			; 0000000cH
  01e9a	3b ec		 cmp	 ebp, esp
  01e9c	e8 00 00 00 00	 call	 __RTC_CheckEsp
  01ea1	8b e5		 mov	 esp, ebp
  01ea3	5d		 pop	 ebp
  01ea4	c2 0c 00	 ret	 12			; 0000000cH
?AddObstacle@KRegion@@QAEHHHPAUKCell@@@Z ENDP		; KRegion::AddObstacle
_TEXT	ENDS
PUBLIC	?AddObstacle@KRegion@@QAEHHHABUKCell@@H@Z	; KRegion::AddObstacle
; Function compile flags: /Odtp /RTCsu
_TEXT	SEGMENT
_pDynamicCell$177548 = -32				; size = 4
_dwDynamicCellFlag$ = -28				; size = 4
_pNewCell$ = -24					; size = 4
_pPreNode$ = -20					; size = 4
_pLastLowerCell$ = -16					; size = 4
_pCellNode$ = -12					; size = 4
_bResult$ = -8						; size = 4
_this$ = -4						; size = 4
_nXCell$ = 8						; size = 4
_nYCell$ = 12						; size = 4
_crCellInfo$ = 16					; size = 4
_nDynamicObstacleGroupIndex$ = 20			; size = 4
?AddObstacle@KRegion@@QAEHHHABUKCell@@H@Z PROC		; KRegion::AddObstacle
; _this$ = ecx

; 666  : {

  01eb0	55		 push	 ebp
  01eb1	8b ec		 mov	 ebp, esp
  01eb3	83 ec 20	 sub	 esp, 32			; 00000020H
  01eb6	56		 push	 esi
  01eb7	b8 cc cc cc cc	 mov	 eax, -858993460		; ccccccccH
  01ebc	89 45 e0	 mov	 DWORD PTR [ebp-32], eax
  01ebf	89 45 e4	 mov	 DWORD PTR [ebp-28], eax
  01ec2	89 45 e8	 mov	 DWORD PTR [ebp-24], eax
  01ec5	89 45 ec	 mov	 DWORD PTR [ebp-20], eax
  01ec8	89 45 f0	 mov	 DWORD PTR [ebp-16], eax
  01ecb	89 45 f4	 mov	 DWORD PTR [ebp-12], eax
  01ece	89 45 f8	 mov	 DWORD PTR [ebp-8], eax
  01ed1	89 45 fc	 mov	 DWORD PTR [ebp-4], eax
  01ed4	89 4d fc	 mov	 DWORD PTR _this$[ebp], ecx

; 667  :     BOOL   bResult              = false;

  01ed7	c7 45 f8 00 00
	00 00		 mov	 DWORD PTR _bResult$[ebp], 0

; 668  : 	KCell* pCellNode            = NULL;

  01ede	c7 45 f4 00 00
	00 00		 mov	 DWORD PTR _pCellNode$[ebp], 0

; 669  :     KCell* pLastLowerCell       = NULL;

  01ee5	c7 45 f0 00 00
	00 00		 mov	 DWORD PTR _pLastLowerCell$[ebp], 0

; 670  :     KCell* pPreNode             = NULL;

  01eec	c7 45 ec 00 00
	00 00		 mov	 DWORD PTR _pPreNode$[ebp], 0

; 671  :     KCell* pNewCell             = NULL;

  01ef3	c7 45 e8 00 00
	00 00		 mov	 DWORD PTR _pNewCell$[ebp], 0

; 672  :     DWORD  dwDynamicCellFlag    = 0;

  01efa	c7 45 e4 00 00
	00 00		 mov	 DWORD PTR _dwDynamicCellFlag$[ebp], 0

; 673  : 
; 674  : 	assert(nXCell >= 0);

  01f01	83 7d 08 00	 cmp	 DWORD PTR _nXCell$[ebp], 0
  01f05	7d 21		 jge	 SHORT $LN23@AddObstacl@2
  01f07	8b f4		 mov	 esi, esp
  01f09	68 a2 02 00 00	 push	 674			; 000002a2H
  01f0e	68 00 00 00 00	 push	 OFFSET $SG177523
  01f13	68 00 00 00 00	 push	 OFFSET $SG177524
  01f18	ff 15 00 00 00
	00		 call	 DWORD PTR __imp___wassert
  01f1e	83 c4 0c	 add	 esp, 12			; 0000000cH
  01f21	3b f4		 cmp	 esi, esp
  01f23	e8 00 00 00 00	 call	 __RTC_CheckEsp
$LN23@AddObstacl@2:

; 675  : 	assert(nXCell < REGION_GRID_WIDTH);

  01f28	83 7d 08 40	 cmp	 DWORD PTR _nXCell$[ebp], 64 ; 00000040H
  01f2c	7c 21		 jl	 SHORT $LN24@AddObstacl@2
  01f2e	8b f4		 mov	 esi, esp
  01f30	68 a3 02 00 00	 push	 675			; 000002a3H
  01f35	68 00 00 00 00	 push	 OFFSET $SG177526
  01f3a	68 00 00 00 00	 push	 OFFSET $SG177527
  01f3f	ff 15 00 00 00
	00		 call	 DWORD PTR __imp___wassert
  01f45	83 c4 0c	 add	 esp, 12			; 0000000cH
  01f48	3b f4		 cmp	 esi, esp
  01f4a	e8 00 00 00 00	 call	 __RTC_CheckEsp
$LN24@AddObstacl@2:

; 676  : 	assert(nYCell >= 0);

  01f4f	83 7d 0c 00	 cmp	 DWORD PTR _nYCell$[ebp], 0
  01f53	7d 21		 jge	 SHORT $LN25@AddObstacl@2
  01f55	8b f4		 mov	 esi, esp
  01f57	68 a4 02 00 00	 push	 676			; 000002a4H
  01f5c	68 00 00 00 00	 push	 OFFSET $SG177529
  01f61	68 00 00 00 00	 push	 OFFSET $SG177530
  01f66	ff 15 00 00 00
	00		 call	 DWORD PTR __imp___wassert
  01f6c	83 c4 0c	 add	 esp, 12			; 0000000cH
  01f6f	3b f4		 cmp	 esi, esp
  01f71	e8 00 00 00 00	 call	 __RTC_CheckEsp
$LN25@AddObstacl@2:

; 677  : 	assert(nYCell < REGION_GRID_HEIGHT);

  01f76	83 7d 0c 40	 cmp	 DWORD PTR _nYCell$[ebp], 64 ; 00000040H
  01f7a	7c 21		 jl	 SHORT $LN26@AddObstacl@2
  01f7c	8b f4		 mov	 esi, esp
  01f7e	68 a5 02 00 00	 push	 677			; 000002a5H
  01f83	68 00 00 00 00	 push	 OFFSET $SG177532
  01f88	68 00 00 00 00	 push	 OFFSET $SG177533
  01f8d	ff 15 00 00 00
	00		 call	 DWORD PTR __imp___wassert
  01f93	83 c4 0c	 add	 esp, 12			; 0000000cH
  01f96	3b f4		 cmp	 esi, esp
  01f98	e8 00 00 00 00	 call	 __RTC_CheckEsp
$LN26@AddObstacl@2:

; 678  : 
; 679  : 	pCellNode = GetLowestObstacle(nXCell, nYCell);

  01f9d	8b 4d 0c	 mov	 ecx, DWORD PTR _nYCell$[ebp]
  01fa0	51		 push	 ecx
  01fa1	8b 55 08	 mov	 edx, DWORD PTR _nXCell$[ebp]
  01fa4	52		 push	 edx
  01fa5	8b 4d fc	 mov	 ecx, DWORD PTR _this$[ebp]
  01fa8	e8 00 00 00 00	 call	 ?GetLowestObstacle@KRegion@@QAEPAUKCell@@HH@Z ; KRegion::GetLowestObstacle
  01fad	89 45 f4	 mov	 DWORD PTR _pCellNode$[ebp], eax

; 680  : 
; 681  :     // <=Cell,Cell
; 682  :     if (crCellInfo.m_BaseInfo.dwFaceUp)

  01fb0	8b 45 10	 mov	 eax, DWORD PTR _crCellInfo$[ebp]
  01fb3	8b 08		 mov	 ecx, DWORD PTR [eax]
  01fb5	c1 e9 0f	 shr	 ecx, 15			; 0000000fH
  01fb8	83 e1 01	 and	 ecx, 1
  01fbb	74 2d		 je	 SHORT $LN15@AddObstacl@2
$LN19@AddObstacl@2:

; 683  :     {
; 684  :         // Cell,
; 685  :         while (pCellNode)

  01fbd	83 7d f4 00	 cmp	 DWORD PTR _pCellNode$[ebp], 0
  01fc1	74 25		 je	 SHORT $LN18@AddObstacl@2

; 686  :         {
; 687  :             if (pCellNode->m_wLowLayer > crCellInfo.m_wLowLayer)

  01fc3	8b 55 f4	 mov	 edx, DWORD PTR _pCellNode$[ebp]
  01fc6	0f b7 42 04	 movzx	 eax, WORD PTR [edx+4]
  01fca	8b 4d 10	 mov	 ecx, DWORD PTR _crCellInfo$[ebp]
  01fcd	0f b7 51 04	 movzx	 edx, WORD PTR [ecx+4]
  01fd1	3b c2		 cmp	 eax, edx
  01fd3	7e 02		 jle	 SHORT $LN17@AddObstacl@2

; 688  :                 break;

  01fd5	eb 11		 jmp	 SHORT $LN18@AddObstacl@2
$LN17@AddObstacl@2:

; 689  :             pLastLowerCell = pCellNode;

  01fd7	8b 45 f4	 mov	 eax, DWORD PTR _pCellNode$[ebp]
  01fda	89 45 f0	 mov	 DWORD PTR _pLastLowerCell$[ebp], eax

; 690  :             pCellNode = pCellNode->m_pNext;

  01fdd	8b 4d f4	 mov	 ecx, DWORD PTR _pCellNode$[ebp]
  01fe0	8b 51 08	 mov	 edx, DWORD PTR [ecx+8]
  01fe3	89 55 f4	 mov	 DWORD PTR _pCellNode$[ebp], edx

; 691  :         }

  01fe6	eb d5		 jmp	 SHORT $LN19@AddObstacl@2
$LN18@AddObstacl@2:

; 692  :     }
; 693  :     else

  01fe8	eb 2b		 jmp	 SHORT $LN16@AddObstacl@2
$LN15@AddObstacl@2:

; 694  :     {
; 695  :         // Cell,
; 696  :         while (pCellNode)

  01fea	83 7d f4 00	 cmp	 DWORD PTR _pCellNode$[ebp], 0
  01fee	74 25		 je	 SHORT $LN16@AddObstacl@2

; 697  :         {
; 698  :             if (pCellNode->m_wLowLayer >= crCellInfo.m_wLowLayer)

  01ff0	8b 45 f4	 mov	 eax, DWORD PTR _pCellNode$[ebp]
  01ff3	0f b7 48 04	 movzx	 ecx, WORD PTR [eax+4]
  01ff7	8b 55 10	 mov	 edx, DWORD PTR _crCellInfo$[ebp]
  01ffa	0f b7 42 04	 movzx	 eax, WORD PTR [edx+4]
  01ffe	3b c8		 cmp	 ecx, eax
  02000	7c 02		 jl	 SHORT $LN13@AddObstacl@2

; 699  :                 break;

  02002	eb 11		 jmp	 SHORT $LN16@AddObstacl@2
$LN13@AddObstacl@2:

; 700  :             pLastLowerCell = pCellNode;

  02004	8b 4d f4	 mov	 ecx, DWORD PTR _pCellNode$[ebp]
  02007	89 4d f0	 mov	 DWORD PTR _pLastLowerCell$[ebp], ecx

; 701  :             pCellNode = pCellNode->m_pNext;

  0200a	8b 55 f4	 mov	 edx, DWORD PTR _pCellNode$[ebp]
  0200d	8b 42 08	 mov	 eax, DWORD PTR [edx+8]
  02010	89 45 f4	 mov	 DWORD PTR _pCellNode$[ebp], eax

; 702  :         }

  02013	eb d5		 jmp	 SHORT $LN15@AddObstacl@2
$LN16@AddObstacl@2:

; 703  :     }
; 704  : 
; 705  :     // [0, 0]Cell,
; 706  :     assert(pLastLowerCell);

  02015	83 7d f0 00	 cmp	 DWORD PTR _pLastLowerCell$[ebp], 0
  02019	75 21		 jne	 SHORT $LN27@AddObstacl@2
  0201b	8b f4		 mov	 esi, esp
  0201d	68 c2 02 00 00	 push	 706			; 000002c2H
  02022	68 00 00 00 00	 push	 OFFSET $SG177545
  02027	68 00 00 00 00	 push	 OFFSET $SG177546
  0202c	ff 15 00 00 00
	00		 call	 DWORD PTR __imp___wassert
  02032	83 c4 0c	 add	 esp, 12			; 0000000cH
  02035	3b f4		 cmp	 esi, esp
  02037	e8 00 00 00 00	 call	 __RTC_CheckEsp
$LN27@AddObstacl@2:

; 707  : 
; 708  :     if (nDynamicObstacleGroupIndex != INVALID_OBSTACLE_GROUP)

  0203c	83 7d 14 ff	 cmp	 DWORD PTR _nDynamicObstacleGroupIndex$[ebp], -1
  02040	74 5e		 je	 SHORT $LN12@AddObstacl@2

; 709  :     {
; 710  :         KDynamicCell* pDynamicCell = KMemory::RawNew<KDynamicCell>();

  02042	e8 00 00 00 00	 call	 ??$RawNew@UKDynamicCell@@@KMemory@@YAPAUKDynamicCell@@XZ ; KMemory::RawNew<KDynamicCell>
  02047	89 45 e0	 mov	 DWORD PTR _pDynamicCell$177548[ebp], eax
$LN11@AddObstacl@2:

; 711  :         KGLOG_PROCESS_ERROR(pDynamicCell);

  0204a	83 7d e0 00	 cmp	 DWORD PTR _pDynamicCell$177548[ebp], 0
  0204e	75 32		 jne	 SHORT $LN10@AddObstacl@2
  02050	8b f4		 mov	 esi, esp
  02052	68 00 00 00 00	 push	 OFFSET $SG177554
  02057	68 c7 02 00 00	 push	 711			; 000002c7H
  0205c	68 00 00 00 00	 push	 OFFSET $SG177555
  02061	68 00 00 00 00	 push	 OFFSET $SG177556
  02066	6a 07		 push	 7
  02068	ff 15 00 00 00
	00		 call	 DWORD PTR __imp_?KGLogPrintf@@YAHW4KGLOG_PRIORITY@@QBDZZ
  0206e	83 c4 14	 add	 esp, 20			; 00000014H
  02071	3b f4		 cmp	 esi, esp
  02073	e8 00 00 00 00	 call	 __RTC_CheckEsp
  02078	e9 bd 00 00 00	 jmp	 $Exit0$177557
  0207d	e9 b8 00 00 00	 jmp	 $Exit0$177557
$LN10@AddObstacl@2:
  02082	33 d2		 xor	 edx, edx
  02084	75 c4		 jne	 SHORT $LN11@AddObstacl@2

; 712  : 
; 713  :         pDynamicCell->m_wGroupIndex = (WORD)nDynamicObstacleGroupIndex;

  02086	8b 45 e0	 mov	 eax, DWORD PTR _pDynamicCell$177548[ebp]
  02089	66 8b 4d 14	 mov	 cx, WORD PTR _nDynamicObstacleGroupIndex$[ebp]
  0208d	66 89 48 0c	 mov	 WORD PTR [eax+12], cx

; 714  :         dwDynamicCellFlag = 1;

  02091	c7 45 e4 01 00
	00 00		 mov	 DWORD PTR _dwDynamicCellFlag$[ebp], 1

; 715  :         pNewCell = pDynamicCell;

  02098	8b 55 e0	 mov	 edx, DWORD PTR _pDynamicCell$177548[ebp]
  0209b	89 55 e8	 mov	 DWORD PTR _pNewCell$[ebp], edx

; 716  :     }
; 717  :     else

  0209e	eb 3e		 jmp	 SHORT $LN6@AddObstacl@2
$LN12@AddObstacl@2:

; 718  :     {
; 719  :         pNewCell = KMemory::RawNew<KCell>();

  020a0	e8 00 00 00 00	 call	 ??$RawNew@UKCell@@@KMemory@@YAPAUKCell@@XZ ; KMemory::RawNew<KCell>
  020a5	89 45 e8	 mov	 DWORD PTR _pNewCell$[ebp], eax
$LN5@AddObstacl@2:

; 720  :         KGLOG_PROCESS_ERROR(pNewCell);

  020a8	83 7d e8 00	 cmp	 DWORD PTR _pNewCell$[ebp], 0
  020ac	75 2c		 jne	 SHORT $LN4@AddObstacl@2
  020ae	8b f4		 mov	 esi, esp
  020b0	68 00 00 00 00	 push	 OFFSET $SG177566
  020b5	68 d0 02 00 00	 push	 720			; 000002d0H
  020ba	68 00 00 00 00	 push	 OFFSET $SG177567
  020bf	68 00 00 00 00	 push	 OFFSET $SG177568
  020c4	6a 07		 push	 7
  020c6	ff 15 00 00 00
	00		 call	 DWORD PTR __imp_?KGLogPrintf@@YAHW4KGLOG_PRIORITY@@QBDZZ
  020cc	83 c4 14	 add	 esp, 20			; 00000014H
  020cf	3b f4		 cmp	 esi, esp
  020d1	e8 00 00 00 00	 call	 __RTC_CheckEsp
  020d6	eb 62		 jmp	 SHORT $Exit0$177557
  020d8	eb 60		 jmp	 SHORT $Exit0$177557
$LN4@AddObstacl@2:
  020da	33 c0		 xor	 eax, eax
  020dc	75 ca		 jne	 SHORT $LN5@AddObstacl@2
$LN6@AddObstacl@2:

; 721  :     }
; 722  : 
; 723  :     pNewCell->m_wLowLayer   = crCellInfo.m_wLowLayer;

  020de	8b 4d e8	 mov	 ecx, DWORD PTR _pNewCell$[ebp]
  020e1	8b 55 10	 mov	 edx, DWORD PTR _crCellInfo$[ebp]
  020e4	66 8b 42 04	 mov	 ax, WORD PTR [edx+4]
  020e8	66 89 41 04	 mov	 WORD PTR [ecx+4], ax

; 724  :     pNewCell->m_wHighLayer  = crCellInfo.m_wHighLayer;

  020ec	8b 4d e8	 mov	 ecx, DWORD PTR _pNewCell$[ebp]
  020ef	8b 55 10	 mov	 edx, DWORD PTR _crCellInfo$[ebp]
  020f2	66 8b 42 06	 mov	 ax, WORD PTR [edx+6]
  020f6	66 89 41 06	 mov	 WORD PTR [ecx+6], ax

; 725  :     pNewCell->m_BaseInfo    = crCellInfo.m_BaseInfo;

  020fa	8b 4d 10	 mov	 ecx, DWORD PTR _crCellInfo$[ebp]
  020fd	8b 11		 mov	 edx, DWORD PTR [ecx]
  020ff	8b 45 e8	 mov	 eax, DWORD PTR _pNewCell$[ebp]
  02102	89 10		 mov	 DWORD PTR [eax], edx

; 726  : 
; 727  :     pNewCell->m_BaseInfo.dwDynamic = dwDynamicCellFlag;

  02104	8b 4d e4	 mov	 ecx, DWORD PTR _dwDynamicCellFlag$[ebp]
  02107	83 e1 01	 and	 ecx, 1
  0210a	c1 e1 10	 shl	 ecx, 16			; 00000010H
  0210d	8b 55 e8	 mov	 edx, DWORD PTR _pNewCell$[ebp]
  02110	8b 02		 mov	 eax, DWORD PTR [edx]
  02112	25 ff ff fe ff	 and	 eax, -65537		; fffeffffH
  02117	0b c1		 or	 eax, ecx
  02119	8b 4d e8	 mov	 ecx, DWORD PTR _pNewCell$[ebp]
  0211c	89 01		 mov	 DWORD PTR [ecx], eax

; 728  : 
; 729  :     pNewCell->m_pNext       = pLastLowerCell->m_pNext;

  0211e	8b 55 e8	 mov	 edx, DWORD PTR _pNewCell$[ebp]
  02121	8b 45 f0	 mov	 eax, DWORD PTR _pLastLowerCell$[ebp]
  02124	8b 48 08	 mov	 ecx, DWORD PTR [eax+8]
  02127	89 4a 08	 mov	 DWORD PTR [edx+8], ecx

; 730  :     pLastLowerCell->m_pNext = pNewCell;

  0212a	8b 55 f0	 mov	 edx, DWORD PTR _pLastLowerCell$[ebp]
  0212d	8b 45 e8	 mov	 eax, DWORD PTR _pNewCell$[ebp]
  02130	89 42 08	 mov	 DWORD PTR [edx+8], eax

; 731  : 
; 732  :     bResult = true;

  02133	c7 45 f8 01 00
	00 00		 mov	 DWORD PTR _bResult$[ebp], 1
$Exit0$177557:

; 733  : Exit0:
; 734  : 	return bResult;

  0213a	8b 45 f8	 mov	 eax, DWORD PTR _bResult$[ebp]

; 735  : }

  0213d	5e		 pop	 esi
  0213e	83 c4 20	 add	 esp, 32			; 00000020H
  02141	3b ec		 cmp	 ebp, esp
  02143	e8 00 00 00 00	 call	 __RTC_CheckEsp
  02148	8b e5		 mov	 esp, ebp
  0214a	5d		 pop	 ebp
  0214b	c2 10 00	 ret	 16			; 00000010H
?AddObstacle@KRegion@@QAEHHHABUKCell@@H@Z ENDP		; KRegion::AddObstacle
_TEXT	ENDS
PUBLIC	?RemoveObstacle@KRegion@@QAEPAUKCell@@HHH@Z	; KRegion::RemoveObstacle
; Function compile flags: /Odtp /RTCsu
_TEXT	SEGMENT
_pRemovePos$ = -16					; size = 4
_pCell$ = -12						; size = 4
_bFound$ = -8						; size = 4
_this$ = -4						; size = 4
_nXCell$ = 8						; size = 4
_nYCell$ = 12						; size = 4
_nZ$ = 16						; size = 4
?RemoveObstacle@KRegion@@QAEPAUKCell@@HHH@Z PROC	; KRegion::RemoveObstacle
; _this$ = ecx

; 739  : {

  02150	55		 push	 ebp
  02151	8b ec		 mov	 ebp, esp
  02153	83 ec 10	 sub	 esp, 16			; 00000010H
  02156	56		 push	 esi
  02157	b8 cc cc cc cc	 mov	 eax, -858993460		; ccccccccH
  0215c	89 45 f0	 mov	 DWORD PTR [ebp-16], eax
  0215f	89 45 f4	 mov	 DWORD PTR [ebp-12], eax
  02162	89 45 f8	 mov	 DWORD PTR [ebp-8], eax
  02165	89 45 fc	 mov	 DWORD PTR [ebp-4], eax
  02168	89 4d fc	 mov	 DWORD PTR _this$[ebp], ecx

; 740  : 	BOOL    bFound      = false;

  0216b	c7 45 f8 00 00
	00 00		 mov	 DWORD PTR _bFound$[ebp], 0

; 741  :     KCell*  pCell       = NULL;

  02172	c7 45 f4 00 00
	00 00		 mov	 DWORD PTR _pCell$[ebp], 0

; 742  :     KCell*  pRemovePos  = NULL;

  02179	c7 45 f0 00 00
	00 00		 mov	 DWORD PTR _pRemovePos$[ebp], 0

; 743  : 
; 744  : 	assert(nXCell >= 0);

  02180	83 7d 08 00	 cmp	 DWORD PTR _nXCell$[ebp], 0
  02184	7d 21		 jge	 SHORT $LN22@RemoveObst
  02186	8b f4		 mov	 esi, esp
  02188	68 e8 02 00 00	 push	 744			; 000002e8H
  0218d	68 00 00 00 00	 push	 OFFSET $SG177580
  02192	68 00 00 00 00	 push	 OFFSET $SG177581
  02197	ff 15 00 00 00
	00		 call	 DWORD PTR __imp___wassert
  0219d	83 c4 0c	 add	 esp, 12			; 0000000cH
  021a0	3b f4		 cmp	 esi, esp
  021a2	e8 00 00 00 00	 call	 __RTC_CheckEsp
$LN22@RemoveObst:

; 745  : 	assert(nXCell < REGION_GRID_WIDTH);

  021a7	83 7d 08 40	 cmp	 DWORD PTR _nXCell$[ebp], 64 ; 00000040H
  021ab	7c 21		 jl	 SHORT $LN23@RemoveObst
  021ad	8b f4		 mov	 esi, esp
  021af	68 e9 02 00 00	 push	 745			; 000002e9H
  021b4	68 00 00 00 00	 push	 OFFSET $SG177583
  021b9	68 00 00 00 00	 push	 OFFSET $SG177584
  021be	ff 15 00 00 00
	00		 call	 DWORD PTR __imp___wassert
  021c4	83 c4 0c	 add	 esp, 12			; 0000000cH
  021c7	3b f4		 cmp	 esi, esp
  021c9	e8 00 00 00 00	 call	 __RTC_CheckEsp
$LN23@RemoveObst:

; 746  : 	assert(nYCell >= 0);

  021ce	83 7d 0c 00	 cmp	 DWORD PTR _nYCell$[ebp], 0
  021d2	7d 21		 jge	 SHORT $LN24@RemoveObst
  021d4	8b f4		 mov	 esi, esp
  021d6	68 ea 02 00 00	 push	 746			; 000002eaH
  021db	68 00 00 00 00	 push	 OFFSET $SG177586
  021e0	68 00 00 00 00	 push	 OFFSET $SG177587
  021e5	ff 15 00 00 00
	00		 call	 DWORD PTR __imp___wassert
  021eb	83 c4 0c	 add	 esp, 12			; 0000000cH
  021ee	3b f4		 cmp	 esi, esp
  021f0	e8 00 00 00 00	 call	 __RTC_CheckEsp
$LN24@RemoveObst:

; 747  : 	assert(nYCell < REGION_GRID_HEIGHT);

  021f5	83 7d 0c 40	 cmp	 DWORD PTR _nYCell$[ebp], 64 ; 00000040H
  021f9	7c 21		 jl	 SHORT $LN25@RemoveObst
  021fb	8b f4		 mov	 esi, esp
  021fd	68 eb 02 00 00	 push	 747			; 000002ebH
  02202	68 00 00 00 00	 push	 OFFSET $SG177589
  02207	68 00 00 00 00	 push	 OFFSET $SG177590
  0220c	ff 15 00 00 00
	00		 call	 DWORD PTR __imp___wassert
  02212	83 c4 0c	 add	 esp, 12			; 0000000cH
  02215	3b f4		 cmp	 esi, esp
  02217	e8 00 00 00 00	 call	 __RTC_CheckEsp
$LN25@RemoveObst:

; 748  : 
; 749  : 	pRemovePos = GetLowestObstacle(nXCell, nYCell);

  0221c	8b 4d 0c	 mov	 ecx, DWORD PTR _nYCell$[ebp]
  0221f	51		 push	 ecx
  02220	8b 55 08	 mov	 edx, DWORD PTR _nXCell$[ebp]
  02223	52		 push	 edx
  02224	8b 4d fc	 mov	 ecx, DWORD PTR _this$[ebp]
  02227	e8 00 00 00 00	 call	 ?GetLowestObstacle@KRegion@@QAEPAUKCell@@HH@Z ; KRegion::GetLowestObstacle
  0222c	89 45 f0	 mov	 DWORD PTR _pRemovePos$[ebp], eax
$LN19@RemoveObst:

; 750  : 
; 751  : 	while (!bFound)

  0222f	83 7d f8 00	 cmp	 DWORD PTR _bFound$[ebp], 0
  02233	75 67		 jne	 SHORT $LN5@RemoveObst
$LN17@RemoveObst:

; 752  : 	{
; 753  : 		KG_PROCESS_ERROR(pRemovePos->m_pNext);

  02235	8b 45 f0	 mov	 eax, DWORD PTR _pRemovePos$[ebp]
  02238	83 78 08 00	 cmp	 DWORD PTR [eax+8], 0
  0223c	75 0a		 jne	 SHORT $LN16@RemoveObst
  0223e	e9 87 00 00 00	 jmp	 $Exit0$177598
  02243	e9 82 00 00 00	 jmp	 $Exit0$177598
$LN16@RemoveObst:
  02248	33 c9		 xor	 ecx, ecx
  0224a	75 e9		 jne	 SHORT $LN17@RemoveObst

; 754  : 		if ((nZ / POINT_PER_ALTITUDE) <= pRemovePos->m_pNext->m_wHighLayer)

  0224c	8b 45 10	 mov	 eax, DWORD PTR _nZ$[ebp]
  0224f	99		 cdq
  02250	83 e2 3f	 and	 edx, 63			; 0000003fH
  02253	03 c2		 add	 eax, edx
  02255	c1 f8 06	 sar	 eax, 6
  02258	8b 55 f0	 mov	 edx, DWORD PTR _pRemovePos$[ebp]
  0225b	8b 4a 08	 mov	 ecx, DWORD PTR [edx+8]
  0225e	0f b7 51 06	 movzx	 edx, WORD PTR [ecx+6]
  02262	3b c2		 cmp	 eax, edx
  02264	7f 2b		 jg	 SHORT $LN12@RemoveObst
$LN11@RemoveObst:

; 755  : 		{
; 756  : 			KG_PROCESS_ERROR((nZ / POINT_PER_ALTITUDE) >= pRemovePos->m_pNext->m_wLowLayer);

  02266	8b 45 10	 mov	 eax, DWORD PTR _nZ$[ebp]
  02269	99		 cdq
  0226a	83 e2 3f	 and	 edx, 63			; 0000003fH
  0226d	03 c2		 add	 eax, edx
  0226f	c1 f8 06	 sar	 eax, 6
  02272	8b 4d f0	 mov	 ecx, DWORD PTR _pRemovePos$[ebp]
  02275	8b 51 08	 mov	 edx, DWORD PTR [ecx+8]
  02278	0f b7 4a 04	 movzx	 ecx, WORD PTR [edx+4]
  0227c	3b c1		 cmp	 eax, ecx
  0227e	7d 04		 jge	 SHORT $LN10@RemoveObst
  02280	eb 48		 jmp	 SHORT $Exit0$177598
  02282	eb 46		 jmp	 SHORT $Exit0$177598
$LN10@RemoveObst:
  02284	33 d2		 xor	 edx, edx
  02286	75 de		 jne	 SHORT $LN11@RemoveObst

; 757  : 			bFound = true;

  02288	c7 45 f8 01 00
	00 00		 mov	 DWORD PTR _bFound$[ebp], 1

; 758  : 		}
; 759  : 		else

  0228f	eb 09		 jmp	 SHORT $LN6@RemoveObst
$LN12@RemoveObst:

; 760  : 		{
; 761  : 			pRemovePos = pRemovePos->m_pNext;

  02291	8b 45 f0	 mov	 eax, DWORD PTR _pRemovePos$[ebp]
  02294	8b 48 08	 mov	 ecx, DWORD PTR [eax+8]
  02297	89 4d f0	 mov	 DWORD PTR _pRemovePos$[ebp], ecx
$LN6@RemoveObst:

; 762  : 		}
; 763  : 	}

  0229a	eb 93		 jmp	 SHORT $LN19@RemoveObst
$LN5@RemoveObst:

; 764  : 
; 765  : 	KG_PROCESS_ERROR(pRemovePos->m_pNext);

  0229c	8b 55 f0	 mov	 edx, DWORD PTR _pRemovePos$[ebp]
  0229f	83 7a 08 00	 cmp	 DWORD PTR [edx+8], 0
  022a3	75 04		 jne	 SHORT $LN4@RemoveObst
  022a5	eb 23		 jmp	 SHORT $Exit0$177598
  022a7	eb 21		 jmp	 SHORT $Exit0$177598
$LN4@RemoveObst:
  022a9	33 c0		 xor	 eax, eax
  022ab	75 ef		 jne	 SHORT $LN5@RemoveObst

; 766  : 
; 767  : 	pCell = pRemovePos->m_pNext;

  022ad	8b 4d f0	 mov	 ecx, DWORD PTR _pRemovePos$[ebp]
  022b0	8b 51 08	 mov	 edx, DWORD PTR [ecx+8]
  022b3	89 55 f4	 mov	 DWORD PTR _pCell$[ebp], edx

; 768  : 	pRemovePos->m_pNext = pRemovePos->m_pNext->m_pNext;

  022b6	8b 45 f0	 mov	 eax, DWORD PTR _pRemovePos$[ebp]
  022b9	8b 48 08	 mov	 ecx, DWORD PTR [eax+8]
  022bc	8b 55 f0	 mov	 edx, DWORD PTR _pRemovePos$[ebp]
  022bf	8b 41 08	 mov	 eax, DWORD PTR [ecx+8]
  022c2	89 42 08	 mov	 DWORD PTR [edx+8], eax

; 769  : 
; 770  : 	return pCell;

  022c5	8b 45 f4	 mov	 eax, DWORD PTR _pCell$[ebp]
  022c8	eb 02		 jmp	 SHORT $LN20@RemoveObst
$Exit0$177598:

; 771  : 
; 772  : Exit0:
; 773  : 
; 774  : 	return NULL;

  022ca	33 c0		 xor	 eax, eax
$LN20@RemoveObst:

; 775  : }

  022cc	5e		 pop	 esi
  022cd	83 c4 10	 add	 esp, 16			; 00000010H
  022d0	3b ec		 cmp	 ebp, esp
  022d2	e8 00 00 00 00	 call	 __RTC_CheckEsp
  022d7	8b e5		 mov	 esp, ebp
  022d9	5d		 pop	 ebp
  022da	c2 0c 00	 ret	 12			; 0000000cH
?RemoveObstacle@KRegion@@QAEPAUKCell@@HHH@Z ENDP	; KRegion::RemoveObstacle
_TEXT	ENDS
PUBLIC	?GetBaseCellInfo@KRegion@@QAEHHHPAUKCell@@@Z	; KRegion::GetBaseCellInfo
; Function compile flags: /Odtp /RTCsu
_TEXT	SEGMENT
_pBaseCell$ = -12					; size = 4
_bResult$ = -8						; size = 4
_this$ = -4						; size = 4
_nXCell$ = 8						; size = 4
_nYCell$ = 12						; size = 4
_pCell$ = 16						; size = 4
?GetBaseCellInfo@KRegion@@QAEHHHPAUKCell@@@Z PROC	; KRegion::GetBaseCellInfo
; _this$ = ecx

; 779  : {

  022e0	55		 push	 ebp
  022e1	8b ec		 mov	 ebp, esp
  022e3	83 ec 0c	 sub	 esp, 12			; 0000000cH
  022e6	56		 push	 esi
  022e7	c7 45 f4 cc cc
	cc cc		 mov	 DWORD PTR [ebp-12], -858993460 ; ccccccccH
  022ee	c7 45 f8 cc cc
	cc cc		 mov	 DWORD PTR [ebp-8], -858993460 ; ccccccccH
  022f5	c7 45 fc cc cc
	cc cc		 mov	 DWORD PTR [ebp-4], -858993460 ; ccccccccH
  022fc	89 4d fc	 mov	 DWORD PTR _this$[ebp], ecx

; 780  :     BOOL    bResult     = false;

  022ff	c7 45 f8 00 00
	00 00		 mov	 DWORD PTR _bResult$[ebp], 0

; 781  :     KCell*  pBaseCell   = NULL;

  02306	c7 45 f4 00 00
	00 00		 mov	 DWORD PTR _pBaseCell$[ebp], 0
$LN17@GetBaseCel:

; 782  : 
; 783  :     KGLOG_PROCESS_ERROR(nXCell >= 0 && nXCell < REGION_GRID_WIDTH);

  0230d	83 7d 08 00	 cmp	 DWORD PTR _nXCell$[ebp], 0
  02311	7c 06		 jl	 SHORT $LN13@GetBaseCel
  02313	83 7d 08 40	 cmp	 DWORD PTR _nXCell$[ebp], 64 ; 00000040H
  02317	7c 32		 jl	 SHORT $LN16@GetBaseCel
$LN13@GetBaseCel:
  02319	8b f4		 mov	 esi, esp
  0231b	68 00 00 00 00	 push	 OFFSET $SG177625
  02320	68 0f 03 00 00	 push	 783			; 0000030fH
  02325	68 00 00 00 00	 push	 OFFSET $SG177626
  0232a	68 00 00 00 00	 push	 OFFSET $SG177627
  0232f	6a 07		 push	 7
  02331	ff 15 00 00 00
	00		 call	 DWORD PTR __imp_?KGLogPrintf@@YAHW4KGLOG_PRIORITY@@QBDZZ
  02337	83 c4 14	 add	 esp, 20			; 00000014H
  0233a	3b f4		 cmp	 esi, esp
  0233c	e8 00 00 00 00	 call	 __RTC_CheckEsp
  02341	e9 ab 00 00 00	 jmp	 $Exit0$177628
  02346	e9 a6 00 00 00	 jmp	 $Exit0$177628
$LN16@GetBaseCel:
  0234b	33 c0		 xor	 eax, eax
  0234d	75 be		 jne	 SHORT $LN17@GetBaseCel
$LN11@GetBaseCel:

; 784  :     KGLOG_PROCESS_ERROR(nYCell >= 0 && nYCell < REGION_GRID_HEIGHT);

  0234f	83 7d 0c 00	 cmp	 DWORD PTR _nYCell$[ebp], 0
  02353	7c 06		 jl	 SHORT $LN7@GetBaseCel
  02355	83 7d 0c 40	 cmp	 DWORD PTR _nYCell$[ebp], 64 ; 00000040H
  02359	7c 2c		 jl	 SHORT $LN10@GetBaseCel
$LN7@GetBaseCel:
  0235b	8b f4		 mov	 esi, esp
  0235d	68 00 00 00 00	 push	 OFFSET $SG177635
  02362	68 10 03 00 00	 push	 784			; 00000310H
  02367	68 00 00 00 00	 push	 OFFSET $SG177636
  0236c	68 00 00 00 00	 push	 OFFSET $SG177637
  02371	6a 07		 push	 7
  02373	ff 15 00 00 00
	00		 call	 DWORD PTR __imp_?KGLogPrintf@@YAHW4KGLOG_PRIORITY@@QBDZZ
  02379	83 c4 14	 add	 esp, 20			; 00000014H
  0237c	3b f4		 cmp	 esi, esp
  0237e	e8 00 00 00 00	 call	 __RTC_CheckEsp
  02383	eb 6c		 jmp	 SHORT $Exit0$177628
  02385	eb 6a		 jmp	 SHORT $Exit0$177628
$LN10@GetBaseCel:
  02387	33 c9		 xor	 ecx, ecx
  02389	75 c4		 jne	 SHORT $LN11@GetBaseCel

; 785  : 
; 786  :     pBaseCell = GetLowestObstacle(nXCell, nYCell);

  0238b	8b 55 0c	 mov	 edx, DWORD PTR _nYCell$[ebp]
  0238e	52		 push	 edx
  0238f	8b 45 08	 mov	 eax, DWORD PTR _nXCell$[ebp]
  02392	50		 push	 eax
  02393	8b 4d fc	 mov	 ecx, DWORD PTR _this$[ebp]
  02396	e8 00 00 00 00	 call	 ?GetLowestObstacle@KRegion@@QAEPAUKCell@@HH@Z ; KRegion::GetLowestObstacle
  0239b	89 45 f4	 mov	 DWORD PTR _pBaseCell$[ebp], eax
$LN5@GetBaseCel:

; 787  :     KGLOG_PROCESS_ERROR(pBaseCell);

  0239e	83 7d f4 00	 cmp	 DWORD PTR _pBaseCell$[ebp], 0
  023a2	75 2c		 jne	 SHORT $LN4@GetBaseCel
  023a4	8b f4		 mov	 esi, esp
  023a6	68 00 00 00 00	 push	 OFFSET $SG177643
  023ab	68 13 03 00 00	 push	 787			; 00000313H
  023b0	68 00 00 00 00	 push	 OFFSET $SG177644
  023b5	68 00 00 00 00	 push	 OFFSET $SG177645
  023ba	6a 07		 push	 7
  023bc	ff 15 00 00 00
	00		 call	 DWORD PTR __imp_?KGLogPrintf@@YAHW4KGLOG_PRIORITY@@QBDZZ
  023c2	83 c4 14	 add	 esp, 20			; 00000014H
  023c5	3b f4		 cmp	 esi, esp
  023c7	e8 00 00 00 00	 call	 __RTC_CheckEsp
  023cc	eb 23		 jmp	 SHORT $Exit0$177628
  023ce	eb 21		 jmp	 SHORT $Exit0$177628
$LN4@GetBaseCel:
  023d0	33 c9		 xor	 ecx, ecx
  023d2	75 ca		 jne	 SHORT $LN5@GetBaseCel

; 788  : 
; 789  : 	*pCell = *pBaseCell;

  023d4	8b 55 f4	 mov	 edx, DWORD PTR _pBaseCell$[ebp]
  023d7	8b 45 10	 mov	 eax, DWORD PTR _pCell$[ebp]
  023da	8b 0a		 mov	 ecx, DWORD PTR [edx]
  023dc	89 08		 mov	 DWORD PTR [eax], ecx
  023de	8b 4a 04	 mov	 ecx, DWORD PTR [edx+4]
  023e1	89 48 04	 mov	 DWORD PTR [eax+4], ecx
  023e4	8b 52 08	 mov	 edx, DWORD PTR [edx+8]
  023e7	89 50 08	 mov	 DWORD PTR [eax+8], edx

; 790  : 
; 791  :     bResult = true;

  023ea	c7 45 f8 01 00
	00 00		 mov	 DWORD PTR _bResult$[ebp], 1
$Exit0$177628:

; 792  : Exit0:
; 793  : 	return bResult;

  023f1	8b 45 f8	 mov	 eax, DWORD PTR _bResult$[ebp]

; 794  : }

  023f4	5e		 pop	 esi
  023f5	83 c4 0c	 add	 esp, 12			; 0000000cH
  023f8	3b ec		 cmp	 ebp, esp
  023fa	e8 00 00 00 00	 call	 __RTC_CheckEsp
  023ff	8b e5		 mov	 esp, ebp
  02401	5d		 pop	 ebp
  02402	c2 0c 00	 ret	 12			; 0000000cH
?GetBaseCellInfo@KRegion@@QAEHHHPAUKCell@@@Z ENDP	; KRegion::GetBaseCellInfo
_TEXT	ENDS
PUBLIC	?SetBaseCellInfo@KRegion@@QAEHHHAAUKCell@@@Z	; KRegion::SetBaseCellInfo
; Function compile flags: /Odtp /RTCsu
_TEXT	SEGMENT
_pCell$ = -12						; size = 4
_bResult$ = -8						; size = 4
_this$ = -4						; size = 4
_nXCell$ = 8						; size = 4
_nYCell$ = 12						; size = 4
_rCell$ = 16						; size = 4
?SetBaseCellInfo@KRegion@@QAEHHHAAUKCell@@@Z PROC	; KRegion::SetBaseCellInfo
; _this$ = ecx

; 797  : {

  02410	55		 push	 ebp
  02411	8b ec		 mov	 ebp, esp
  02413	83 ec 0c	 sub	 esp, 12			; 0000000cH
  02416	56		 push	 esi
  02417	c7 45 f4 cc cc
	cc cc		 mov	 DWORD PTR [ebp-12], -858993460 ; ccccccccH
  0241e	c7 45 f8 cc cc
	cc cc		 mov	 DWORD PTR [ebp-8], -858993460 ; ccccccccH
  02425	c7 45 fc cc cc
	cc cc		 mov	 DWORD PTR [ebp-4], -858993460 ; ccccccccH
  0242c	89 4d fc	 mov	 DWORD PTR _this$[ebp], ecx

; 798  :     BOOL    bResult = false;

  0242f	c7 45 f8 00 00
	00 00		 mov	 DWORD PTR _bResult$[ebp], 0

; 799  :     KCell*  pCell   = NULL;

  02436	c7 45 f4 00 00
	00 00		 mov	 DWORD PTR _pCell$[ebp], 0
$LN12@SetBaseCel:

; 800  : 
; 801  :     KGLOG_PROCESS_ERROR(nXCell >= 0 && nXCell < REGION_GRID_WIDTH);

  0243d	83 7d 08 00	 cmp	 DWORD PTR _nXCell$[ebp], 0
  02441	7c 06		 jl	 SHORT $LN8@SetBaseCel
  02443	83 7d 08 40	 cmp	 DWORD PTR _nXCell$[ebp], 64 ; 00000040H
  02447	7c 32		 jl	 SHORT $LN11@SetBaseCel
$LN8@SetBaseCel:
  02449	8b f4		 mov	 esi, esp
  0244b	68 00 00 00 00	 push	 OFFSET $SG177660
  02450	68 21 03 00 00	 push	 801			; 00000321H
  02455	68 00 00 00 00	 push	 OFFSET $SG177661
  0245a	68 00 00 00 00	 push	 OFFSET $SG177662
  0245f	6a 07		 push	 7
  02461	ff 15 00 00 00
	00		 call	 DWORD PTR __imp_?KGLogPrintf@@YAHW4KGLOG_PRIORITY@@QBDZZ
  02467	83 c4 14	 add	 esp, 20			; 00000014H
  0246a	3b f4		 cmp	 esi, esp
  0246c	e8 00 00 00 00	 call	 __RTC_CheckEsp
  02471	e9 85 00 00 00	 jmp	 $Exit0$177663
  02476	e9 80 00 00 00	 jmp	 $Exit0$177663
$LN11@SetBaseCel:
  0247b	33 c0		 xor	 eax, eax
  0247d	75 be		 jne	 SHORT $LN12@SetBaseCel
$LN6@SetBaseCel:

; 802  :     KGLOG_PROCESS_ERROR(nYCell >= 0 && nYCell < REGION_GRID_HEIGHT);

  0247f	83 7d 0c 00	 cmp	 DWORD PTR _nYCell$[ebp], 0
  02483	7c 06		 jl	 SHORT $LN2@SetBaseCel
  02485	83 7d 0c 40	 cmp	 DWORD PTR _nYCell$[ebp], 64 ; 00000040H
  02489	7c 2c		 jl	 SHORT $LN5@SetBaseCel
$LN2@SetBaseCel:
  0248b	8b f4		 mov	 esi, esp
  0248d	68 00 00 00 00	 push	 OFFSET $SG177670
  02492	68 22 03 00 00	 push	 802			; 00000322H
  02497	68 00 00 00 00	 push	 OFFSET $SG177671
  0249c	68 00 00 00 00	 push	 OFFSET $SG177672
  024a1	6a 07		 push	 7
  024a3	ff 15 00 00 00
	00		 call	 DWORD PTR __imp_?KGLogPrintf@@YAHW4KGLOG_PRIORITY@@QBDZZ
  024a9	83 c4 14	 add	 esp, 20			; 00000014H
  024ac	3b f4		 cmp	 esi, esp
  024ae	e8 00 00 00 00	 call	 __RTC_CheckEsp
  024b3	eb 46		 jmp	 SHORT $Exit0$177663
  024b5	eb 44		 jmp	 SHORT $Exit0$177663
$LN5@SetBaseCel:
  024b7	33 c9		 xor	 ecx, ecx
  024b9	75 c4		 jne	 SHORT $LN6@SetBaseCel

; 803  : 
; 804  : 	pCell = GetLowestObstacle(nXCell, nYCell);

  024bb	8b 55 0c	 mov	 edx, DWORD PTR _nYCell$[ebp]
  024be	52		 push	 edx
  024bf	8b 45 08	 mov	 eax, DWORD PTR _nXCell$[ebp]
  024c2	50		 push	 eax
  024c3	8b 4d fc	 mov	 ecx, DWORD PTR _this$[ebp]
  024c6	e8 00 00 00 00	 call	 ?GetLowestObstacle@KRegion@@QAEPAUKCell@@HH@Z ; KRegion::GetLowestObstacle
  024cb	89 45 f4	 mov	 DWORD PTR _pCell$[ebp], eax

; 805  : 
; 806  :     pCell->m_wLowLayer  = rCell.m_wLowLayer;

  024ce	8b 4d f4	 mov	 ecx, DWORD PTR _pCell$[ebp]
  024d1	8b 55 10	 mov	 edx, DWORD PTR _rCell$[ebp]
  024d4	66 8b 42 04	 mov	 ax, WORD PTR [edx+4]
  024d8	66 89 41 04	 mov	 WORD PTR [ecx+4], ax

; 807  :     pCell->m_wHighLayer = rCell.m_wHighLayer;

  024dc	8b 4d f4	 mov	 ecx, DWORD PTR _pCell$[ebp]
  024df	8b 55 10	 mov	 edx, DWORD PTR _rCell$[ebp]
  024e2	66 8b 42 06	 mov	 ax, WORD PTR [edx+6]
  024e6	66 89 41 06	 mov	 WORD PTR [ecx+6], ax

; 808  :     pCell->m_BaseInfo   = rCell.m_BaseInfo;

  024ea	8b 4d 10	 mov	 ecx, DWORD PTR _rCell$[ebp]
  024ed	8b 11		 mov	 edx, DWORD PTR [ecx]
  024ef	8b 45 f4	 mov	 eax, DWORD PTR _pCell$[ebp]
  024f2	89 10		 mov	 DWORD PTR [eax], edx

; 809  : 
; 810  :     bResult = true;

  024f4	c7 45 f8 01 00
	00 00		 mov	 DWORD PTR _bResult$[ebp], 1
$Exit0$177663:

; 811  : Exit0:
; 812  : 	return bResult;

  024fb	8b 45 f8	 mov	 eax, DWORD PTR _bResult$[ebp]

; 813  : }

  024fe	5e		 pop	 esi
  024ff	83 c4 0c	 add	 esp, 12			; 0000000cH
  02502	3b ec		 cmp	 ebp, esp
  02504	e8 00 00 00 00	 call	 __RTC_CheckEsp
  02509	8b e5		 mov	 esp, ebp
  0250b	5d		 pop	 ebp
  0250c	c2 0c 00	 ret	 12			; 0000000cH
?SetBaseCellInfo@KRegion@@QAEHHHAAUKCell@@@Z ENDP	; KRegion::SetBaseCellInfo
_TEXT	ENDS
PUBLIC	?ProcessDynamicCell@KRegion@@QAEHPAUKCell@@PBUKDynamicCell@@@Z ; KRegion::ProcessDynamicCell
PUBLIC	?MergeCellList@KRegion@@QAEXPAUKCell@@@Z	; KRegion::MergeCellList
PUBLIC	?MergeObstacleData@KRegion@@QAEHXZ		; KRegion::MergeObstacleData
; Function compile flags: /Odtp /RTCsu
_TEXT	SEGMENT
_pNext$177711 = -44					; size = 4
_pLastDynamic$177691 = -40				; size = 4
_pDynamicList$177690 = -36				; size = 4
_pCellNode$177689 = -32					; size = 4
_pPreNode$177688 = -28					; size = 4
_pLowestCell$177687 = -24				; size = 4
_nXCell$177683 = -20					; size = 4
_nYCell$177679 = -16					; size = 4
_bRetCode$ = -12					; size = 4
_bResult$ = -8						; size = 4
_this$ = -4						; size = 4
?MergeObstacleData@KRegion@@QAEHXZ PROC			; KRegion::MergeObstacleData
; _this$ = ecx

; 817  : {

  02510	55		 push	 ebp
  02511	8b ec		 mov	 ebp, esp
  02513	83 ec 2c	 sub	 esp, 44			; 0000002cH
  02516	56		 push	 esi
  02517	57		 push	 edi
  02518	51		 push	 ecx
  02519	8d 7d d4	 lea	 edi, DWORD PTR [ebp-44]
  0251c	b9 0b 00 00 00	 mov	 ecx, 11			; 0000000bH
  02521	b8 cc cc cc cc	 mov	 eax, -858993460		; ccccccccH
  02526	f3 ab		 rep stosd
  02528	59		 pop	 ecx
  02529	89 4d fc	 mov	 DWORD PTR _this$[ebp], ecx

; 818  :     BOOL        bResult             = false;

  0252c	c7 45 f8 00 00
	00 00		 mov	 DWORD PTR _bResult$[ebp], 0

; 819  :     BOOL        bRetCode            = false;

  02533	c7 45 f4 00 00
	00 00		 mov	 DWORD PTR _bRetCode$[ebp], 0

; 820  : 
; 821  : 	for (int nYCell = 0; nYCell < REGION_GRID_HEIGHT; nYCell++)

  0253a	c7 45 f0 00 00
	00 00		 mov	 DWORD PTR _nYCell$177679[ebp], 0
  02541	eb 09		 jmp	 SHORT $LN19@MergeObsta
$LN18@MergeObsta:
  02543	8b 45 f0	 mov	 eax, DWORD PTR _nYCell$177679[ebp]
  02546	83 c0 01	 add	 eax, 1
  02549	89 45 f0	 mov	 DWORD PTR _nYCell$177679[ebp], eax
$LN19@MergeObsta:
  0254c	83 7d f0 40	 cmp	 DWORD PTR _nYCell$177679[ebp], 64 ; 00000040H
  02550	0f 8d 5e 01 00
	00		 jge	 $LN17@MergeObsta

; 822  : 	{
; 823  : 		for (int nXCell = 0; nXCell < REGION_GRID_WIDTH; nXCell++)

  02556	c7 45 ec 00 00
	00 00		 mov	 DWORD PTR _nXCell$177683[ebp], 0
  0255d	eb 09		 jmp	 SHORT $LN16@MergeObsta
$LN15@MergeObsta:
  0255f	8b 4d ec	 mov	 ecx, DWORD PTR _nXCell$177683[ebp]
  02562	83 c1 01	 add	 ecx, 1
  02565	89 4d ec	 mov	 DWORD PTR _nXCell$177683[ebp], ecx
$LN16@MergeObsta:
  02568	83 7d ec 40	 cmp	 DWORD PTR _nXCell$177683[ebp], 64 ; 00000040H
  0256c	0f 8d 3d 01 00
	00		 jge	 $LN14@MergeObsta

; 824  : 		{
; 825  :             KCell* pLowestCell  = GetLowestObstacle(nXCell, nYCell);

  02572	8b 55 f0	 mov	 edx, DWORD PTR _nYCell$177679[ebp]
  02575	52		 push	 edx
  02576	8b 45 ec	 mov	 eax, DWORD PTR _nXCell$177683[ebp]
  02579	50		 push	 eax
  0257a	8b 4d fc	 mov	 ecx, DWORD PTR _this$[ebp]
  0257d	e8 00 00 00 00	 call	 ?GetLowestObstacle@KRegion@@QAEPAUKCell@@HH@Z ; KRegion::GetLowestObstacle
  02582	89 45 e8	 mov	 DWORD PTR _pLowestCell$177687[ebp], eax

; 826  :             KCell* pPreNode     = NULL;

  02585	c7 45 e4 00 00
	00 00		 mov	 DWORD PTR _pPreNode$177688[ebp], 0

; 827  :             KCell* pCellNode    = NULL;

  0258c	c7 45 e0 00 00
	00 00		 mov	 DWORD PTR _pCellNode$177689[ebp], 0

; 828  :             KCell* pDynamicList = NULL;

  02593	c7 45 dc 00 00
	00 00		 mov	 DWORD PTR _pDynamicList$177690[ebp], 0

; 829  :             KCell* pLastDynamic = NULL;

  0259a	c7 45 d8 00 00
	00 00		 mov	 DWORD PTR _pLastDynamic$177691[ebp], 0
$LN13@MergeObsta:

; 830  : 
; 831  :             KGLOG_PROCESS_ERROR(pLowestCell && pLowestCell->m_BaseInfo.dwDynamic == 0);

  025a1	83 7d e8 00	 cmp	 DWORD PTR _pLowestCell$177687[ebp], 0
  025a5	74 0d		 je	 SHORT $LN9@MergeObsta
  025a7	8b 4d e8	 mov	 ecx, DWORD PTR _pLowestCell$177687[ebp]
  025aa	8b 11		 mov	 edx, DWORD PTR [ecx]
  025ac	c1 ea 10	 shr	 edx, 16			; 00000010H
  025af	83 e2 01	 and	 edx, 1
  025b2	74 32		 je	 SHORT $LN12@MergeObsta
$LN9@MergeObsta:
  025b4	8b f4		 mov	 esi, esp
  025b6	68 00 00 00 00	 push	 OFFSET $SG177697
  025bb	68 3f 03 00 00	 push	 831			; 0000033fH
  025c0	68 00 00 00 00	 push	 OFFSET $SG177698
  025c5	68 00 00 00 00	 push	 OFFSET $SG177699
  025ca	6a 07		 push	 7
  025cc	ff 15 00 00 00
	00		 call	 DWORD PTR __imp_?KGLogPrintf@@YAHW4KGLOG_PRIORITY@@QBDZZ
  025d2	83 c4 14	 add	 esp, 20			; 00000014H
  025d5	3b f4		 cmp	 esi, esp
  025d7	e8 00 00 00 00	 call	 __RTC_CheckEsp
  025dc	e9 da 00 00 00	 jmp	 $Exit0$177700
  025e1	e9 d5 00 00 00	 jmp	 $Exit0$177700
$LN12@MergeObsta:
  025e6	33 c0		 xor	 eax, eax
  025e8	75 b7		 jne	 SHORT $LN13@MergeObsta

; 832  : 
; 833  :             // Cell
; 834  :             pCellNode = pLowestCell;

  025ea	8b 4d e8	 mov	 ecx, DWORD PTR _pLowestCell$177687[ebp]
  025ed	89 4d e0	 mov	 DWORD PTR _pCellNode$177689[ebp], ecx

; 835  :             pPreNode  = NULL;

  025f0	c7 45 e4 00 00
	00 00		 mov	 DWORD PTR _pPreNode$177688[ebp], 0
$LN7@MergeObsta:

; 836  : 
; 837  :             while (pCellNode)

  025f7	83 7d e0 00	 cmp	 DWORD PTR _pCellNode$177689[ebp], 0
  025fb	74 5c		 je	 SHORT $LN6@MergeObsta

; 838  :             {
; 839  :                 if (pCellNode->m_BaseInfo.dwDynamic)

  025fd	8b 55 e0	 mov	 edx, DWORD PTR _pCellNode$177689[ebp]
  02600	8b 02		 mov	 eax, DWORD PTR [edx]
  02602	c1 e8 10	 shr	 eax, 16			; 00000010H
  02605	83 e0 01	 and	 eax, 1
  02608	74 3e		 je	 SHORT $LN5@MergeObsta

; 840  :                 {
; 841  :                     pPreNode->m_pNext   = pCellNode->m_pNext;

  0260a	8b 4d e4	 mov	 ecx, DWORD PTR _pPreNode$177688[ebp]
  0260d	8b 55 e0	 mov	 edx, DWORD PTR _pCellNode$177689[ebp]
  02610	8b 42 08	 mov	 eax, DWORD PTR [edx+8]
  02613	89 41 08	 mov	 DWORD PTR [ecx+8], eax

; 842  :                     pCellNode->m_pNext  = NULL;

  02616	8b 4d e0	 mov	 ecx, DWORD PTR _pCellNode$177689[ebp]
  02619	c7 41 08 00 00
	00 00		 mov	 DWORD PTR [ecx+8], 0

; 843  : 
; 844  :                     if (pLastDynamic)

  02620	83 7d d8 00	 cmp	 DWORD PTR _pLastDynamic$177691[ebp], 0
  02624	74 0b		 je	 SHORT $LN4@MergeObsta

; 845  :                     {
; 846  :                         pLastDynamic->m_pNext = pCellNode;

  02626	8b 55 d8	 mov	 edx, DWORD PTR _pLastDynamic$177691[ebp]
  02629	8b 45 e0	 mov	 eax, DWORD PTR _pCellNode$177689[ebp]
  0262c	89 42 08	 mov	 DWORD PTR [edx+8], eax

; 847  :                     }
; 848  :                     else

  0262f	eb 06		 jmp	 SHORT $LN3@MergeObsta
$LN4@MergeObsta:

; 849  :                     {
; 850  :                         pDynamicList = pCellNode;

  02631	8b 4d e0	 mov	 ecx, DWORD PTR _pCellNode$177689[ebp]
  02634	89 4d dc	 mov	 DWORD PTR _pDynamicList$177690[ebp], ecx
$LN3@MergeObsta:

; 851  :                     }
; 852  : 
; 853  :                     pLastDynamic = pCellNode;

  02637	8b 55 e0	 mov	 edx, DWORD PTR _pCellNode$177689[ebp]
  0263a	89 55 d8	 mov	 DWORD PTR _pLastDynamic$177691[ebp], edx

; 854  : 
; 855  :                     pCellNode = pPreNode->m_pNext;

  0263d	8b 45 e4	 mov	 eax, DWORD PTR _pPreNode$177688[ebp]
  02640	8b 48 08	 mov	 ecx, DWORD PTR [eax+8]
  02643	89 4d e0	 mov	 DWORD PTR _pCellNode$177689[ebp], ecx

; 856  :                     continue;

  02646	eb af		 jmp	 SHORT $LN7@MergeObsta
$LN5@MergeObsta:

; 857  :                 }
; 858  : 
; 859  :                 pPreNode  = pCellNode;

  02648	8b 55 e0	 mov	 edx, DWORD PTR _pCellNode$177689[ebp]
  0264b	89 55 e4	 mov	 DWORD PTR _pPreNode$177688[ebp], edx

; 860  :                 pCellNode = pCellNode->m_pNext;

  0264e	8b 45 e0	 mov	 eax, DWORD PTR _pCellNode$177689[ebp]
  02651	8b 48 08	 mov	 ecx, DWORD PTR [eax+8]
  02654	89 4d e0	 mov	 DWORD PTR _pCellNode$177689[ebp], ecx

; 861  :             }

  02657	eb 9e		 jmp	 SHORT $LN7@MergeObsta
$LN6@MergeObsta:

; 862  : 
; 863  :             MergeCellList(pLowestCell);

  02659	8b 55 e8	 mov	 edx, DWORD PTR _pLowestCell$177687[ebp]
  0265c	52		 push	 edx
  0265d	8b 4d fc	 mov	 ecx, DWORD PTR _this$[ebp]
  02660	e8 00 00 00 00	 call	 ?MergeCellList@KRegion@@QAEXPAUKCell@@@Z ; KRegion::MergeCellList

; 864  : 
; 865  :             MergeCellList(pDynamicList);

  02665	8b 45 dc	 mov	 eax, DWORD PTR _pDynamicList$177690[ebp]
  02668	50		 push	 eax
  02669	8b 4d fc	 mov	 ecx, DWORD PTR _this$[ebp]
  0266c	e8 00 00 00 00	 call	 ?MergeCellList@KRegion@@QAEXPAUKCell@@@Z ; KRegion::MergeCellList

; 866  : 
; 867  :             // CellCell
; 868  :             pCellNode = pDynamicList;

  02671	8b 4d dc	 mov	 ecx, DWORD PTR _pDynamicList$177690[ebp]
  02674	89 4d e0	 mov	 DWORD PTR _pCellNode$177689[ebp], ecx
$LN2@MergeObsta:

; 869  :             while (pCellNode)

  02677	83 7d e0 00	 cmp	 DWORD PTR _pCellNode$177689[ebp], 0
  0267b	74 2d		 je	 SHORT $LN1@MergeObsta

; 870  :             {
; 871  :                 KCell* pNext = pCellNode->m_pNext;

  0267d	8b 55 e0	 mov	 edx, DWORD PTR _pCellNode$177689[ebp]
  02680	8b 42 08	 mov	 eax, DWORD PTR [edx+8]
  02683	89 45 d4	 mov	 DWORD PTR _pNext$177711[ebp], eax

; 872  : 
; 873  :                 ProcessDynamicCell(pLowestCell, (KDynamicCell*)pCellNode);

  02686	8b 4d e0	 mov	 ecx, DWORD PTR _pCellNode$177689[ebp]
  02689	51		 push	 ecx
  0268a	8b 55 e8	 mov	 edx, DWORD PTR _pLowestCell$177687[ebp]
  0268d	52		 push	 edx
  0268e	8b 4d fc	 mov	 ecx, DWORD PTR _this$[ebp]
  02691	e8 00 00 00 00	 call	 ?ProcessDynamicCell@KRegion@@QAEHPAUKCell@@PBUKDynamicCell@@@Z ; KRegion::ProcessDynamicCell

; 874  : 
; 875  :                 KMemory::RawDelete((KDynamicCell*)pCellNode);

  02696	8b 45 e0	 mov	 eax, DWORD PTR _pCellNode$177689[ebp]
  02699	50		 push	 eax
  0269a	e8 00 00 00 00	 call	 ??$RawDelete@UKDynamicCell@@@KMemory@@YAXPAUKDynamicCell@@@Z ; KMemory::RawDelete<KDynamicCell>
  0269f	83 c4 04	 add	 esp, 4

; 876  : 
; 877  :                 pCellNode = pNext;

  026a2	8b 4d d4	 mov	 ecx, DWORD PTR _pNext$177711[ebp]
  026a5	89 4d e0	 mov	 DWORD PTR _pCellNode$177689[ebp], ecx

; 878  :             }

  026a8	eb cd		 jmp	 SHORT $LN2@MergeObsta
$LN1@MergeObsta:

; 879  :         }

  026aa	e9 b0 fe ff ff	 jmp	 $LN15@MergeObsta
$LN14@MergeObsta:

; 880  :     }

  026af	e9 8f fe ff ff	 jmp	 $LN18@MergeObsta
$LN17@MergeObsta:

; 881  : 
; 882  :     bResult = true;

  026b4	c7 45 f8 01 00
	00 00		 mov	 DWORD PTR _bResult$[ebp], 1
$Exit0$177700:

; 883  : Exit0:
; 884  :     return bResult;

  026bb	8b 45 f8	 mov	 eax, DWORD PTR _bResult$[ebp]

; 885  : }

  026be	5f		 pop	 edi
  026bf	5e		 pop	 esi
  026c0	83 c4 2c	 add	 esp, 44			; 0000002cH
  026c3	3b ec		 cmp	 ebp, esp
  026c5	e8 00 00 00 00	 call	 __RTC_CheckEsp
  026ca	8b e5		 mov	 esp, ebp
  026cc	5d		 pop	 ebp
  026cd	c3		 ret	 0
?MergeObstacleData@KRegion@@QAEHXZ ENDP			; KRegion::MergeObstacleData
; Function compile flags: /Odtp /RTCsu
_nProcessCount$177727 = -32				; size = 4
_dwFaceUp$177726 = -28					; size = 4
_dwBarrierDirection$177725 = -24			; size = 4
_pCellNode$177724 = -20					; size = 4
_pPreNode$ = -16					; size = 4
_pProcessCell$ = -12					; size = 4
_pLowestCell$ = -8					; size = 4
_this$ = -4						; size = 4
_pHead$ = 8						; size = 4
?MergeCellList@KRegion@@QAEXPAUKCell@@@Z PROC		; KRegion::MergeCellList
; _this$ = ecx

; 888  : {

  026d0	55		 push	 ebp
  026d1	8b ec		 mov	 ebp, esp
  026d3	83 ec 20	 sub	 esp, 32			; 00000020H
  026d6	56		 push	 esi
  026d7	b8 cc cc cc cc	 mov	 eax, -858993460		; ccccccccH
  026dc	89 45 e0	 mov	 DWORD PTR [ebp-32], eax
  026df	89 45 e4	 mov	 DWORD PTR [ebp-28], eax
  026e2	89 45 e8	 mov	 DWORD PTR [ebp-24], eax
  026e5	89 45 ec	 mov	 DWORD PTR [ebp-20], eax
  026e8	89 45 f0	 mov	 DWORD PTR [ebp-16], eax
  026eb	89 45 f4	 mov	 DWORD PTR [ebp-12], eax
  026ee	89 45 f8	 mov	 DWORD PTR [ebp-8], eax
  026f1	89 45 fc	 mov	 DWORD PTR [ebp-4], eax
  026f4	89 4d fc	 mov	 DWORD PTR _this$[ebp], ecx

; 889  :     KCell*      pLowestCell         = NULL;

  026f7	c7 45 f8 00 00
	00 00		 mov	 DWORD PTR _pLowestCell$[ebp], 0

; 890  :     KCell*      pProcessCell        = NULL;

  026fe	c7 45 f4 00 00
	00 00		 mov	 DWORD PTR _pProcessCell$[ebp], 0

; 891  :     KCell*      pPreNode            = NULL;

  02705	c7 45 f0 00 00
	00 00		 mov	 DWORD PTR _pPreNode$[ebp], 0

; 892  : 
; 893  :     pProcessCell = pHead;

  0270c	8b 45 08	 mov	 eax, DWORD PTR _pHead$[ebp]
  0270f	89 45 f4	 mov	 DWORD PTR _pProcessCell$[ebp], eax
$LN18@MergeCellL:

; 894  : 
; 895  :     while (pProcessCell)

  02712	83 7d f4 00	 cmp	 DWORD PTR _pProcessCell$[ebp], 0
  02716	0f 84 c0 01 00
	00		 je	 $LN17@MergeCellL

; 896  :     {
; 897  :         KCell*  pCellNode             = pProcessCell->m_pNext;

  0271c	8b 4d f4	 mov	 ecx, DWORD PTR _pProcessCell$[ebp]
  0271f	8b 51 08	 mov	 edx, DWORD PTR [ecx+8]
  02722	89 55 ec	 mov	 DWORD PTR _pCellNode$177724[ebp], edx

; 898  :         DWORD   dwBarrierDirection    = pProcessCell->m_BaseInfo.dwBarrierDirection;

  02725	8b 45 f4	 mov	 eax, DWORD PTR _pProcessCell$[ebp]
  02728	8b 08		 mov	 ecx, DWORD PTR [eax]
  0272a	c1 e9 0c	 shr	 ecx, 12			; 0000000cH
  0272d	83 e1 07	 and	 ecx, 7
  02730	89 4d e8	 mov	 DWORD PTR _dwBarrierDirection$177725[ebp], ecx

; 899  :         DWORD   dwFaceUp              = pProcessCell->m_BaseInfo.dwFaceUp;

  02733	8b 55 f4	 mov	 edx, DWORD PTR _pProcessCell$[ebp]
  02736	8b 02		 mov	 eax, DWORD PTR [edx]
  02738	c1 e8 0f	 shr	 eax, 15			; 0000000fH
  0273b	83 e0 01	 and	 eax, 1
  0273e	89 45 e4	 mov	 DWORD PTR _dwFaceUp$177726[ebp], eax

; 900  :         int     nProcessCount         = 1;

  02741	c7 45 e0 01 00
	00 00		 mov	 DWORD PTR _nProcessCount$177727[ebp], 1
$LN16@MergeCellL:

; 901  : 
; 902  :         while (pCellNode)

  02748	83 7d ec 00	 cmp	 DWORD PTR _pCellNode$177724[ebp], 0
  0274c	0f 84 42 01 00
	00		 je	 $LN15@MergeCellL

; 903  :         {
; 904  :             if (pCellNode->m_wLowLayer > pProcessCell->m_wHighLayer)

  02752	8b 4d ec	 mov	 ecx, DWORD PTR _pCellNode$177724[ebp]
  02755	0f b7 51 04	 movzx	 edx, WORD PTR [ecx+4]
  02759	8b 45 f4	 mov	 eax, DWORD PTR _pProcessCell$[ebp]
  0275c	0f b7 48 06	 movzx	 ecx, WORD PTR [eax+6]
  02760	3b d1		 cmp	 edx, ecx
  02762	7e 05		 jle	 SHORT $LN14@MergeCellL

; 905  :                 break;

  02764	e9 2b 01 00 00	 jmp	 $LN15@MergeCellL
$LN14@MergeCellL:

; 906  : 
; 907  :             if (pCellNode->m_BaseInfo.dwFaceUp != dwFaceUp)

  02769	8b 55 ec	 mov	 edx, DWORD PTR _pCellNode$177724[ebp]
  0276c	8b 02		 mov	 eax, DWORD PTR [edx]
  0276e	c1 e8 0f	 shr	 eax, 15			; 0000000fH
  02771	83 e0 01	 and	 eax, 1
  02774	3b 45 e4	 cmp	 eax, DWORD PTR _dwFaceUp$177726[ebp]
  02777	74 07		 je	 SHORT $LN13@MergeCellL

; 908  :             {
; 909  :                 dwFaceUp = 0;

  02779	c7 45 e4 00 00
	00 00		 mov	 DWORD PTR _dwFaceUp$177726[ebp], 0
$LN13@MergeCellL:

; 910  :             }
; 911  :             
; 912  :             assert(pCellNode->m_wLowLayer >= pProcessCell->m_wLowLayer);

  02780	8b 4d ec	 mov	 ecx, DWORD PTR _pCellNode$177724[ebp]
  02783	0f b7 51 04	 movzx	 edx, WORD PTR [ecx+4]
  02787	8b 45 f4	 mov	 eax, DWORD PTR _pProcessCell$[ebp]
  0278a	0f b7 48 04	 movzx	 ecx, WORD PTR [eax+4]
  0278e	3b d1		 cmp	 edx, ecx
  02790	7d 21		 jge	 SHORT $LN21@MergeCellL
  02792	8b f4		 mov	 esi, esp
  02794	68 90 03 00 00	 push	 912			; 00000390H
  02799	68 00 00 00 00	 push	 OFFSET $SG177734
  0279e	68 00 00 00 00	 push	 OFFSET $SG177735
  027a3	ff 15 00 00 00
	00		 call	 DWORD PTR __imp___wassert
  027a9	83 c4 0c	 add	 esp, 12			; 0000000cH
  027ac	3b f4		 cmp	 esi, esp
  027ae	e8 00 00 00 00	 call	 __RTC_CheckEsp
$LN21@MergeCellL:

; 913  : 
; 914  :             if (pCellNode->m_wHighLayer == pProcessCell->m_wHighLayer)

  027b3	8b 45 ec	 mov	 eax, DWORD PTR _pCellNode$177724[ebp]
  027b6	0f b7 48 06	 movzx	 ecx, WORD PTR [eax+6]
  027ba	8b 55 f4	 mov	 edx, DWORD PTR _pProcessCell$[ebp]
  027bd	0f b7 42 06	 movzx	 eax, WORD PTR [edx+6]
  027c1	3b c8		 cmp	 ecx, eax
  027c3	75 4a		 jne	 SHORT $LN12@MergeCellL

; 915  :             {
; 916  :                 if (pCellNode->m_BaseInfo.dwFaceUp && !pProcessCell->m_BaseInfo.dwFaceUp)

  027c5	8b 4d ec	 mov	 ecx, DWORD PTR _pCellNode$177724[ebp]
  027c8	8b 11		 mov	 edx, DWORD PTR [ecx]
  027ca	c1 ea 0f	 shr	 edx, 15			; 0000000fH
  027cd	83 e2 01	 and	 edx, 1
  027d0	74 19		 je	 SHORT $LN11@MergeCellL
  027d2	8b 45 f4	 mov	 eax, DWORD PTR _pProcessCell$[ebp]
  027d5	8b 08		 mov	 ecx, DWORD PTR [eax]
  027d7	c1 e9 0f	 shr	 ecx, 15			; 0000000fH
  027da	83 e1 01	 and	 ecx, 1
  027dd	75 0c		 jne	 SHORT $LN11@MergeCellL

; 917  :                 {
; 918  :                     pProcessCell->m_BaseInfo = pCellNode->m_BaseInfo;

  027df	8b 55 ec	 mov	 edx, DWORD PTR _pCellNode$177724[ebp]
  027e2	8b 02		 mov	 eax, DWORD PTR [edx]
  027e4	8b 4d f4	 mov	 ecx, DWORD PTR _pProcessCell$[ebp]
  027e7	89 01		 mov	 DWORD PTR [ecx], eax
  027e9	eb 24		 jmp	 SHORT $LN12@MergeCellL
$LN11@MergeCellL:

; 919  :                 }
; 920  :                 else if (pCellNode->m_BaseInfo.dwGradientDegree < pProcessCell->m_BaseInfo.dwGradientDegree)

  027eb	8b 55 ec	 mov	 edx, DWORD PTR _pCellNode$177724[ebp]
  027ee	8b 02		 mov	 eax, DWORD PTR [edx]
  027f0	c1 e8 09	 shr	 eax, 9
  027f3	83 e0 07	 and	 eax, 7
  027f6	8b 4d f4	 mov	 ecx, DWORD PTR _pProcessCell$[ebp]
  027f9	8b 11		 mov	 edx, DWORD PTR [ecx]
  027fb	c1 ea 09	 shr	 edx, 9
  027fe	83 e2 07	 and	 edx, 7
  02801	3b c2		 cmp	 eax, edx
  02803	73 0a		 jae	 SHORT $LN12@MergeCellL

; 921  :                 {
; 922  :                     pProcessCell->m_BaseInfo = pCellNode->m_BaseInfo;

  02805	8b 45 ec	 mov	 eax, DWORD PTR _pCellNode$177724[ebp]
  02808	8b 08		 mov	 ecx, DWORD PTR [eax]
  0280a	8b 55 f4	 mov	 edx, DWORD PTR _pProcessCell$[ebp]
  0280d	89 0a		 mov	 DWORD PTR [edx], ecx
$LN12@MergeCellL:

; 923  :                 }
; 924  :             }
; 925  : 
; 926  :             if (pCellNode->m_wHighLayer > pProcessCell->m_wHighLayer)

  0280f	8b 45 ec	 mov	 eax, DWORD PTR _pCellNode$177724[ebp]
  02812	0f b7 48 06	 movzx	 ecx, WORD PTR [eax+6]
  02816	8b 55 f4	 mov	 edx, DWORD PTR _pProcessCell$[ebp]
  02819	0f b7 42 06	 movzx	 eax, WORD PTR [edx+6]
  0281d	3b c8		 cmp	 ecx, eax
  0281f	7e 18		 jle	 SHORT $LN8@MergeCellL

; 927  :             {
; 928  :                 pProcessCell->m_wHighLayer       = pCellNode->m_wHighLayer;

  02821	8b 4d f4	 mov	 ecx, DWORD PTR _pProcessCell$[ebp]
  02824	8b 55 ec	 mov	 edx, DWORD PTR _pCellNode$177724[ebp]
  02827	66 8b 42 06	 mov	 ax, WORD PTR [edx+6]
  0282b	66 89 41 06	 mov	 WORD PTR [ecx+6], ax

; 929  :                 pProcessCell->m_BaseInfo         = pCellNode->m_BaseInfo;

  0282f	8b 4d ec	 mov	 ecx, DWORD PTR _pCellNode$177724[ebp]
  02832	8b 11		 mov	 edx, DWORD PTR [ecx]
  02834	8b 45 f4	 mov	 eax, DWORD PTR _pProcessCell$[ebp]
  02837	89 10		 mov	 DWORD PTR [eax], edx
$LN8@MergeCellL:

; 930  :             }
; 931  : 
; 932  :             dwBarrierDirection += pCellNode->m_BaseInfo.dwBarrierDirection;

  02839	8b 4d ec	 mov	 ecx, DWORD PTR _pCellNode$177724[ebp]
  0283c	8b 11		 mov	 edx, DWORD PTR [ecx]
  0283e	c1 ea 0c	 shr	 edx, 12			; 0000000cH
  02841	83 e2 07	 and	 edx, 7
  02844	03 55 e8	 add	 edx, DWORD PTR _dwBarrierDirection$177725[ebp]
  02847	89 55 e8	 mov	 DWORD PTR _dwBarrierDirection$177725[ebp], edx

; 933  :             nProcessCount++;

  0284a	8b 45 e0	 mov	 eax, DWORD PTR _nProcessCount$177727[ebp]
  0284d	83 c0 01	 add	 eax, 1
  02850	89 45 e0	 mov	 DWORD PTR _nProcessCount$177727[ebp], eax

; 934  : 
; 935  :             pProcessCell->m_pNext = pCellNode->m_pNext;

  02853	8b 4d f4	 mov	 ecx, DWORD PTR _pProcessCell$[ebp]
  02856	8b 55 ec	 mov	 edx, DWORD PTR _pCellNode$177724[ebp]
  02859	8b 42 08	 mov	 eax, DWORD PTR [edx+8]
  0285c	89 41 08	 mov	 DWORD PTR [ecx+8], eax

; 936  : 
; 937  :             if (pCellNode->m_BaseInfo.dwDynamic)

  0285f	8b 4d ec	 mov	 ecx, DWORD PTR _pCellNode$177724[ebp]
  02862	8b 11		 mov	 edx, DWORD PTR [ecx]
  02864	c1 ea 10	 shr	 edx, 16			; 00000010H
  02867	83 e2 01	 and	 edx, 1
  0286a	74 0e		 je	 SHORT $LN7@MergeCellL

; 938  :             {
; 939  :                 KMemory::RawDelete((KDynamicCell*)pCellNode);

  0286c	8b 45 ec	 mov	 eax, DWORD PTR _pCellNode$177724[ebp]
  0286f	50		 push	 eax
  02870	e8 00 00 00 00	 call	 ??$RawDelete@UKDynamicCell@@@KMemory@@YAXPAUKDynamicCell@@@Z ; KMemory::RawDelete<KDynamicCell>
  02875	83 c4 04	 add	 esp, 4

; 940  :             }
; 941  :             else

  02878	eb 0c		 jmp	 SHORT $LN6@MergeCellL
$LN7@MergeCellL:

; 942  :             {
; 943  :                 KMemory::RawDelete(pCellNode);

  0287a	8b 4d ec	 mov	 ecx, DWORD PTR _pCellNode$177724[ebp]
  0287d	51		 push	 ecx
  0287e	e8 00 00 00 00	 call	 ??$RawDelete@UKCell@@@KMemory@@YAXPAUKCell@@@Z ; KMemory::RawDelete<KCell>
  02883	83 c4 04	 add	 esp, 4
$LN6@MergeCellL:

; 944  :             }
; 945  : 
; 946  :             pCellNode = pProcessCell->m_pNext;

  02886	8b 55 f4	 mov	 edx, DWORD PTR _pProcessCell$[ebp]
  02889	8b 42 08	 mov	 eax, DWORD PTR [edx+8]
  0288c	89 45 ec	 mov	 DWORD PTR _pCellNode$177724[ebp], eax

; 947  :         }

  0288f	e9 b4 fe ff ff	 jmp	 $LN16@MergeCellL
$LN15@MergeCellL:

; 948  : 
; 949  :         pProcessCell->m_BaseInfo.dwBarrierDirection = dwBarrierDirection / nProcessCount;

  02894	8b 45 e8	 mov	 eax, DWORD PTR _dwBarrierDirection$177725[ebp]
  02897	33 d2		 xor	 edx, edx
  02899	f7 75 e0	 div	 DWORD PTR _nProcessCount$177727[ebp]
  0289c	83 e0 07	 and	 eax, 7
  0289f	c1 e0 0c	 shl	 eax, 12			; 0000000cH
  028a2	8b 4d f4	 mov	 ecx, DWORD PTR _pProcessCell$[ebp]
  028a5	8b 11		 mov	 edx, DWORD PTR [ecx]
  028a7	81 e2 ff 8f ff
	ff		 and	 edx, -28673		; ffff8fffH
  028ad	0b d0		 or	 edx, eax
  028af	8b 45 f4	 mov	 eax, DWORD PTR _pProcessCell$[ebp]
  028b2	89 10		 mov	 DWORD PTR [eax], edx

; 950  :         pProcessCell->m_BaseInfo.dwFaceUp           = dwFaceUp;

  028b4	8b 4d e4	 mov	 ecx, DWORD PTR _dwFaceUp$177726[ebp]
  028b7	83 e1 01	 and	 ecx, 1
  028ba	c1 e1 0f	 shl	 ecx, 15			; 0000000fH
  028bd	8b 55 f4	 mov	 edx, DWORD PTR _pProcessCell$[ebp]
  028c0	8b 02		 mov	 eax, DWORD PTR [edx]
  028c2	25 ff 7f ff ff	 and	 eax, -32769		; ffff7fffH
  028c7	0b c1		 or	 eax, ecx
  028c9	8b 4d f4	 mov	 ecx, DWORD PTR _pProcessCell$[ebp]
  028cc	89 01		 mov	 DWORD PTR [ecx], eax

; 951  : 
; 952  :         pProcessCell = pProcessCell->m_pNext;

  028ce	8b 55 f4	 mov	 edx, DWORD PTR _pProcessCell$[ebp]
  028d1	8b 42 08	 mov	 eax, DWORD PTR [edx+8]
  028d4	89 45 f4	 mov	 DWORD PTR _pProcessCell$[ebp], eax

; 953  :     }

  028d7	e9 36 fe ff ff	 jmp	 $LN18@MergeCellL
$LN17@MergeCellL:

; 954  : 
; 955  :     // ---------- Cell ------------------------------
; 956  :     pPreNode     = NULL;

  028dc	c7 45 f0 00 00
	00 00		 mov	 DWORD PTR _pPreNode$[ebp], 0

; 957  :     pProcessCell = pHead;

  028e3	8b 4d 08	 mov	 ecx, DWORD PTR _pHead$[ebp]
  028e6	89 4d f4	 mov	 DWORD PTR _pProcessCell$[ebp], ecx
$LN5@MergeCellL:

; 958  :     
; 959  :     while (pProcessCell)

  028e9	83 7d f4 00	 cmp	 DWORD PTR _pProcessCell$[ebp], 0
  028ed	0f 84 a0 00 00
	00		 je	 $LN19@MergeCellL

; 960  :     {
; 961  :         if (pProcessCell->m_BaseInfo.dwFaceUp && pPreNode != NULL)

  028f3	8b 55 f4	 mov	 edx, DWORD PTR _pProcessCell$[ebp]
  028f6	8b 02		 mov	 eax, DWORD PTR [edx]
  028f8	c1 e8 0f	 shr	 eax, 15			; 0000000fH
  028fb	83 e0 01	 and	 eax, 1
  028fe	74 6f		 je	 SHORT $LN3@MergeCellL
  02900	83 7d f0 00	 cmp	 DWORD PTR _pPreNode$[ebp], 0
  02904	74 69		 je	 SHORT $LN3@MergeCellL

; 962  :         {
; 963  :             pProcessCell->m_BaseInfo.dwFaceUp = 0;

  02906	8b 4d f4	 mov	 ecx, DWORD PTR _pProcessCell$[ebp]
  02909	8b 11		 mov	 edx, DWORD PTR [ecx]
  0290b	81 e2 ff 7f ff
	ff		 and	 edx, -32769		; ffff7fffH
  02911	8b 45 f4	 mov	 eax, DWORD PTR _pProcessCell$[ebp]
  02914	89 10		 mov	 DWORD PTR [eax], edx

; 964  : 
; 965  :             pPreNode->m_wHighLayer  = pProcessCell->m_wHighLayer;

  02916	8b 4d f0	 mov	 ecx, DWORD PTR _pPreNode$[ebp]
  02919	8b 55 f4	 mov	 edx, DWORD PTR _pProcessCell$[ebp]
  0291c	66 8b 42 06	 mov	 ax, WORD PTR [edx+6]
  02920	66 89 41 06	 mov	 WORD PTR [ecx+6], ax

; 966  :             pPreNode->m_BaseInfo    = pProcessCell->m_BaseInfo;

  02924	8b 4d f4	 mov	 ecx, DWORD PTR _pProcessCell$[ebp]
  02927	8b 11		 mov	 edx, DWORD PTR [ecx]
  02929	8b 45 f0	 mov	 eax, DWORD PTR _pPreNode$[ebp]
  0292c	89 10		 mov	 DWORD PTR [eax], edx

; 967  :             pPreNode->m_pNext       = pProcessCell->m_pNext;

  0292e	8b 4d f0	 mov	 ecx, DWORD PTR _pPreNode$[ebp]
  02931	8b 55 f4	 mov	 edx, DWORD PTR _pProcessCell$[ebp]
  02934	8b 42 08	 mov	 eax, DWORD PTR [edx+8]
  02937	89 41 08	 mov	 DWORD PTR [ecx+8], eax

; 968  : 
; 969  :             if (pProcessCell->m_BaseInfo.dwDynamic)

  0293a	8b 4d f4	 mov	 ecx, DWORD PTR _pProcessCell$[ebp]
  0293d	8b 11		 mov	 edx, DWORD PTR [ecx]
  0293f	c1 ea 10	 shr	 edx, 16			; 00000010H
  02942	83 e2 01	 and	 edx, 1
  02945	74 0e		 je	 SHORT $LN2@MergeCellL

; 970  :             {
; 971  :                 KMemory::RawDelete((KDynamicCell*)pProcessCell);

  02947	8b 45 f4	 mov	 eax, DWORD PTR _pProcessCell$[ebp]
  0294a	50		 push	 eax
  0294b	e8 00 00 00 00	 call	 ??$RawDelete@UKDynamicCell@@@KMemory@@YAXPAUKDynamicCell@@@Z ; KMemory::RawDelete<KDynamicCell>
  02950	83 c4 04	 add	 esp, 4

; 972  :             }
; 973  :             else

  02953	eb 0c		 jmp	 SHORT $LN1@MergeCellL
$LN2@MergeCellL:

; 974  :             {
; 975  :                 KMemory::RawDelete(pProcessCell);

  02955	8b 4d f4	 mov	 ecx, DWORD PTR _pProcessCell$[ebp]
  02958	51		 push	 ecx
  02959	e8 00 00 00 00	 call	 ??$RawDelete@UKCell@@@KMemory@@YAXPAUKCell@@@Z ; KMemory::RawDelete<KCell>
  0295e	83 c4 04	 add	 esp, 4
$LN1@MergeCellL:

; 976  :             }
; 977  :             
; 978  :             pProcessCell = pPreNode->m_pNext;

  02961	8b 55 f0	 mov	 edx, DWORD PTR _pPreNode$[ebp]
  02964	8b 42 08	 mov	 eax, DWORD PTR [edx+8]
  02967	89 45 f4	 mov	 DWORD PTR _pProcessCell$[ebp], eax

; 979  :             continue;

  0296a	e9 7a ff ff ff	 jmp	 $LN5@MergeCellL
$LN3@MergeCellL:

; 980  :         }
; 981  : 
; 982  :         pProcessCell->m_BaseInfo.dwFaceUp = 0;

  0296f	8b 4d f4	 mov	 ecx, DWORD PTR _pProcessCell$[ebp]
  02972	8b 11		 mov	 edx, DWORD PTR [ecx]
  02974	81 e2 ff 7f ff
	ff		 and	 edx, -32769		; ffff7fffH
  0297a	8b 45 f4	 mov	 eax, DWORD PTR _pProcessCell$[ebp]
  0297d	89 10		 mov	 DWORD PTR [eax], edx

; 983  : 
; 984  :         pPreNode     = pProcessCell;

  0297f	8b 4d f4	 mov	 ecx, DWORD PTR _pProcessCell$[ebp]
  02982	89 4d f0	 mov	 DWORD PTR _pPreNode$[ebp], ecx

; 985  :         pProcessCell = pProcessCell->m_pNext;

  02985	8b 55 f4	 mov	 edx, DWORD PTR _pProcessCell$[ebp]
  02988	8b 42 08	 mov	 eax, DWORD PTR [edx+8]
  0298b	89 45 f4	 mov	 DWORD PTR _pProcessCell$[ebp], eax

; 986  :     }  

  0298e	e9 56 ff ff ff	 jmp	 $LN5@MergeCellL
$LN19@MergeCellL:

; 987  : }

  02993	5e		 pop	 esi
  02994	83 c4 20	 add	 esp, 32			; 00000020H
  02997	3b ec		 cmp	 ebp, esp
  02999	e8 00 00 00 00	 call	 __RTC_CheckEsp
  0299e	8b e5		 mov	 esp, ebp
  029a0	5d		 pop	 ebp
  029a1	c2 04 00	 ret	 4
?MergeCellList@KRegion@@QAEXPAUKCell@@@Z ENDP		; KRegion::MergeCellList
; Function compile flags: /Odtp /RTCsu
tv84 = -30						; size = 2
_pNewCell$177769 = -28					; size = 4
_wHigherLayer$177766 = -24				; size = 2
_wLowerLayer$177765 = -20				; size = 2
_pNextNode$ = -16					; size = 4
_pCellNode$ = -12					; size = 4
_bResult$ = -8						; size = 4
_this$ = -4						; size = 4
_pHead$ = 8						; size = 4
_pcCell$ = 12						; size = 4
?ProcessDynamicCell@KRegion@@QAEHPAUKCell@@PBUKDynamicCell@@@Z PROC ; KRegion::ProcessDynamicCell
; _this$ = ecx

; 990  : {

  029b0	55		 push	 ebp
  029b1	8b ec		 mov	 ebp, esp
  029b3	83 ec 20	 sub	 esp, 32			; 00000020H
  029b6	56		 push	 esi
  029b7	b8 cc cc cc cc	 mov	 eax, -858993460		; ccccccccH
  029bc	89 45 e0	 mov	 DWORD PTR [ebp-32], eax
  029bf	89 45 e4	 mov	 DWORD PTR [ebp-28], eax
  029c2	89 45 e8	 mov	 DWORD PTR [ebp-24], eax
  029c5	89 45 ec	 mov	 DWORD PTR [ebp-20], eax
  029c8	89 45 f0	 mov	 DWORD PTR [ebp-16], eax
  029cb	89 45 f4	 mov	 DWORD PTR [ebp-12], eax
  029ce	89 45 f8	 mov	 DWORD PTR [ebp-8], eax
  029d1	89 45 fc	 mov	 DWORD PTR [ebp-4], eax
  029d4	89 4d fc	 mov	 DWORD PTR _this$[ebp], ecx

; 991  :     BOOL    bResult     = false;

  029d7	c7 45 f8 00 00
	00 00		 mov	 DWORD PTR _bResult$[ebp], 0

; 992  :     KCell*  pCellNode   = NULL;

  029de	c7 45 f4 00 00
	00 00		 mov	 DWORD PTR _pCellNode$[ebp], 0

; 993  :     KCell*  pNextNode   = NULL;

  029e5	c7 45 f0 00 00
	00 00		 mov	 DWORD PTR _pNextNode$[ebp], 0

; 994  : 
; 995  :     pCellNode = pHead;

  029ec	8b 45 08	 mov	 eax, DWORD PTR _pHead$[ebp]
  029ef	89 45 f4	 mov	 DWORD PTR _pCellNode$[ebp], eax
$LN12@ProcessDyn:

; 996  : 
; 997  :     while (pCellNode)

  029f2	83 7d f4 00	 cmp	 DWORD PTR _pCellNode$[ebp], 0
  029f6	0f 84 3f 01 00
	00		 je	 $LN11@ProcessDyn

; 998  :     {
; 999  :         pNextNode = pCellNode->m_pNext;

  029fc	8b 4d f4	 mov	 ecx, DWORD PTR _pCellNode$[ebp]
  029ff	8b 51 08	 mov	 edx, DWORD PTR [ecx+8]
  02a02	89 55 f0	 mov	 DWORD PTR _pNextNode$[ebp], edx

; 1000 : 
; 1001 :         if (pNextNode == NULL || pNextNode->m_wLowLayer >= pcCell->m_wLowLayer)

  02a05	83 7d f0 00	 cmp	 DWORD PTR _pNextNode$[ebp], 0
  02a09	74 16		 je	 SHORT $LN9@ProcessDyn
  02a0b	8b 45 f0	 mov	 eax, DWORD PTR _pNextNode$[ebp]
  02a0e	0f b7 48 04	 movzx	 ecx, WORD PTR [eax+4]
  02a12	8b 55 0c	 mov	 edx, DWORD PTR _pcCell$[ebp]
  02a15	0f b7 42 04	 movzx	 eax, WORD PTR [edx+4]
  02a19	3b c8		 cmp	 ecx, eax
  02a1b	0f 8c 0c 01 00
	00		 jl	 $LN10@ProcessDyn
$LN9@ProcessDyn:

; 1002 :         {
; 1003 :             if (pCellNode->m_wHighLayer <= pcCell->m_wHighLayer)

  02a21	8b 4d f4	 mov	 ecx, DWORD PTR _pCellNode$[ebp]
  02a24	0f b7 51 06	 movzx	 edx, WORD PTR [ecx+6]
  02a28	8b 45 0c	 mov	 eax, DWORD PTR _pcCell$[ebp]
  02a2b	0f b7 48 06	 movzx	 ecx, WORD PTR [eax+6]
  02a2f	3b d1		 cmp	 edx, ecx
  02a31	0f 8f f6 00 00
	00		 jg	 $LN10@ProcessDyn

; 1004 :             {
; 1005 :                 WORD wLowerLayer = max(pcCell->m_wLowLayer, pCellNode->m_wHighLayer);

  02a37	8b 55 0c	 mov	 edx, DWORD PTR _pcCell$[ebp]
  02a3a	0f b7 42 04	 movzx	 eax, WORD PTR [edx+4]
  02a3e	8b 4d f4	 mov	 ecx, DWORD PTR _pCellNode$[ebp]
  02a41	0f b7 51 06	 movzx	 edx, WORD PTR [ecx+6]
  02a45	3b c2		 cmp	 eax, edx
  02a47	7e 0d		 jle	 SHORT $LN15@ProcessDyn
  02a49	8b 45 0c	 mov	 eax, DWORD PTR _pcCell$[ebp]
  02a4c	66 8b 48 04	 mov	 cx, WORD PTR [eax+4]
  02a50	66 89 4d e2	 mov	 WORD PTR tv84[ebp], cx
  02a54	eb 0b		 jmp	 SHORT $LN16@ProcessDyn
$LN15@ProcessDyn:
  02a56	8b 55 f4	 mov	 edx, DWORD PTR _pCellNode$[ebp]
  02a59	66 8b 42 06	 mov	 ax, WORD PTR [edx+6]
  02a5d	66 89 45 e2	 mov	 WORD PTR tv84[ebp], ax
$LN16@ProcessDyn:
  02a61	66 8b 4d e2	 mov	 cx, WORD PTR tv84[ebp]
  02a65	66 89 4d ec	 mov	 WORD PTR _wLowerLayer$177765[ebp], cx

; 1006 :                 WORD wHigherLayer = pcCell->m_wHighLayer;

  02a69	8b 55 0c	 mov	 edx, DWORD PTR _pcCell$[ebp]
  02a6c	66 8b 42 06	 mov	 ax, WORD PTR [edx+6]
  02a70	66 89 45 e8	 mov	 WORD PTR _wHigherLayer$177766[ebp], ax

; 1007 : 
; 1008 :                 if (pNextNode && pNextNode->m_wLowLayer < wHigherLayer)

  02a74	83 7d f0 00	 cmp	 DWORD PTR _pNextNode$[ebp], 0
  02a78	74 1a		 je	 SHORT $LN7@ProcessDyn
  02a7a	8b 4d f0	 mov	 ecx, DWORD PTR _pNextNode$[ebp]
  02a7d	0f b7 51 04	 movzx	 edx, WORD PTR [ecx+4]
  02a81	0f b7 45 e8	 movzx	 eax, WORD PTR _wHigherLayer$177766[ebp]
  02a85	3b d0		 cmp	 edx, eax
  02a87	7d 0b		 jge	 SHORT $LN7@ProcessDyn

; 1009 :                 {
; 1010 :                     wHigherLayer = pNextNode->m_wLowLayer;

  02a89	8b 4d f0	 mov	 ecx, DWORD PTR _pNextNode$[ebp]
  02a8c	66 8b 51 04	 mov	 dx, WORD PTR [ecx+4]
  02a90	66 89 55 e8	 mov	 WORD PTR _wHigherLayer$177766[ebp], dx
$LN7@ProcessDyn:

; 1011 :                 }
; 1012 : 
; 1013 :                 if (wLowerLayer < wHigherLayer)

  02a94	0f b7 45 ec	 movzx	 eax, WORD PTR _wLowerLayer$177765[ebp]
  02a98	0f b7 4d e8	 movzx	 ecx, WORD PTR _wHigherLayer$177766[ebp]
  02a9c	3b c1		 cmp	 eax, ecx
  02a9e	0f 8d 89 00 00
	00		 jge	 $LN10@ProcessDyn

; 1014 :                 {
; 1015 :                     KDynamicCell* pNewCell = KMemory::RawNew<KDynamicCell>();

  02aa4	e8 00 00 00 00	 call	 ??$RawNew@UKDynamicCell@@@KMemory@@YAPAUKDynamicCell@@XZ ; KMemory::RawNew<KDynamicCell>
  02aa9	89 45 e4	 mov	 DWORD PTR _pNewCell$177769[ebp], eax
$LN5@ProcessDyn:

; 1016 : 
; 1017 :                     KGLOG_PROCESS_ERROR(pNewCell);

  02aac	83 7d e4 00	 cmp	 DWORD PTR _pNewCell$177769[ebp], 0
  02ab0	75 2c		 jne	 SHORT $LN4@ProcessDyn
  02ab2	8b f4		 mov	 esi, esp
  02ab4	68 00 00 00 00	 push	 OFFSET $SG177775
  02ab9	68 f9 03 00 00	 push	 1017			; 000003f9H
  02abe	68 00 00 00 00	 push	 OFFSET $SG177776
  02ac3	68 00 00 00 00	 push	 OFFSET $SG177777
  02ac8	6a 07		 push	 7
  02aca	ff 15 00 00 00
	00		 call	 DWORD PTR __imp_?KGLogPrintf@@YAHW4KGLOG_PRIORITY@@QBDZZ
  02ad0	83 c4 14	 add	 esp, 20			; 00000014H
  02ad3	3b f4		 cmp	 esi, esp
  02ad5	e8 00 00 00 00	 call	 __RTC_CheckEsp
  02ada	eb 66		 jmp	 SHORT $Exit0$177778
  02adc	eb 64		 jmp	 SHORT $Exit0$177778
$LN4@ProcessDyn:
  02ade	33 d2		 xor	 edx, edx
  02ae0	75 ca		 jne	 SHORT $LN5@ProcessDyn

; 1018 : 
; 1019 :                     pNewCell->m_wLowLayer = wLowerLayer;

  02ae2	8b 45 e4	 mov	 eax, DWORD PTR _pNewCell$177769[ebp]
  02ae5	66 8b 4d ec	 mov	 cx, WORD PTR _wLowerLayer$177765[ebp]
  02ae9	66 89 48 04	 mov	 WORD PTR [eax+4], cx

; 1020 :                     pNewCell->m_wHighLayer = wHigherLayer;

  02aed	8b 55 e4	 mov	 edx, DWORD PTR _pNewCell$177769[ebp]
  02af0	66 8b 45 e8	 mov	 ax, WORD PTR _wHigherLayer$177766[ebp]
  02af4	66 89 42 06	 mov	 WORD PTR [edx+6], ax

; 1021 :                     pNewCell->m_BaseInfo = pcCell->m_BaseInfo;

  02af8	8b 4d 0c	 mov	 ecx, DWORD PTR _pcCell$[ebp]
  02afb	8b 11		 mov	 edx, DWORD PTR [ecx]
  02afd	8b 45 e4	 mov	 eax, DWORD PTR _pNewCell$177769[ebp]
  02b00	89 10		 mov	 DWORD PTR [eax], edx

; 1022 :                     pNewCell->m_wGroupIndex = pcCell->m_wGroupIndex;

  02b02	8b 4d e4	 mov	 ecx, DWORD PTR _pNewCell$177769[ebp]
  02b05	8b 55 0c	 mov	 edx, DWORD PTR _pcCell$[ebp]
  02b08	66 8b 42 0c	 mov	 ax, WORD PTR [edx+12]
  02b0c	66 89 41 0c	 mov	 WORD PTR [ecx+12], ax

; 1023 : 
; 1024 :                     pCellNode->m_pNext = pNewCell;

  02b10	8b 4d f4	 mov	 ecx, DWORD PTR _pCellNode$[ebp]
  02b13	8b 55 e4	 mov	 edx, DWORD PTR _pNewCell$177769[ebp]
  02b16	89 51 08	 mov	 DWORD PTR [ecx+8], edx

; 1025 :                     pNewCell->m_pNext = pNextNode;

  02b19	8b 45 e4	 mov	 eax, DWORD PTR _pNewCell$177769[ebp]
  02b1c	8b 4d f0	 mov	 ecx, DWORD PTR _pNextNode$[ebp]
  02b1f	89 48 08	 mov	 DWORD PTR [eax+8], ecx

; 1026 :                     
; 1027 :                     pCellNode = pNextNode;

  02b22	8b 55 f0	 mov	 edx, DWORD PTR _pNextNode$[ebp]
  02b25	89 55 f4	 mov	 DWORD PTR _pCellNode$[ebp], edx

; 1028 : 
; 1029 :                     continue;

  02b28	e9 c5 fe ff ff	 jmp	 $LN12@ProcessDyn
$LN10@ProcessDyn:

; 1030 :                 }
; 1031 :             }
; 1032 :         }
; 1033 : 
; 1034 :         pCellNode = pCellNode->m_pNext;

  02b2d	8b 45 f4	 mov	 eax, DWORD PTR _pCellNode$[ebp]
  02b30	8b 48 08	 mov	 ecx, DWORD PTR [eax+8]
  02b33	89 4d f4	 mov	 DWORD PTR _pCellNode$[ebp], ecx

; 1035 :     }

  02b36	e9 b7 fe ff ff	 jmp	 $LN12@ProcessDyn
$LN11@ProcessDyn:

; 1036 : 
; 1037 :     bResult = true;

  02b3b	c7 45 f8 01 00
	00 00		 mov	 DWORD PTR _bResult$[ebp], 1
$Exit0$177778:

; 1038 : Exit0:
; 1039 :     return bResult;

  02b42	8b 45 f8	 mov	 eax, DWORD PTR _bResult$[ebp]

; 1040 : }

  02b45	5e		 pop	 esi
  02b46	83 c4 20	 add	 esp, 32			; 00000020H
  02b49	3b ec		 cmp	 ebp, esp
  02b4b	e8 00 00 00 00	 call	 __RTC_CheckEsp
  02b50	8b e5		 mov	 esp, ebp
  02b52	5d		 pop	 ebp
  02b53	c2 08 00	 ret	 8
?ProcessDynamicCell@KRegion@@QAEHPAUKCell@@PBUKDynamicCell@@@Z ENDP ; KRegion::ProcessDynamicCell
_TEXT	ENDS
PUBLIC	?SetBarrierDirection@KCell@@QAEXH@Z		; KCell::SetBarrierDirection
PUBLIC	?SetGradientDirection@KCell@@QAEXH@Z		; KCell::SetGradientDirection
PUBLIC	?SetGradientDegree@KCell@@QAEXH@Z		; KCell::SetGradientDegree
PUBLIC	?SetWaterHeight@KRegion@@QAEHHHG@Z		; KRegion::SetWaterHeight
EXTRN	_memset:PROC
; Function compile flags: /Odtp /RTCsu
_TEXT	SEGMENT
_pNewCell$177828 = -32					; size = 4
_wWaterCellHighLayer$177820 = -28			; size = 2
_pNext$177819 = -24					; size = 4
_pCellNode$ = -20					; size = 4
_pPreNode$ = -16					; size = 4
_bRetCode$ = -12					; size = 4
_bResult$ = -8						; size = 4
_this$ = -4						; size = 4
_nXCell$ = 8						; size = 4
_nYCell$ = 12						; size = 4
_wWaterHeight$ = 16					; size = 2
?SetWaterHeight@KRegion@@QAEHHHG@Z PROC			; KRegion::SetWaterHeight
; _this$ = ecx

; 1043 : {

  02b60	55		 push	 ebp
  02b61	8b ec		 mov	 ebp, esp
  02b63	83 ec 20	 sub	 esp, 32			; 00000020H
  02b66	56		 push	 esi
  02b67	b8 cc cc cc cc	 mov	 eax, -858993460		; ccccccccH
  02b6c	89 45 e0	 mov	 DWORD PTR [ebp-32], eax
  02b6f	89 45 e4	 mov	 DWORD PTR [ebp-28], eax
  02b72	89 45 e8	 mov	 DWORD PTR [ebp-24], eax
  02b75	89 45 ec	 mov	 DWORD PTR [ebp-20], eax
  02b78	89 45 f0	 mov	 DWORD PTR [ebp-16], eax
  02b7b	89 45 f4	 mov	 DWORD PTR [ebp-12], eax
  02b7e	89 45 f8	 mov	 DWORD PTR [ebp-8], eax
  02b81	89 45 fc	 mov	 DWORD PTR [ebp-4], eax
  02b84	89 4d fc	 mov	 DWORD PTR _this$[ebp], ecx

; 1044 :     BOOL    bResult     = false;

  02b87	c7 45 f8 00 00
	00 00		 mov	 DWORD PTR _bResult$[ebp], 0

; 1045 : 	BOOL    bRetCode    = false;

  02b8e	c7 45 f4 00 00
	00 00		 mov	 DWORD PTR _bRetCode$[ebp], 0

; 1046 :     KCell*  pPreNode    = NULL;

  02b95	c7 45 f0 00 00
	00 00		 mov	 DWORD PTR _pPreNode$[ebp], 0

; 1047 :     KCell*  pCellNode   = NULL;

  02b9c	c7 45 ec 00 00
	00 00		 mov	 DWORD PTR _pCellNode$[ebp], 0
$LN26@SetWaterHe:

; 1048 : 
; 1049 :     KGLOG_PROCESS_ERROR(nXCell >= 0 && nXCell < REGION_GRID_WIDTH);

  02ba3	83 7d 08 00	 cmp	 DWORD PTR _nXCell$[ebp], 0
  02ba7	7c 06		 jl	 SHORT $LN22@SetWaterHe
  02ba9	83 7d 08 40	 cmp	 DWORD PTR _nXCell$[ebp], 64 ; 00000040H
  02bad	7c 32		 jl	 SHORT $LN25@SetWaterHe
$LN22@SetWaterHe:
  02baf	8b f4		 mov	 esi, esp
  02bb1	68 00 00 00 00	 push	 OFFSET $SG177795
  02bb6	68 19 04 00 00	 push	 1049			; 00000419H
  02bbb	68 00 00 00 00	 push	 OFFSET $SG177796
  02bc0	68 00 00 00 00	 push	 OFFSET $SG177797
  02bc5	6a 07		 push	 7
  02bc7	ff 15 00 00 00
	00		 call	 DWORD PTR __imp_?KGLogPrintf@@YAHW4KGLOG_PRIORITY@@QBDZZ
  02bcd	83 c4 14	 add	 esp, 20			; 00000014H
  02bd0	3b f4		 cmp	 esi, esp
  02bd2	e8 00 00 00 00	 call	 __RTC_CheckEsp
  02bd7	e9 67 02 00 00	 jmp	 $Exit0$177798
  02bdc	e9 62 02 00 00	 jmp	 $Exit0$177798
$LN25@SetWaterHe:
  02be1	33 c0		 xor	 eax, eax
  02be3	75 be		 jne	 SHORT $LN26@SetWaterHe
$LN20@SetWaterHe:

; 1050 :     KGLOG_PROCESS_ERROR(nYCell >= 0 && nYCell < REGION_GRID_HEIGHT);

  02be5	83 7d 0c 00	 cmp	 DWORD PTR _nYCell$[ebp], 0
  02be9	7c 06		 jl	 SHORT $LN16@SetWaterHe
  02beb	83 7d 0c 40	 cmp	 DWORD PTR _nYCell$[ebp], 64 ; 00000040H
  02bef	7c 32		 jl	 SHORT $LN19@SetWaterHe
$LN16@SetWaterHe:
  02bf1	8b f4		 mov	 esi, esp
  02bf3	68 00 00 00 00	 push	 OFFSET $SG177805
  02bf8	68 1a 04 00 00	 push	 1050			; 0000041aH
  02bfd	68 00 00 00 00	 push	 OFFSET $SG177806
  02c02	68 00 00 00 00	 push	 OFFSET $SG177807
  02c07	6a 07		 push	 7
  02c09	ff 15 00 00 00
	00		 call	 DWORD PTR __imp_?KGLogPrintf@@YAHW4KGLOG_PRIORITY@@QBDZZ
  02c0f	83 c4 14	 add	 esp, 20			; 00000014H
  02c12	3b f4		 cmp	 esi, esp
  02c14	e8 00 00 00 00	 call	 __RTC_CheckEsp
  02c19	e9 25 02 00 00	 jmp	 $Exit0$177798
  02c1e	e9 20 02 00 00	 jmp	 $Exit0$177798
$LN19@SetWaterHe:
  02c23	33 c9		 xor	 ecx, ecx
  02c25	75 be		 jne	 SHORT $LN20@SetWaterHe

; 1051 : 
; 1052 :     // Cell
; 1053 :     pCellNode = GetLowestObstacle(nXCell, nYCell);

  02c27	8b 55 0c	 mov	 edx, DWORD PTR _nYCell$[ebp]
  02c2a	52		 push	 edx
  02c2b	8b 45 08	 mov	 eax, DWORD PTR _nXCell$[ebp]
  02c2e	50		 push	 eax
  02c2f	8b 4d fc	 mov	 ecx, DWORD PTR _this$[ebp]
  02c32	e8 00 00 00 00	 call	 ?GetLowestObstacle@KRegion@@QAEPAUKCell@@HH@Z ; KRegion::GetLowestObstacle
  02c37	89 45 ec	 mov	 DWORD PTR _pCellNode$[ebp], eax
$LN14@SetWaterHe:

; 1054 : 
; 1055 :     while (pCellNode)

  02c3a	83 7d ec 00	 cmp	 DWORD PTR _pCellNode$[ebp], 0
  02c3e	74 75		 je	 SHORT $LN13@SetWaterHe

; 1056 :     {
; 1057 :         if (pCellNode->m_BaseInfo.dwCellType == ctWater && pPreNode)

  02c40	8b 4d ec	 mov	 ecx, DWORD PTR _pCellNode$[ebp]
  02c43	8b 11		 mov	 edx, DWORD PTR [ecx]
  02c45	83 e2 03	 and	 edx, 3
  02c48	83 fa 01	 cmp	 edx, 1
  02c4b	75 57		 jne	 SHORT $LN12@SetWaterHe
  02c4d	83 7d f0 00	 cmp	 DWORD PTR _pPreNode$[ebp], 0
  02c51	74 51		 je	 SHORT $LN12@SetWaterHe

; 1058 :         {
; 1059 :             pPreNode->m_pNext = pCellNode->m_pNext;

  02c53	8b 45 f0	 mov	 eax, DWORD PTR _pPreNode$[ebp]
  02c56	8b 4d ec	 mov	 ecx, DWORD PTR _pCellNode$[ebp]
  02c59	8b 51 08	 mov	 edx, DWORD PTR [ecx+8]
  02c5c	89 50 08	 mov	 DWORD PTR [eax+8], edx

; 1060 :             assert(!pCellNode->m_BaseInfo.dwDynamic);

  02c5f	8b 45 ec	 mov	 eax, DWORD PTR _pCellNode$[ebp]
  02c62	8b 08		 mov	 ecx, DWORD PTR [eax]
  02c64	c1 e9 10	 shr	 ecx, 16			; 00000010H
  02c67	83 e1 01	 and	 ecx, 1
  02c6a	74 21		 je	 SHORT $LN29@SetWaterHe
  02c6c	8b f4		 mov	 esi, esp
  02c6e	68 24 04 00 00	 push	 1060			; 00000424H
  02c73	68 00 00 00 00	 push	 OFFSET $SG177814
  02c78	68 00 00 00 00	 push	 OFFSET $SG177815
  02c7d	ff 15 00 00 00
	00		 call	 DWORD PTR __imp___wassert
  02c83	83 c4 0c	 add	 esp, 12			; 0000000cH
  02c86	3b f4		 cmp	 esi, esp
  02c88	e8 00 00 00 00	 call	 __RTC_CheckEsp
$LN29@SetWaterHe:

; 1061 :             KMemory::RawDelete(pCellNode);

  02c8d	8b 45 ec	 mov	 eax, DWORD PTR _pCellNode$[ebp]
  02c90	50		 push	 eax
  02c91	e8 00 00 00 00	 call	 ??$RawDelete@UKCell@@@KMemory@@YAXPAUKCell@@@Z ; KMemory::RawDelete<KCell>
  02c96	83 c4 04	 add	 esp, 4

; 1062 :             pCellNode = pPreNode->m_pNext;

  02c99	8b 4d f0	 mov	 ecx, DWORD PTR _pPreNode$[ebp]
  02c9c	8b 51 08	 mov	 edx, DWORD PTR [ecx+8]
  02c9f	89 55 ec	 mov	 DWORD PTR _pCellNode$[ebp], edx

; 1063 :             continue;

  02ca2	eb 96		 jmp	 SHORT $LN14@SetWaterHe
$LN12@SetWaterHe:

; 1064 :         }
; 1065 : 
; 1066 :         pPreNode = pCellNode;

  02ca4	8b 45 ec	 mov	 eax, DWORD PTR _pCellNode$[ebp]
  02ca7	89 45 f0	 mov	 DWORD PTR _pPreNode$[ebp], eax

; 1067 :         pCellNode = pCellNode->m_pNext;

  02caa	8b 4d ec	 mov	 ecx, DWORD PTR _pCellNode$[ebp]
  02cad	8b 51 08	 mov	 edx, DWORD PTR [ecx+8]
  02cb0	89 55 ec	 mov	 DWORD PTR _pCellNode$[ebp], edx

; 1068 :     }

  02cb3	eb 85		 jmp	 SHORT $LN14@SetWaterHe
$LN13@SetWaterHe:

; 1069 : 
; 1070 :     // CellCell
; 1071 : 
; 1072 :     pCellNode = GetLowestObstacle(nXCell, nYCell);

  02cb5	8b 45 0c	 mov	 eax, DWORD PTR _nYCell$[ebp]
  02cb8	50		 push	 eax
  02cb9	8b 4d 08	 mov	 ecx, DWORD PTR _nXCell$[ebp]
  02cbc	51		 push	 ecx
  02cbd	8b 4d fc	 mov	 ecx, DWORD PTR _this$[ebp]
  02cc0	e8 00 00 00 00	 call	 ?GetLowestObstacle@KRegion@@QAEPAUKCell@@HH@Z ; KRegion::GetLowestObstacle
  02cc5	89 45 ec	 mov	 DWORD PTR _pCellNode$[ebp], eax
$LN11@SetWaterHe:

; 1073 : 
; 1074 :     while (pCellNode)

  02cc8	83 7d ec 00	 cmp	 DWORD PTR _pCellNode$[ebp], 0
  02ccc	0f 84 6a 01 00
	00		 je	 $LN10@SetWaterHe

; 1075 :     {
; 1076 :         KCell*  pNext               = NULL;

  02cd2	c7 45 e8 00 00
	00 00		 mov	 DWORD PTR _pNext$177819[ebp], 0

; 1077 :         WORD    wWaterCellHighLayer = 0;

  02cd9	66 c7 45 e4 00
	00		 mov	 WORD PTR _wWaterCellHighLayer$177820[ebp], 0

; 1078 : 
; 1079 :         if (pCellNode->m_wHighLayer >= wWaterHeight)

  02cdf	8b 55 ec	 mov	 edx, DWORD PTR _pCellNode$[ebp]
  02ce2	0f b7 42 06	 movzx	 eax, WORD PTR [edx+6]
  02ce6	0f b7 4d 10	 movzx	 ecx, WORD PTR _wWaterHeight$[ebp]
  02cea	3b c1		 cmp	 eax, ecx
  02cec	7c 05		 jl	 SHORT $LN9@SetWaterHe

; 1080 :             break;

  02cee	e9 49 01 00 00	 jmp	 $LN10@SetWaterHe
$LN9@SetWaterHe:

; 1081 : 
; 1082 :         assert(pCellNode->m_wLowLayer < wWaterHeight);

  02cf3	8b 55 ec	 mov	 edx, DWORD PTR _pCellNode$[ebp]
  02cf6	0f b7 42 04	 movzx	 eax, WORD PTR [edx+4]
  02cfa	0f b7 4d 10	 movzx	 ecx, WORD PTR _wWaterHeight$[ebp]
  02cfe	3b c1		 cmp	 eax, ecx
  02d00	7c 21		 jl	 SHORT $LN30@SetWaterHe
  02d02	8b f4		 mov	 esi, esp
  02d04	68 3a 04 00 00	 push	 1082			; 0000043aH
  02d09	68 00 00 00 00	 push	 OFFSET $SG177823
  02d0e	68 00 00 00 00	 push	 OFFSET $SG177824
  02d13	ff 15 00 00 00
	00		 call	 DWORD PTR __imp___wassert
  02d19	83 c4 0c	 add	 esp, 12			; 0000000cH
  02d1c	3b f4		 cmp	 esi, esp
  02d1e	e8 00 00 00 00	 call	 __RTC_CheckEsp
$LN30@SetWaterHe:

; 1083 : 
; 1084 :         pNext = pCellNode->m_pNext;

  02d23	8b 45 ec	 mov	 eax, DWORD PTR _pCellNode$[ebp]
  02d26	8b 48 08	 mov	 ecx, DWORD PTR [eax+8]
  02d29	89 4d e8	 mov	 DWORD PTR _pNext$177819[ebp], ecx

; 1085 : 
; 1086 : 		if (pNext && pNext->m_wLowLayer < wWaterHeight)

  02d2c	83 7d e8 00	 cmp	 DWORD PTR _pNext$177819[ebp], 0
  02d30	74 1c		 je	 SHORT $LN8@SetWaterHe
  02d32	8b 55 e8	 mov	 edx, DWORD PTR _pNext$177819[ebp]
  02d35	0f b7 42 04	 movzx	 eax, WORD PTR [edx+4]
  02d39	0f b7 4d 10	 movzx	 ecx, WORD PTR _wWaterHeight$[ebp]
  02d3d	3b c1		 cmp	 eax, ecx
  02d3f	7d 0d		 jge	 SHORT $LN8@SetWaterHe

; 1087 : 		{
; 1088 : 			wWaterCellHighLayer = pNext->m_wLowLayer;

  02d41	8b 55 e8	 mov	 edx, DWORD PTR _pNext$177819[ebp]
  02d44	66 8b 42 04	 mov	 ax, WORD PTR [edx+4]
  02d48	66 89 45 e4	 mov	 WORD PTR _wWaterCellHighLayer$177820[ebp], ax

; 1089 : 		}
; 1090 : 		else

  02d4c	eb 08		 jmp	 SHORT $LN7@SetWaterHe
$LN8@SetWaterHe:

; 1091 : 		{
; 1092 : 			wWaterCellHighLayer = wWaterHeight;

  02d4e	66 8b 4d 10	 mov	 cx, WORD PTR _wWaterHeight$[ebp]
  02d52	66 89 4d e4	 mov	 WORD PTR _wWaterCellHighLayer$177820[ebp], cx
$LN7@SetWaterHe:

; 1093 : 		}
; 1094 : 
; 1095 :         if (wWaterCellHighLayer > pCellNode->m_wHighLayer)

  02d56	0f b7 55 e4	 movzx	 edx, WORD PTR _wWaterCellHighLayer$177820[ebp]
  02d5a	8b 45 ec	 mov	 eax, DWORD PTR _pCellNode$[ebp]
  02d5d	0f b7 48 06	 movzx	 ecx, WORD PTR [eax+6]
  02d61	3b d1		 cmp	 edx, ecx
  02d63	0f 8e c5 00 00
	00		 jle	 $LN6@SetWaterHe

; 1096 :         {
; 1097 : 		    KCell* pNewCell = NULL;

  02d69	c7 45 e0 00 00
	00 00		 mov	 DWORD PTR _pNewCell$177828[ebp], 0

; 1098 :                         
; 1099 :             pNewCell = KMemory::RawNew<KCell>();

  02d70	e8 00 00 00 00	 call	 ??$RawNew@UKCell@@@KMemory@@YAPAUKCell@@XZ ; KMemory::RawNew<KCell>
  02d75	89 45 e0	 mov	 DWORD PTR _pNewCell$177828[ebp], eax
$LN5@SetWaterHe:

; 1100 :             KGLOG_PROCESS_ERROR(pNewCell);

  02d78	83 7d e0 00	 cmp	 DWORD PTR _pNewCell$177828[ebp], 0
  02d7c	75 32		 jne	 SHORT $LN4@SetWaterHe
  02d7e	8b f4		 mov	 esi, esp
  02d80	68 00 00 00 00	 push	 OFFSET $SG177834
  02d85	68 4c 04 00 00	 push	 1100			; 0000044cH
  02d8a	68 00 00 00 00	 push	 OFFSET $SG177835
  02d8f	68 00 00 00 00	 push	 OFFSET $SG177836
  02d94	6a 07		 push	 7
  02d96	ff 15 00 00 00
	00		 call	 DWORD PTR __imp_?KGLogPrintf@@YAHW4KGLOG_PRIORITY@@QBDZZ
  02d9c	83 c4 14	 add	 esp, 20			; 00000014H
  02d9f	3b f4		 cmp	 esi, esp
  02da1	e8 00 00 00 00	 call	 __RTC_CheckEsp
  02da6	e9 98 00 00 00	 jmp	 $Exit0$177798
  02dab	e9 93 00 00 00	 jmp	 $Exit0$177798
$LN4@SetWaterHe:
  02db0	33 d2		 xor	 edx, edx
  02db2	75 c4		 jne	 SHORT $LN5@SetWaterHe

; 1101 : 
; 1102 : 		    ZeroMemory(&pNewCell->m_BaseInfo, sizeof(KCell::KBaseInfo));

  02db4	6a 04		 push	 4
  02db6	6a 00		 push	 0
  02db8	8b 45 e0	 mov	 eax, DWORD PTR _pNewCell$177828[ebp]
  02dbb	50		 push	 eax
  02dbc	e8 00 00 00 00	 call	 _memset
  02dc1	83 c4 0c	 add	 esp, 12			; 0000000cH

; 1103 : 
; 1104 : 		    pNewCell->m_BaseInfo.dwCellType            = ctWater;

  02dc4	8b 4d e0	 mov	 ecx, DWORD PTR _pNewCell$177828[ebp]
  02dc7	8b 11		 mov	 edx, DWORD PTR [ecx]
  02dc9	83 e2 fc	 and	 edx, -4			; fffffffcH
  02dcc	83 ca 01	 or	 edx, 1
  02dcf	8b 45 e0	 mov	 eax, DWORD PTR _pNewCell$177828[ebp]
  02dd2	89 10		 mov	 DWORD PTR [eax], edx

; 1105 : 
; 1106 :             pNewCell->SetGradientDegree(0);

  02dd4	6a 00		 push	 0
  02dd6	8b 4d e0	 mov	 ecx, DWORD PTR _pNewCell$177828[ebp]
  02dd9	e8 00 00 00 00	 call	 ?SetGradientDegree@KCell@@QAEXH@Z ; KCell::SetGradientDegree

; 1107 :             pNewCell->SetGradientDirection(0);

  02dde	6a 00		 push	 0
  02de0	8b 4d e0	 mov	 ecx, DWORD PTR _pNewCell$177828[ebp]
  02de3	e8 00 00 00 00	 call	 ?SetGradientDirection@KCell@@QAEXH@Z ; KCell::SetGradientDirection

; 1108 :             pNewCell->SetBarrierDirection(0);

  02de8	6a 00		 push	 0
  02dea	8b 4d e0	 mov	 ecx, DWORD PTR _pNewCell$177828[ebp]
  02ded	e8 00 00 00 00	 call	 ?SetBarrierDirection@KCell@@QAEXH@Z ; KCell::SetBarrierDirection

; 1109 : 
; 1110 : 		    pNewCell->m_wLowLayer   = pCellNode->m_wHighLayer;

  02df2	8b 4d e0	 mov	 ecx, DWORD PTR _pNewCell$177828[ebp]
  02df5	8b 55 ec	 mov	 edx, DWORD PTR _pCellNode$[ebp]
  02df8	66 8b 42 06	 mov	 ax, WORD PTR [edx+6]
  02dfc	66 89 41 04	 mov	 WORD PTR [ecx+4], ax

; 1111 :             pNewCell->m_wHighLayer  = wWaterCellHighLayer;

  02e00	8b 4d e0	 mov	 ecx, DWORD PTR _pNewCell$177828[ebp]
  02e03	66 8b 55 e4	 mov	 dx, WORD PTR _wWaterCellHighLayer$177820[ebp]
  02e07	66 89 51 06	 mov	 WORD PTR [ecx+6], dx

; 1112 : 
; 1113 :             pNewCell->m_pNext   = pCellNode->m_pNext;

  02e0b	8b 45 e0	 mov	 eax, DWORD PTR _pNewCell$177828[ebp]
  02e0e	8b 4d ec	 mov	 ecx, DWORD PTR _pCellNode$[ebp]
  02e11	8b 51 08	 mov	 edx, DWORD PTR [ecx+8]
  02e14	89 50 08	 mov	 DWORD PTR [eax+8], edx

; 1114 :             pCellNode->m_pNext  = pNewCell;

  02e17	8b 45 ec	 mov	 eax, DWORD PTR _pCellNode$[ebp]
  02e1a	8b 4d e0	 mov	 ecx, DWORD PTR _pNewCell$177828[ebp]
  02e1d	89 48 08	 mov	 DWORD PTR [eax+8], ecx

; 1115 : 
; 1116 :             pCellNode = pNewCell->m_pNext;

  02e20	8b 55 e0	 mov	 edx, DWORD PTR _pNewCell$177828[ebp]
  02e23	8b 42 08	 mov	 eax, DWORD PTR [edx+8]
  02e26	89 45 ec	 mov	 DWORD PTR _pCellNode$[ebp], eax

; 1117 :             continue;

  02e29	e9 9a fe ff ff	 jmp	 $LN11@SetWaterHe
$LN6@SetWaterHe:

; 1118 :         }
; 1119 : 
; 1120 :         pCellNode = pCellNode->m_pNext;

  02e2e	8b 4d ec	 mov	 ecx, DWORD PTR _pCellNode$[ebp]
  02e31	8b 51 08	 mov	 edx, DWORD PTR [ecx+8]
  02e34	89 55 ec	 mov	 DWORD PTR _pCellNode$[ebp], edx

; 1121 :     }

  02e37	e9 8c fe ff ff	 jmp	 $LN11@SetWaterHe
$LN10@SetWaterHe:

; 1122 : 
; 1123 : 	bResult = true;

  02e3c	c7 45 f8 01 00
	00 00		 mov	 DWORD PTR _bResult$[ebp], 1
$Exit0$177798:

; 1124 : Exit0:
; 1125 : 	return bResult;

  02e43	8b 45 f8	 mov	 eax, DWORD PTR _bResult$[ebp]

; 1126 : }

  02e46	5e		 pop	 esi
  02e47	83 c4 20	 add	 esp, 32			; 00000020H
  02e4a	3b ec		 cmp	 ebp, esp
  02e4c	e8 00 00 00 00	 call	 __RTC_CheckEsp
  02e51	8b e5		 mov	 esp, ebp
  02e53	5d		 pop	 ebp
  02e54	c2 0c 00	 ret	 12			; 0000000cH
?SetWaterHeight@KRegion@@QAEHHHG@Z ENDP			; KRegion::SetWaterHeight
_TEXT	ENDS
PUBLIC	??_C@_1FM@PBODPGFE@?$AAn?$AAD?$AAe?$AAg?$AAr?$AAe?$AAe?$AA?5?$AA?$DO?$AA?$DN?$AA?5?$AA0?$AA?5?$AA?$CG?$AA?$CG?$AA?5?$AAn?$AAD?$AAe?$AAg?$AAr?$AAe?$AAe?$AA?5?$AA?$DM?$AA?5?$AAD?$AAI?$AAR?$AAE?$AAC?$AAT@ ; `string'
PUBLIC	??_C@_1FK@PIOLGJMI@?$AAd?$AA?3?$AA?2?$AAc?$AAo?$AAd?$AAe?$AA?2?$AAg?$AAa?$AAm?$AAe?$AA?2?$AAs?$AAw?$AAo?$AAr?$AAd?$AA3?$AA?2?$AAi?$AAn?$AAc?$AAl?$AAu?$AAd?$AAe?$AA?2?$AAs?$AAo?$AA3?$AAw@ ; `string'
;	COMDAT ??_C@_1FM@PBODPGFE@?$AAn?$AAD?$AAe?$AAg?$AAr?$AAe?$AAe?$AA?5?$AA?$DO?$AA?$DN?$AA?5?$AA0?$AA?5?$AA?$CG?$AA?$CG?$AA?5?$AAn?$AAD?$AAe?$AAg?$AAr?$AAe?$AAe?$AA?5?$AA?$DM?$AA?5?$AAD?$AAI?$AAR?$AAE?$AAC?$AAT@
; File d:\code\game\sword3\include\so3world\kcell.h
CONST	SEGMENT
??_C@_1FM@PBODPGFE@?$AAn?$AAD?$AAe?$AAg?$AAr?$AAe?$AAe?$AA?5?$AA?$DO?$AA?$DN?$AA?5?$AA0?$AA?5?$AA?$CG?$AA?$CG?$AA?5?$AAn?$AAD?$AAe?$AAg?$AAr?$AAe?$AAe?$AA?5?$AA?$DM?$AA?5?$AAD?$AAI?$AAR?$AAE?$AAC?$AAT@ DB 'n'
	DB	00H, 'D', 00H, 'e', 00H, 'g', 00H, 'r', 00H, 'e', 00H, 'e', 00H
	DB	' ', 00H, '>', 00H, '=', 00H, ' ', 00H, '0', 00H, ' ', 00H, '&'
	DB	00H, '&', 00H, ' ', 00H, 'n', 00H, 'D', 00H, 'e', 00H, 'g', 00H
	DB	'r', 00H, 'e', 00H, 'e', 00H, ' ', 00H, '<', 00H, ' ', 00H, 'D'
	DB	00H, 'I', 00H, 'R', 00H, 'E', 00H, 'C', 00H, 'T', 00H, 'I', 00H
	DB	'O', 00H, 'N', 00H, '_', 00H, 'C', 00H, 'O', 00H, 'U', 00H, 'N'
	DB	00H, 'T', 00H, ' ', 00H, '/', 00H, ' ', 00H, '4', 00H, 00H, 00H ; `string'
CONST	ENDS
;	COMDAT ??_C@_1FK@PIOLGJMI@?$AAd?$AA?3?$AA?2?$AAc?$AAo?$AAd?$AAe?$AA?2?$AAg?$AAa?$AAm?$AAe?$AA?2?$AAs?$AAw?$AAo?$AAr?$AAd?$AA3?$AA?2?$AAi?$AAn?$AAc?$AAl?$AAu?$AAd?$AAe?$AA?2?$AAs?$AAo?$AA3?$AAw@
CONST	SEGMENT
??_C@_1FK@PIOLGJMI@?$AAd?$AA?3?$AA?2?$AAc?$AAo?$AAd?$AAe?$AA?2?$AAg?$AAa?$AAm?$AAe?$AA?2?$AAs?$AAw?$AAo?$AAr?$AAd?$AA3?$AA?2?$AAi?$AAn?$AAc?$AAl?$AAu?$AAd?$AAe?$AA?2?$AAs?$AAo?$AA3?$AAw@ DB 'd'
	DB	00H, ':', 00H, '\', 00H, 'c', 00H, 'o', 00H, 'd', 00H, 'e', 00H
	DB	'\', 00H, 'g', 00H, 'a', 00H, 'm', 00H, 'e', 00H, '\', 00H, 's'
	DB	00H, 'w', 00H, 'o', 00H, 'r', 00H, 'd', 00H, '3', 00H, '\', 00H
	DB	'i', 00H, 'n', 00H, 'c', 00H, 'l', 00H, 'u', 00H, 'd', 00H, 'e'
	DB	00H, '\', 00H, 's', 00H, 'o', 00H, '3', 00H, 'w', 00H, 'o', 00H
	DB	'r', 00H, 'l', 00H, 'd', 00H, '\', 00H, 'K', 00H, 'C', 00H, 'e'
	DB	00H, 'l', 00H, 'l', 00H, '.', 00H, 'h', 00H, 00H, 00H ; `string'
; Function compile flags: /Odtp /RTCsu
CONST	ENDS
;	COMDAT ?SetGradientDegree@KCell@@QAEXH@Z
_TEXT	SEGMENT
_this$ = -4						; size = 4
_nDegree$ = 8						; size = 4
?SetGradientDegree@KCell@@QAEXH@Z PROC			; KCell::SetGradientDegree, COMDAT
; _this$ = ecx

; 72   :     { 

  00000	55		 push	 ebp
  00001	8b ec		 mov	 ebp, esp
  00003	51		 push	 ecx
  00004	56		 push	 esi
  00005	c7 45 fc cc cc
	cc cc		 mov	 DWORD PTR [ebp-4], -858993460 ; ccccccccH
  0000c	89 4d fc	 mov	 DWORD PTR _this$[ebp], ecx

; 73   :         assert(nDegree >= 0 && nDegree < DIRECTION_COUNT / 4);

  0000f	83 7d 08 00	 cmp	 DWORD PTR _nDegree$[ebp], 0
  00013	7c 06		 jl	 SHORT $LN3@SetGradien
  00015	83 7d 08 40	 cmp	 DWORD PTR _nDegree$[ebp], 64 ; 00000040H
  00019	7c 1e		 jl	 SHORT $LN4@SetGradien
$LN3@SetGradien:
  0001b	8b f4		 mov	 esi, esp
  0001d	6a 49		 push	 73			; 00000049H
  0001f	68 00 00 00 00	 push	 OFFSET ??_C@_1FK@PIOLGJMI@?$AAd?$AA?3?$AA?2?$AAc?$AAo?$AAd?$AAe?$AA?2?$AAg?$AAa?$AAm?$AAe?$AA?2?$AAs?$AAw?$AAo?$AAr?$AAd?$AA3?$AA?2?$AAi?$AAn?$AAc?$AAl?$AAu?$AAd?$AAe?$AA?2?$AAs?$AAo?$AA3?$AAw@
  00024	68 00 00 00 00	 push	 OFFSET ??_C@_1FM@PBODPGFE@?$AAn?$AAD?$AAe?$AAg?$AAr?$AAe?$AAe?$AA?5?$AA?$DO?$AA?$DN?$AA?5?$AA0?$AA?5?$AA?$CG?$AA?$CG?$AA?5?$AAn?$AAD?$AAe?$AAg?$AAr?$AAe?$AAe?$AA?5?$AA?$DM?$AA?5?$AAD?$AAI?$AAR?$AAE?$AAC?$AAT@
  00029	ff 15 00 00 00
	00		 call	 DWORD PTR __imp___wassert
  0002f	83 c4 0c	 add	 esp, 12			; 0000000cH
  00032	3b f4		 cmp	 esi, esp
  00034	e8 00 00 00 00	 call	 __RTC_CheckEsp
$LN4@SetGradien:

; 74   :         m_BaseInfo.dwGradientDegree = nDegree / (DIRECTION_COUNT / 4 / 8);

  00039	8b 45 08	 mov	 eax, DWORD PTR _nDegree$[ebp]
  0003c	99		 cdq
  0003d	83 e2 07	 and	 edx, 7
  00040	03 c2		 add	 eax, edx
  00042	c1 f8 03	 sar	 eax, 3
  00045	83 e0 07	 and	 eax, 7
  00048	c1 e0 09	 shl	 eax, 9
  0004b	8b 4d fc	 mov	 ecx, DWORD PTR _this$[ebp]
  0004e	8b 11		 mov	 edx, DWORD PTR [ecx]
  00050	81 e2 ff f1 ff
	ff		 and	 edx, -3585		; fffff1ffH
  00056	0b d0		 or	 edx, eax
  00058	8b 45 fc	 mov	 eax, DWORD PTR _this$[ebp]
  0005b	89 10		 mov	 DWORD PTR [eax], edx

; 75   :     }

  0005d	5e		 pop	 esi
  0005e	83 c4 04	 add	 esp, 4
  00061	3b ec		 cmp	 ebp, esp
  00063	e8 00 00 00 00	 call	 __RTC_CheckEsp
  00068	8b e5		 mov	 esp, ebp
  0006a	5d		 pop	 ebp
  0006b	c2 04 00	 ret	 4
?SetGradientDegree@KCell@@QAEXH@Z ENDP			; KCell::SetGradientDegree
_TEXT	ENDS
PUBLIC	??_C@_1GA@NBKKAJIF@?$AAn?$AAD?$AAi?$AAr?$AAe?$AAc?$AAt?$AAi?$AAo?$AAn?$AA?5?$AA?$DO?$AA?$DN?$AA?5?$AA0?$AA?5?$AA?$CG?$AA?$CG?$AA?5?$AAn?$AAD?$AAi?$AAr?$AAe?$AAc?$AAt?$AAi?$AAo?$AAn?$AA?5?$AA?$DM?$AA?5@ ; `string'
;	COMDAT ??_C@_1GA@NBKKAJIF@?$AAn?$AAD?$AAi?$AAr?$AAe?$AAc?$AAt?$AAi?$AAo?$AAn?$AA?5?$AA?$DO?$AA?$DN?$AA?5?$AA0?$AA?5?$AA?$CG?$AA?$CG?$AA?5?$AAn?$AAD?$AAi?$AAr?$AAe?$AAc?$AAt?$AAi?$AAo?$AAn?$AA?5?$AA?$DM?$AA?5@
CONST	SEGMENT
??_C@_1GA@NBKKAJIF@?$AAn?$AAD?$AAi?$AAr?$AAe?$AAc?$AAt?$AAi?$AAo?$AAn?$AA?5?$AA?$DO?$AA?$DN?$AA?5?$AA0?$AA?5?$AA?$CG?$AA?$CG?$AA?5?$AAn?$AAD?$AAi?$AAr?$AAe?$AAc?$AAt?$AAi?$AAo?$AAn?$AA?5?$AA?$DM?$AA?5@ DB 'n'
	DB	00H, 'D', 00H, 'i', 00H, 'r', 00H, 'e', 00H, 'c', 00H, 't', 00H
	DB	'i', 00H, 'o', 00H, 'n', 00H, ' ', 00H, '>', 00H, '=', 00H, ' '
	DB	00H, '0', 00H, ' ', 00H, '&', 00H, '&', 00H, ' ', 00H, 'n', 00H
	DB	'D', 00H, 'i', 00H, 'r', 00H, 'e', 00H, 'c', 00H, 't', 00H, 'i'
	DB	00H, 'o', 00H, 'n', 00H, ' ', 00H, '<', 00H, ' ', 00H, 'D', 00H
	DB	'I', 00H, 'R', 00H, 'E', 00H, 'C', 00H, 'T', 00H, 'I', 00H, 'O'
	DB	00H, 'N', 00H, '_', 00H, 'C', 00H, 'O', 00H, 'U', 00H, 'N', 00H
	DB	'T', 00H, 00H, 00H				; `string'
; Function compile flags: /Odtp /RTCsu
CONST	ENDS
;	COMDAT ?SetGradientDirection@KCell@@QAEXH@Z
_TEXT	SEGMENT
_this$ = -4						; size = 4
_nDirection$ = 8					; size = 4
?SetGradientDirection@KCell@@QAEXH@Z PROC		; KCell::SetGradientDirection, COMDAT
; _this$ = ecx

; 83   :     { 

  00000	55		 push	 ebp
  00001	8b ec		 mov	 ebp, esp
  00003	51		 push	 ecx
  00004	56		 push	 esi
  00005	c7 45 fc cc cc
	cc cc		 mov	 DWORD PTR [ebp-4], -858993460 ; ccccccccH
  0000c	89 4d fc	 mov	 DWORD PTR _this$[ebp], ecx

; 84   :         assert(nDirection >= 0 && nDirection < DIRECTION_COUNT);

  0000f	83 7d 08 00	 cmp	 DWORD PTR _nDirection$[ebp], 0
  00013	7c 09		 jl	 SHORT $LN3@SetGradien@2
  00015	81 7d 08 00 01
	00 00		 cmp	 DWORD PTR _nDirection$[ebp], 256 ; 00000100H
  0001c	7c 1e		 jl	 SHORT $LN4@SetGradien@2
$LN3@SetGradien@2:
  0001e	8b f4		 mov	 esi, esp
  00020	6a 54		 push	 84			; 00000054H
  00022	68 00 00 00 00	 push	 OFFSET ??_C@_1FK@PIOLGJMI@?$AAd?$AA?3?$AA?2?$AAc?$AAo?$AAd?$AAe?$AA?2?$AAg?$AAa?$AAm?$AAe?$AA?2?$AAs?$AAw?$AAo?$AAr?$AAd?$AA3?$AA?2?$AAi?$AAn?$AAc?$AAl?$AAu?$AAd?$AAe?$AA?2?$AAs?$AAo?$AA3?$AAw@
  00027	68 00 00 00 00	 push	 OFFSET ??_C@_1GA@NBKKAJIF@?$AAn?$AAD?$AAi?$AAr?$AAe?$AAc?$AAt?$AAi?$AAo?$AAn?$AA?5?$AA?$DO?$AA?$DN?$AA?5?$AA0?$AA?5?$AA?$CG?$AA?$CG?$AA?5?$AAn?$AAD?$AAi?$AAr?$AAe?$AAc?$AAt?$AAi?$AAo?$AAn?$AA?5?$AA?$DM?$AA?5@
  0002c	ff 15 00 00 00
	00		 call	 DWORD PTR __imp___wassert
  00032	83 c4 0c	 add	 esp, 12			; 0000000cH
  00035	3b f4		 cmp	 esi, esp
  00037	e8 00 00 00 00	 call	 __RTC_CheckEsp
$LN4@SetGradien@2:

; 85   :         m_BaseInfo.dwGradientDirection = nDirection / (DIRECTION_COUNT / 8);

  0003c	8b 45 08	 mov	 eax, DWORD PTR _nDirection$[ebp]
  0003f	99		 cdq
  00040	83 e2 1f	 and	 edx, 31			; 0000001fH
  00043	03 c2		 add	 eax, edx
  00045	c1 f8 05	 sar	 eax, 5
  00048	83 e0 07	 and	 eax, 7
  0004b	c1 e0 06	 shl	 eax, 6
  0004e	8b 4d fc	 mov	 ecx, DWORD PTR _this$[ebp]
  00051	8b 11		 mov	 edx, DWORD PTR [ecx]
  00053	81 e2 3f fe ff
	ff		 and	 edx, -449		; fffffe3fH
  00059	0b d0		 or	 edx, eax
  0005b	8b 45 fc	 mov	 eax, DWORD PTR _this$[ebp]
  0005e	89 10		 mov	 DWORD PTR [eax], edx

; 86   :     }

  00060	5e		 pop	 esi
  00061	83 c4 04	 add	 esp, 4
  00064	3b ec		 cmp	 ebp, esp
  00066	e8 00 00 00 00	 call	 __RTC_CheckEsp
  0006b	8b e5		 mov	 esp, ebp
  0006d	5d		 pop	 ebp
  0006e	c2 04 00	 ret	 4
?SetGradientDirection@KCell@@QAEXH@Z ENDP		; KCell::SetGradientDirection
; Function compile flags: /Odtp /RTCsu
_TEXT	ENDS
;	COMDAT ?SetBarrierDirection@KCell@@QAEXH@Z
_TEXT	SEGMENT
_this$ = -4						; size = 4
_nDirection$ = 8					; size = 4
?SetBarrierDirection@KCell@@QAEXH@Z PROC		; KCell::SetBarrierDirection, COMDAT
; _this$ = ecx

; 94   :     { 

  00000	55		 push	 ebp
  00001	8b ec		 mov	 ebp, esp
  00003	51		 push	 ecx
  00004	56		 push	 esi
  00005	c7 45 fc cc cc
	cc cc		 mov	 DWORD PTR [ebp-4], -858993460 ; ccccccccH
  0000c	89 4d fc	 mov	 DWORD PTR _this$[ebp], ecx

; 95   :         assert(nDirection >= 0 && nDirection < DIRECTION_COUNT);

  0000f	83 7d 08 00	 cmp	 DWORD PTR _nDirection$[ebp], 0
  00013	7c 09		 jl	 SHORT $LN4@SetBarrier
  00015	81 7d 08 00 01
	00 00		 cmp	 DWORD PTR _nDirection$[ebp], 256 ; 00000100H
  0001c	7c 1e		 jl	 SHORT $LN5@SetBarrier
$LN4@SetBarrier:
  0001e	8b f4		 mov	 esi, esp
  00020	6a 5f		 push	 95			; 0000005fH
  00022	68 00 00 00 00	 push	 OFFSET ??_C@_1FK@PIOLGJMI@?$AAd?$AA?3?$AA?2?$AAc?$AAo?$AAd?$AAe?$AA?2?$AAg?$AAa?$AAm?$AAe?$AA?2?$AAs?$AAw?$AAo?$AAr?$AAd?$AA3?$AA?2?$AAi?$AAn?$AAc?$AAl?$AAu?$AAd?$AAe?$AA?2?$AAs?$AAo?$AA3?$AAw@
  00027	68 00 00 00 00	 push	 OFFSET ??_C@_1GA@NBKKAJIF@?$AAn?$AAD?$AAi?$AAr?$AAe?$AAc?$AAt?$AAi?$AAo?$AAn?$AA?5?$AA?$DO?$AA?$DN?$AA?5?$AA0?$AA?5?$AA?$CG?$AA?$CG?$AA?5?$AAn?$AAD?$AAi?$AAr?$AAe?$AAc?$AAt?$AAi?$AAo?$AAn?$AA?5?$AA?$DM?$AA?5@
  0002c	ff 15 00 00 00
	00		 call	 DWORD PTR __imp___wassert
  00032	83 c4 0c	 add	 esp, 12			; 0000000cH
  00035	3b f4		 cmp	 esi, esp
  00037	e8 00 00 00 00	 call	 __RTC_CheckEsp
$LN5@SetBarrier:

; 96   :         if (nDirection >= DIRECTION_COUNT / 2)

  0003c	81 7d 08 80 00
	00 00		 cmp	 DWORD PTR _nDirection$[ebp], 128 ; 00000080H
  00043	7c 0c		 jl	 SHORT $LN1@SetBarrier

; 97   :         {
; 98   :             nDirection -= DIRECTION_COUNT / 2;

  00045	8b 4d 08	 mov	 ecx, DWORD PTR _nDirection$[ebp]
  00048	81 e9 80 00 00
	00		 sub	 ecx, 128		; 00000080H
  0004e	89 4d 08	 mov	 DWORD PTR _nDirection$[ebp], ecx
$LN1@SetBarrier:

; 99   :         }
; 100  :         m_BaseInfo.dwBarrierDirection = nDirection / (DIRECTION_COUNT / 2 / 8);

  00051	8b 45 08	 mov	 eax, DWORD PTR _nDirection$[ebp]
  00054	99		 cdq
  00055	83 e2 0f	 and	 edx, 15			; 0000000fH
  00058	03 c2		 add	 eax, edx
  0005a	c1 f8 04	 sar	 eax, 4
  0005d	83 e0 07	 and	 eax, 7
  00060	c1 e0 0c	 shl	 eax, 12			; 0000000cH
  00063	8b 55 fc	 mov	 edx, DWORD PTR _this$[ebp]
  00066	8b 0a		 mov	 ecx, DWORD PTR [edx]
  00068	81 e1 ff 8f ff
	ff		 and	 ecx, -28673		; ffff8fffH
  0006e	0b c8		 or	 ecx, eax
  00070	8b 55 fc	 mov	 edx, DWORD PTR _this$[ebp]
  00073	89 0a		 mov	 DWORD PTR [edx], ecx

; 101  :     }

  00075	5e		 pop	 esi
  00076	83 c4 04	 add	 esp, 4
  00079	3b ec		 cmp	 ebp, esp
  0007b	e8 00 00 00 00	 call	 __RTC_CheckEsp
  00080	8b e5		 mov	 esp, ebp
  00082	5d		 pop	 ebp
  00083	c2 04 00	 ret	 4
?SetBarrierDirection@KCell@@QAEXH@Z ENDP		; KCell::SetBarrierDirection
_TEXT	ENDS
PUBLIC	?GetObstacle@KRegion@@QAEPAUKCell@@HHH@Z	; KRegion::GetObstacle
; Function compile flags: /Odtp /RTCsu
; File d:\code\game\sword3\source\common\so3world\src\kregion.cpp
_TEXT	SEGMENT
_pCell$ = -8						; size = 4
_this$ = -4						; size = 4
_nXCell$ = 8						; size = 4
_nYCell$ = 12						; size = 4
_nZ$ = 16						; size = 4
?GetObstacle@KRegion@@QAEPAUKCell@@HHH@Z PROC		; KRegion::GetObstacle
; _this$ = ecx

; 1131 : {

  02e60	55		 push	 ebp
  02e61	8b ec		 mov	 ebp, esp
  02e63	83 ec 08	 sub	 esp, 8
  02e66	56		 push	 esi
  02e67	c7 45 f8 cc cc
	cc cc		 mov	 DWORD PTR [ebp-8], -858993460 ; ccccccccH
  02e6e	c7 45 fc cc cc
	cc cc		 mov	 DWORD PTR [ebp-4], -858993460 ; ccccccccH
  02e75	89 4d fc	 mov	 DWORD PTR _this$[ebp], ecx

; 1132 : 	KCell* pCell = GetLowestObstacle(nXCell, nYCell);

  02e78	8b 45 0c	 mov	 eax, DWORD PTR _nYCell$[ebp]
  02e7b	50		 push	 eax
  02e7c	8b 4d 08	 mov	 ecx, DWORD PTR _nXCell$[ebp]
  02e7f	51		 push	 ecx
  02e80	8b 4d fc	 mov	 ecx, DWORD PTR _this$[ebp]
  02e83	e8 00 00 00 00	 call	 ?GetLowestObstacle@KRegion@@QAEPAUKCell@@HH@Z ; KRegion::GetLowestObstacle
  02e88	89 45 f8	 mov	 DWORD PTR _pCell$[ebp], eax

; 1133 : 
; 1134 :     assert(nXCell >= 0);

  02e8b	83 7d 08 00	 cmp	 DWORD PTR _nXCell$[ebp], 0
  02e8f	7d 21		 jge	 SHORT $LN6@GetObstacl
  02e91	8b f4		 mov	 esi, esp
  02e93	68 6e 04 00 00	 push	 1134			; 0000046eH
  02e98	68 00 00 00 00	 push	 OFFSET $SG177847
  02e9d	68 00 00 00 00	 push	 OFFSET $SG177848
  02ea2	ff 15 00 00 00
	00		 call	 DWORD PTR __imp___wassert
  02ea8	83 c4 0c	 add	 esp, 12			; 0000000cH
  02eab	3b f4		 cmp	 esi, esp
  02ead	e8 00 00 00 00	 call	 __RTC_CheckEsp
$LN6@GetObstacl:

; 1135 : 	assert(nXCell < REGION_GRID_WIDTH);

  02eb2	83 7d 08 40	 cmp	 DWORD PTR _nXCell$[ebp], 64 ; 00000040H
  02eb6	7c 21		 jl	 SHORT $LN7@GetObstacl
  02eb8	8b f4		 mov	 esi, esp
  02eba	68 6f 04 00 00	 push	 1135			; 0000046fH
  02ebf	68 00 00 00 00	 push	 OFFSET $SG177850
  02ec4	68 00 00 00 00	 push	 OFFSET $SG177851
  02ec9	ff 15 00 00 00
	00		 call	 DWORD PTR __imp___wassert
  02ecf	83 c4 0c	 add	 esp, 12			; 0000000cH
  02ed2	3b f4		 cmp	 esi, esp
  02ed4	e8 00 00 00 00	 call	 __RTC_CheckEsp
$LN7@GetObstacl:

; 1136 : 	assert(nYCell >= 0);

  02ed9	83 7d 0c 00	 cmp	 DWORD PTR _nYCell$[ebp], 0
  02edd	7d 21		 jge	 SHORT $LN8@GetObstacl
  02edf	8b f4		 mov	 esi, esp
  02ee1	68 70 04 00 00	 push	 1136			; 00000470H
  02ee6	68 00 00 00 00	 push	 OFFSET $SG177853
  02eeb	68 00 00 00 00	 push	 OFFSET $SG177854
  02ef0	ff 15 00 00 00
	00		 call	 DWORD PTR __imp___wassert
  02ef6	83 c4 0c	 add	 esp, 12			; 0000000cH
  02ef9	3b f4		 cmp	 esi, esp
  02efb	e8 00 00 00 00	 call	 __RTC_CheckEsp
$LN8@GetObstacl:

; 1137 : 	assert(nYCell < REGION_GRID_HEIGHT);

  02f00	83 7d 0c 40	 cmp	 DWORD PTR _nYCell$[ebp], 64 ; 00000040H
  02f04	7c 21		 jl	 SHORT $LN3@GetObstacl
  02f06	8b f4		 mov	 esi, esp
  02f08	68 71 04 00 00	 push	 1137			; 00000471H
  02f0d	68 00 00 00 00	 push	 OFFSET $SG177856
  02f12	68 00 00 00 00	 push	 OFFSET $SG177857
  02f17	ff 15 00 00 00
	00		 call	 DWORD PTR __imp___wassert
  02f1d	83 c4 0c	 add	 esp, 12			; 0000000cH
  02f20	3b f4		 cmp	 esi, esp
  02f22	e8 00 00 00 00	 call	 __RTC_CheckEsp
$LN3@GetObstacl:

; 1138 : 
; 1139 : 	while (pCell)

  02f27	83 7d f8 00	 cmp	 DWORD PTR _pCell$[ebp], 0
  02f2b	74 2b		 je	 SHORT $LN2@GetObstacl

; 1140 : 	{
; 1141 : 		if (nZ >= pCell->m_wLowLayer * POINT_PER_ALTITUDE && nZ <= pCell->m_wHighLayer * POINT_PER_ALTITUDE)

  02f2d	8b 45 f8	 mov	 eax, DWORD PTR _pCell$[ebp]
  02f30	0f b7 48 04	 movzx	 ecx, WORD PTR [eax+4]
  02f34	c1 e1 06	 shl	 ecx, 6
  02f37	39 4d 10	 cmp	 DWORD PTR _nZ$[ebp], ecx
  02f3a	7c 11		 jl	 SHORT $LN1@GetObstacl
  02f3c	8b 55 f8	 mov	 edx, DWORD PTR _pCell$[ebp]
  02f3f	0f b7 42 06	 movzx	 eax, WORD PTR [edx+6]
  02f43	c1 e0 06	 shl	 eax, 6
  02f46	39 45 10	 cmp	 DWORD PTR _nZ$[ebp], eax
  02f49	7f 02		 jg	 SHORT $LN1@GetObstacl

; 1142 : 		{
; 1143 : 			break;

  02f4b	eb 0b		 jmp	 SHORT $LN2@GetObstacl
$LN1@GetObstacl:

; 1144 : 		}
; 1145 : 	    pCell = pCell->m_pNext;

  02f4d	8b 4d f8	 mov	 ecx, DWORD PTR _pCell$[ebp]
  02f50	8b 51 08	 mov	 edx, DWORD PTR [ecx+8]
  02f53	89 55 f8	 mov	 DWORD PTR _pCell$[ebp], edx

; 1146 : 	}

  02f56	eb cf		 jmp	 SHORT $LN3@GetObstacl
$LN2@GetObstacl:

; 1147 : 
; 1148 : 	return pCell;

  02f58	8b 45 f8	 mov	 eax, DWORD PTR _pCell$[ebp]

; 1149 : }

  02f5b	5e		 pop	 esi
  02f5c	83 c4 08	 add	 esp, 8
  02f5f	3b ec		 cmp	 ebp, esp
  02f61	e8 00 00 00 00	 call	 __RTC_CheckEsp
  02f66	8b e5		 mov	 esp, ebp
  02f68	5d		 pop	 ebp
  02f69	c2 0c 00	 ret	 12			; 0000000cH
?GetObstacle@KRegion@@QAEPAUKCell@@HHH@Z ENDP		; KRegion::GetObstacle
; Function compile flags: /Odtp /RTCsu
_this$ = -4						; size = 4
_nXCell$ = 8						; size = 4
_nYCell$ = 12						; size = 4
?GetLowestObstacle@KRegion@@QAEPAUKCell@@HH@Z PROC	; KRegion::GetLowestObstacle
; _this$ = ecx

; 1152 : {

  02f70	55		 push	 ebp
  02f71	8b ec		 mov	 ebp, esp
  02f73	51		 push	 ecx
  02f74	56		 push	 esi
  02f75	c7 45 fc cc cc
	cc cc		 mov	 DWORD PTR [ebp-4], -858993460 ; ccccccccH
  02f7c	89 4d fc	 mov	 DWORD PTR _this$[ebp], ecx

; 1153 : 	assert(nXCell >= 0);

  02f7f	83 7d 08 00	 cmp	 DWORD PTR _nXCell$[ebp], 0
  02f83	7d 21		 jge	 SHORT $LN3@GetLowestO
  02f85	8b f4		 mov	 esi, esp
  02f87	68 81 04 00 00	 push	 1153			; 00000481H
  02f8c	68 00 00 00 00	 push	 OFFSET $SG177868
  02f91	68 00 00 00 00	 push	 OFFSET $SG177869
  02f96	ff 15 00 00 00
	00		 call	 DWORD PTR __imp___wassert
  02f9c	83 c4 0c	 add	 esp, 12			; 0000000cH
  02f9f	3b f4		 cmp	 esi, esp
  02fa1	e8 00 00 00 00	 call	 __RTC_CheckEsp
$LN3@GetLowestO:

; 1154 : 	assert(nXCell < REGION_GRID_WIDTH);

  02fa6	83 7d 08 40	 cmp	 DWORD PTR _nXCell$[ebp], 64 ; 00000040H
  02faa	7c 21		 jl	 SHORT $LN4@GetLowestO
  02fac	8b f4		 mov	 esi, esp
  02fae	68 82 04 00 00	 push	 1154			; 00000482H
  02fb3	68 00 00 00 00	 push	 OFFSET $SG177871
  02fb8	68 00 00 00 00	 push	 OFFSET $SG177872
  02fbd	ff 15 00 00 00
	00		 call	 DWORD PTR __imp___wassert
  02fc3	83 c4 0c	 add	 esp, 12			; 0000000cH
  02fc6	3b f4		 cmp	 esi, esp
  02fc8	e8 00 00 00 00	 call	 __RTC_CheckEsp
$LN4@GetLowestO:

; 1155 : 	assert(nYCell >= 0);

  02fcd	83 7d 0c 00	 cmp	 DWORD PTR _nYCell$[ebp], 0
  02fd1	7d 21		 jge	 SHORT $LN5@GetLowestO
  02fd3	8b f4		 mov	 esi, esp
  02fd5	68 83 04 00 00	 push	 1155			; 00000483H
  02fda	68 00 00 00 00	 push	 OFFSET $SG177874
  02fdf	68 00 00 00 00	 push	 OFFSET $SG177875
  02fe4	ff 15 00 00 00
	00		 call	 DWORD PTR __imp___wassert
  02fea	83 c4 0c	 add	 esp, 12			; 0000000cH
  02fed	3b f4		 cmp	 esi, esp
  02fef	e8 00 00 00 00	 call	 __RTC_CheckEsp
$LN5@GetLowestO:

; 1156 : 	assert(nYCell < REGION_GRID_HEIGHT);

  02ff4	83 7d 0c 40	 cmp	 DWORD PTR _nYCell$[ebp], 64 ; 00000040H
  02ff8	7c 21		 jl	 SHORT $LN6@GetLowestO
  02ffa	8b f4		 mov	 esi, esp
  02ffc	68 84 04 00 00	 push	 1156			; 00000484H
  03001	68 00 00 00 00	 push	 OFFSET $SG177877
  03006	68 00 00 00 00	 push	 OFFSET $SG177878
  0300b	ff 15 00 00 00
	00		 call	 DWORD PTR __imp___wassert
  03011	83 c4 0c	 add	 esp, 12			; 0000000cH
  03014	3b f4		 cmp	 esi, esp
  03016	e8 00 00 00 00	 call	 __RTC_CheckEsp
$LN6@GetLowestO:

; 1157 : 
; 1158 :     return m_pCells + REGION_GRID_WIDTH * nYCell + nXCell;

  0301b	8b 4d 0c	 mov	 ecx, DWORD PTR _nYCell$[ebp]
  0301e	c1 e1 06	 shl	 ecx, 6
  03021	6b c9 0c	 imul	 ecx, 12			; 0000000cH
  03024	8b 55 fc	 mov	 edx, DWORD PTR _this$[ebp]
  03027	8b 42 1c	 mov	 eax, DWORD PTR [edx+28]
  0302a	03 c1		 add	 eax, ecx
  0302c	8b 4d 08	 mov	 ecx, DWORD PTR _nXCell$[ebp]
  0302f	6b c9 0c	 imul	 ecx, 12			; 0000000cH
  03032	03 c1		 add	 eax, ecx

; 1159 : }

  03034	5e		 pop	 esi
  03035	83 c4 04	 add	 esp, 4
  03038	3b ec		 cmp	 ebp, esp
  0303a	e8 00 00 00 00	 call	 __RTC_CheckEsp
  0303f	8b e5		 mov	 esp, ebp
  03041	5d		 pop	 ebp
  03042	c2 08 00	 ret	 8
?GetLowestObstacle@KRegion@@QAEPAUKCell@@HH@Z ENDP	; KRegion::GetLowestObstacle
_TEXT	ENDS
PUBLIC	?GetNextCell@KRegion@@QAEPAUKCell@@PAU2@H@Z	; KRegion::GetNextCell
PUBLIC	?GetLowerObstacle@KRegion@@QAEPAUKCell@@HHH@Z	; KRegion::GetLowerObstacle
; Function compile flags: /Odtp /RTCsu
_TEXT	SEGMENT
_nAltitude$ = -20					; size = 4
_pCellNode$ = -16					; size = 4
_bFound$ = -12						; size = 4
_pResult$ = -8						; size = 4
_this$ = -4						; size = 4
_nXCell$ = 8						; size = 4
_nYCell$ = 12						; size = 4
_nZ$ = 16						; size = 4
?GetLowerObstacle@KRegion@@QAEPAUKCell@@HHH@Z PROC	; KRegion::GetLowerObstacle
; _this$ = ecx

; 1162 : {

  03050	55		 push	 ebp
  03051	8b ec		 mov	 ebp, esp
  03053	83 ec 14	 sub	 esp, 20			; 00000014H
  03056	56		 push	 esi
  03057	b8 cc cc cc cc	 mov	 eax, -858993460		; ccccccccH
  0305c	89 45 ec	 mov	 DWORD PTR [ebp-20], eax
  0305f	89 45 f0	 mov	 DWORD PTR [ebp-16], eax
  03062	89 45 f4	 mov	 DWORD PTR [ebp-12], eax
  03065	89 45 f8	 mov	 DWORD PTR [ebp-8], eax
  03068	89 45 fc	 mov	 DWORD PTR [ebp-4], eax
  0306b	89 4d fc	 mov	 DWORD PTR _this$[ebp], ecx

; 1163 :     KCell*  pResult     = NULL;

  0306e	c7 45 f8 00 00
	00 00		 mov	 DWORD PTR _pResult$[ebp], 0

; 1164 : 	BOOL    bFound      = false;

  03075	c7 45 f4 00 00
	00 00		 mov	 DWORD PTR _bFound$[ebp], 0

; 1165 :     KCell*  pCellNode   = NULL;

  0307c	c7 45 f0 00 00
	00 00		 mov	 DWORD PTR _pCellNode$[ebp], 0

; 1166 :     int     nAltitude   = nZ / POINT_PER_ALTITUDE;

  03083	8b 45 10	 mov	 eax, DWORD PTR _nZ$[ebp]
  03086	99		 cdq
  03087	83 e2 3f	 and	 edx, 63			; 0000003fH
  0308a	03 c2		 add	 eax, edx
  0308c	c1 f8 06	 sar	 eax, 6
  0308f	89 45 ec	 mov	 DWORD PTR _nAltitude$[ebp], eax

; 1167 : 
; 1168 :     // Cell, "<=nZ" Cell, "<=nZ" Cell
; 1169 :     // CellnZ,NULL
; 1170 : 
; 1171 : 	assert(nXCell >= 0);

  03092	83 7d 08 00	 cmp	 DWORD PTR _nXCell$[ebp], 0
  03096	7d 21		 jge	 SHORT $LN6@GetLowerOb
  03098	8b f4		 mov	 esi, esp
  0309a	68 93 04 00 00	 push	 1171			; 00000493H
  0309f	68 00 00 00 00	 push	 OFFSET $SG177890
  030a4	68 00 00 00 00	 push	 OFFSET $SG177891
  030a9	ff 15 00 00 00
	00		 call	 DWORD PTR __imp___wassert
  030af	83 c4 0c	 add	 esp, 12			; 0000000cH
  030b2	3b f4		 cmp	 esi, esp
  030b4	e8 00 00 00 00	 call	 __RTC_CheckEsp
$LN6@GetLowerOb:

; 1172 : 	assert(nXCell < REGION_GRID_WIDTH);

  030b9	83 7d 08 40	 cmp	 DWORD PTR _nXCell$[ebp], 64 ; 00000040H
  030bd	7c 21		 jl	 SHORT $LN7@GetLowerOb
  030bf	8b f4		 mov	 esi, esp
  030c1	68 94 04 00 00	 push	 1172			; 00000494H
  030c6	68 00 00 00 00	 push	 OFFSET $SG177893
  030cb	68 00 00 00 00	 push	 OFFSET $SG177894
  030d0	ff 15 00 00 00
	00		 call	 DWORD PTR __imp___wassert
  030d6	83 c4 0c	 add	 esp, 12			; 0000000cH
  030d9	3b f4		 cmp	 esi, esp
  030db	e8 00 00 00 00	 call	 __RTC_CheckEsp
$LN7@GetLowerOb:

; 1173 : 	assert(nYCell >= 0);

  030e0	83 7d 0c 00	 cmp	 DWORD PTR _nYCell$[ebp], 0
  030e4	7d 21		 jge	 SHORT $LN8@GetLowerOb
  030e6	8b f4		 mov	 esi, esp
  030e8	68 95 04 00 00	 push	 1173			; 00000495H
  030ed	68 00 00 00 00	 push	 OFFSET $SG177896
  030f2	68 00 00 00 00	 push	 OFFSET $SG177897
  030f7	ff 15 00 00 00
	00		 call	 DWORD PTR __imp___wassert
  030fd	83 c4 0c	 add	 esp, 12			; 0000000cH
  03100	3b f4		 cmp	 esi, esp
  03102	e8 00 00 00 00	 call	 __RTC_CheckEsp
$LN8@GetLowerOb:

; 1174 : 	assert(nYCell < REGION_GRID_HEIGHT);

  03107	83 7d 0c 40	 cmp	 DWORD PTR _nYCell$[ebp], 64 ; 00000040H
  0310b	7c 21		 jl	 SHORT $LN9@GetLowerOb
  0310d	8b f4		 mov	 esi, esp
  0310f	68 96 04 00 00	 push	 1174			; 00000496H
  03114	68 00 00 00 00	 push	 OFFSET $SG177899
  03119	68 00 00 00 00	 push	 OFFSET $SG177900
  0311e	ff 15 00 00 00
	00		 call	 DWORD PTR __imp___wassert
  03124	83 c4 0c	 add	 esp, 12			; 0000000cH
  03127	3b f4		 cmp	 esi, esp
  03129	e8 00 00 00 00	 call	 __RTC_CheckEsp
$LN9@GetLowerOb:

; 1175 : 
; 1176 : 	pCellNode = GetLowestObstacle(nXCell, nYCell);

  0312e	8b 4d 0c	 mov	 ecx, DWORD PTR _nYCell$[ebp]
  03131	51		 push	 ecx
  03132	8b 55 08	 mov	 edx, DWORD PTR _nXCell$[ebp]
  03135	52		 push	 edx
  03136	8b 4d fc	 mov	 ecx, DWORD PTR _this$[ebp]
  03139	e8 00 00 00 00	 call	 ?GetLowestObstacle@KRegion@@QAEPAUKCell@@HH@Z ; KRegion::GetLowestObstacle
  0313e	89 45 f0	 mov	 DWORD PTR _pCellNode$[ebp], eax
$LN3@GetLowerOb:

; 1177 : 
; 1178 : 	while (pCellNode)

  03141	83 7d f0 00	 cmp	 DWORD PTR _pCellNode$[ebp], 0
  03145	74 27		 je	 SHORT $Exit0$177905

; 1179 : 	{
; 1180 :         // Cell,
; 1181 : 		if (pCellNode->m_wHighLayer > nAltitude)

  03147	8b 45 f0	 mov	 eax, DWORD PTR _pCellNode$[ebp]
  0314a	0f b7 48 06	 movzx	 ecx, WORD PTR [eax+6]
  0314e	3b 4d ec	 cmp	 ecx, DWORD PTR _nAltitude$[ebp]
  03151	7e 02		 jle	 SHORT $LN1@GetLowerOb

; 1182 :             break;

  03153	eb 19		 jmp	 SHORT $Exit0$177905
$LN1@GetLowerOb:

; 1183 : 
; 1184 : 		pResult		= pCellNode;

  03155	8b 55 f0	 mov	 edx, DWORD PTR _pCellNode$[ebp]
  03158	89 55 f8	 mov	 DWORD PTR _pResult$[ebp], edx

; 1185 : 	    pCellNode	= GetNextCell(pCellNode, false);

  0315b	6a 00		 push	 0
  0315d	8b 45 f0	 mov	 eax, DWORD PTR _pCellNode$[ebp]
  03160	50		 push	 eax
  03161	8b 4d fc	 mov	 ecx, DWORD PTR _this$[ebp]
  03164	e8 00 00 00 00	 call	 ?GetNextCell@KRegion@@QAEPAUKCell@@PAU2@H@Z ; KRegion::GetNextCell
  03169	89 45 f0	 mov	 DWORD PTR _pCellNode$[ebp], eax

; 1186 : 	}

  0316c	eb d3		 jmp	 SHORT $LN3@GetLowerOb
$Exit0$177905:

; 1187 : 
; 1188 : Exit0:
; 1189 : 	return pResult;

  0316e	8b 45 f8	 mov	 eax, DWORD PTR _pResult$[ebp]

; 1190 : }

  03171	5e		 pop	 esi
  03172	83 c4 14	 add	 esp, 20			; 00000014H
  03175	3b ec		 cmp	 ebp, esp
  03177	e8 00 00 00 00	 call	 __RTC_CheckEsp
  0317c	8b e5		 mov	 esp, ebp
  0317e	5d		 pop	 ebp
  0317f	c2 0c 00	 ret	 12			; 0000000cH
?GetLowerObstacle@KRegion@@QAEPAUKCell@@HHH@Z ENDP	; KRegion::GetLowerObstacle
_TEXT	ENDS
PUBLIC	?GetBarrierDirection@KCell@@QAEHXZ		; KCell::GetBarrierDirection
PUBLIC	?GetAdaptedCellForObj@KRegion@@QAEPAUKCell@@HHHHHHPAH0@Z ; KRegion::GetAdaptedCellForObj
; Function compile flags: /Odtp /RTCsu
_TEXT	SEGMENT
_pIter$177960 = -40					; size = 4
_pNextRealCell$177959 = -36				; size = 4
_pIter$177944 = -32					; size = 4
_pNextRealCell$177943 = -28				; size = 4
_pCellNode$177936 = -24					; size = 4
_nRelativeZ$ = -20					; size = 4
_nFootPosMin$ = -16					; size = 4
_pPossibleCell$ = -12					; size = 4
_pResult$ = -8						; size = 4
_this$ = -4						; size = 4
_nXCell$ = 8						; size = 4
_nYCell$ = 12						; size = 4
_nFootPosZ$ = 16					; size = 4
_nClimb$ = 20						; size = 4
_nHeight$ = 24						; size = 4
_bIgnoreDynamicSwitch$ = 28				; size = 4
_pnRelativeZ$ = 32					; size = 4
_pnObstacleDirection$ = 36				; size = 4
?GetAdaptedCellForObj@KRegion@@QAEPAUKCell@@HHHHHHPAH0@Z PROC ; KRegion::GetAdaptedCellForObj
; _this$ = ecx

; 1197 : {

  03190	55		 push	 ebp
  03191	8b ec		 mov	 ebp, esp
  03193	83 ec 28	 sub	 esp, 40			; 00000028H
  03196	56		 push	 esi
  03197	57		 push	 edi
  03198	51		 push	 ecx
  03199	8d 7d d8	 lea	 edi, DWORD PTR [ebp-40]
  0319c	b9 0a 00 00 00	 mov	 ecx, 10			; 0000000aH
  031a1	b8 cc cc cc cc	 mov	 eax, -858993460		; ccccccccH
  031a6	f3 ab		 rep stosd
  031a8	59		 pop	 ecx
  031a9	89 4d fc	 mov	 DWORD PTR _this$[ebp], ecx

; 1198 :     KCell*  pResult         = NULL;

  031ac	c7 45 f8 00 00
	00 00		 mov	 DWORD PTR _pResult$[ebp], 0

; 1199 :     KCell*  pPossibleCell   = NULL;

  031b3	c7 45 f4 00 00
	00 00		 mov	 DWORD PTR _pPossibleCell$[ebp], 0

; 1200 :     int     nFootPosMin     = INT_MAX;

  031ba	c7 45 f0 ff ff
	ff 7f		 mov	 DWORD PTR _nFootPosMin$[ebp], 2147483647 ; 7fffffffH

; 1201 :     int     nRelativeZ      = 0;

  031c1	c7 45 ec 00 00
	00 00		 mov	 DWORD PTR _nRelativeZ$[ebp], 0

; 1202 : 
; 1203 : 	assert(nXCell >= 0);

  031c8	83 7d 08 00	 cmp	 DWORD PTR _nXCell$[ebp], 0
  031cc	7d 21		 jge	 SHORT $LN37@GetAdapted
  031ce	8b f4		 mov	 esi, esp
  031d0	68 b3 04 00 00	 push	 1203			; 000004b3H
  031d5	68 00 00 00 00	 push	 OFFSET $SG177922
  031da	68 00 00 00 00	 push	 OFFSET $SG177923
  031df	ff 15 00 00 00
	00		 call	 DWORD PTR __imp___wassert
  031e5	83 c4 0c	 add	 esp, 12			; 0000000cH
  031e8	3b f4		 cmp	 esi, esp
  031ea	e8 00 00 00 00	 call	 __RTC_CheckEsp
$LN37@GetAdapted:

; 1204 : 	assert(nXCell < REGION_GRID_WIDTH);

  031ef	83 7d 08 40	 cmp	 DWORD PTR _nXCell$[ebp], 64 ; 00000040H
  031f3	7c 21		 jl	 SHORT $LN38@GetAdapted
  031f5	8b f4		 mov	 esi, esp
  031f7	68 b4 04 00 00	 push	 1204			; 000004b4H
  031fc	68 00 00 00 00	 push	 OFFSET $SG177925
  03201	68 00 00 00 00	 push	 OFFSET $SG177926
  03206	ff 15 00 00 00
	00		 call	 DWORD PTR __imp___wassert
  0320c	83 c4 0c	 add	 esp, 12			; 0000000cH
  0320f	3b f4		 cmp	 esi, esp
  03211	e8 00 00 00 00	 call	 __RTC_CheckEsp
$LN38@GetAdapted:

; 1205 :  	assert(nYCell >= 0);

  03216	83 7d 0c 00	 cmp	 DWORD PTR _nYCell$[ebp], 0
  0321a	7d 21		 jge	 SHORT $LN39@GetAdapted
  0321c	8b f4		 mov	 esi, esp
  0321e	68 b5 04 00 00	 push	 1205			; 000004b5H
  03223	68 00 00 00 00	 push	 OFFSET $SG177928
  03228	68 00 00 00 00	 push	 OFFSET $SG177929
  0322d	ff 15 00 00 00
	00		 call	 DWORD PTR __imp___wassert
  03233	83 c4 0c	 add	 esp, 12			; 0000000cH
  03236	3b f4		 cmp	 esi, esp
  03238	e8 00 00 00 00	 call	 __RTC_CheckEsp
$LN39@GetAdapted:

; 1206 : 	assert(nYCell < REGION_GRID_HEIGHT);

  0323d	83 7d 0c 40	 cmp	 DWORD PTR _nYCell$[ebp], 64 ; 00000040H
  03241	7c 21		 jl	 SHORT $LN40@GetAdapted
  03243	8b f4		 mov	 esi, esp
  03245	68 b6 04 00 00	 push	 1206			; 000004b6H
  0324a	68 00 00 00 00	 push	 OFFSET $SG177931
  0324f	68 00 00 00 00	 push	 OFFSET $SG177932
  03254	ff 15 00 00 00
	00		 call	 DWORD PTR __imp___wassert
  0325a	83 c4 0c	 add	 esp, 12			; 0000000cH
  0325d	3b f4		 cmp	 esi, esp
  0325f	e8 00 00 00 00	 call	 __RTC_CheckEsp
$LN40@GetAdapted:

; 1207 :     assert(pnRelativeZ);

  03264	83 7d 20 00	 cmp	 DWORD PTR _pnRelativeZ$[ebp], 0
  03268	75 21		 jne	 SHORT $LN41@GetAdapted
  0326a	8b f4		 mov	 esi, esp
  0326c	68 b7 04 00 00	 push	 1207			; 000004b7H
  03271	68 00 00 00 00	 push	 OFFSET $SG177934
  03276	68 00 00 00 00	 push	 OFFSET $SG177935
  0327b	ff 15 00 00 00
	00		 call	 DWORD PTR __imp___wassert
  03281	83 c4 0c	 add	 esp, 12			; 0000000cH
  03284	3b f4		 cmp	 esi, esp
  03286	e8 00 00 00 00	 call	 __RTC_CheckEsp
$LN41@GetAdapted:

; 1208 : 
; 1209 :     for (
; 1210 :         KCell* pCellNode = GetLowestObstacle(nXCell, nYCell); 

  0328b	8b 55 0c	 mov	 edx, DWORD PTR _nYCell$[ebp]
  0328e	52		 push	 edx
  0328f	8b 45 08	 mov	 eax, DWORD PTR _nXCell$[ebp]
  03292	50		 push	 eax
  03293	8b 4d fc	 mov	 ecx, DWORD PTR _this$[ebp]
  03296	e8 00 00 00 00	 call	 ?GetLowestObstacle@KRegion@@QAEPAUKCell@@HH@Z ; KRegion::GetLowestObstacle
  0329b	89 45 e8	 mov	 DWORD PTR _pCellNode$177936[ebp], eax

; 1211 :         pCellNode != NULL;

  0329e	eb 13		 jmp	 SHORT $LN34@GetAdapted
$LN33@GetAdapted:

; 1212 :         pCellNode = GetNextCell(pCellNode, bIgnoreDynamicSwitch)
; 1213 :     )

  032a0	8b 4d 1c	 mov	 ecx, DWORD PTR _bIgnoreDynamicSwitch$[ebp]
  032a3	51		 push	 ecx
  032a4	8b 55 e8	 mov	 edx, DWORD PTR _pCellNode$177936[ebp]
  032a7	52		 push	 edx
  032a8	8b 4d fc	 mov	 ecx, DWORD PTR _this$[ebp]
  032ab	e8 00 00 00 00	 call	 ?GetNextCell@KRegion@@QAEPAUKCell@@PAU2@H@Z ; KRegion::GetNextCell
  032b0	89 45 e8	 mov	 DWORD PTR _pCellNode$177936[ebp], eax
$LN34@GetAdapted:
  032b3	83 7d e8 00	 cmp	 DWORD PTR _pCellNode$177936[ebp], 0
  032b7	0f 84 a0 02 00
	00		 je	 $LN5@GetAdapted

; 1214 :     {
; 1215 :         if (pCellNode->m_BaseInfo.dwCellType == ctWater)

  032bd	8b 45 e8	 mov	 eax, DWORD PTR _pCellNode$177936[ebp]
  032c0	8b 08		 mov	 ecx, DWORD PTR [eax]
  032c2	83 e1 03	 and	 ecx, 3
  032c5	83 f9 01	 cmp	 ecx, 1
  032c8	0f 85 2b 01 00
	00		 jne	 $LN31@GetAdapted

; 1216 :         {
; 1217 :             if (pCellNode->m_wLowLayer * POINT_PER_ALTITUDE > nFootPosZ + nClimb)

  032ce	8b 55 e8	 mov	 edx, DWORD PTR _pCellNode$177936[ebp]
  032d1	0f b7 42 04	 movzx	 eax, WORD PTR [edx+4]
  032d5	c1 e0 06	 shl	 eax, 6
  032d8	8b 4d 10	 mov	 ecx, DWORD PTR _nFootPosZ$[ebp]
  032db	03 4d 14	 add	 ecx, DWORD PTR _nClimb$[ebp]
  032de	3b c1		 cmp	 eax, ecx
  032e0	7e 05		 jle	 SHORT $LN30@GetAdapted

; 1218 :                 break;

  032e2	e9 76 02 00 00	 jmp	 $LN5@GetAdapted
$LN30@GetAdapted:

; 1219 : 
; 1220 :             if (pCellNode->m_BaseInfo.dwBlockCharacter)

  032e7	8b 55 e8	 mov	 edx, DWORD PTR _pCellNode$177936[ebp]
  032ea	8b 02		 mov	 eax, DWORD PTR [edx]
  032ec	c1 e8 1f	 shr	 eax, 31			; 0000001fH
  032ef	83 e0 01	 and	 eax, 1
  032f2	74 02		 je	 SHORT $LN29@GetAdapted

; 1221 :                 continue;

  032f4	eb aa		 jmp	 SHORT $LN33@GetAdapted
$LN29@GetAdapted:

; 1222 :             
; 1223 :             KCell* pNextRealCell = NULL;

  032f6	c7 45 e4 00 00
	00 00		 mov	 DWORD PTR _pNextRealCell$177943[ebp], 0

; 1224 :             KCell* pIter         = GetNextCell(pCellNode, bIgnoreDynamicSwitch);

  032fd	8b 4d 1c	 mov	 ecx, DWORD PTR _bIgnoreDynamicSwitch$[ebp]
  03300	51		 push	 ecx
  03301	8b 55 e8	 mov	 edx, DWORD PTR _pCellNode$177936[ebp]
  03304	52		 push	 edx
  03305	8b 4d fc	 mov	 ecx, DWORD PTR _this$[ebp]
  03308	e8 00 00 00 00	 call	 ?GetNextCell@KRegion@@QAEPAUKCell@@PAU2@H@Z ; KRegion::GetNextCell
  0330d	89 45 e0	 mov	 DWORD PTR _pIter$177944[ebp], eax
$LN28@GetAdapted:

; 1225 : 
; 1226 :             // Cell,Cell
; 1227 :             while (pIter)

  03310	83 7d e0 00	 cmp	 DWORD PTR _pIter$177944[ebp], 0
  03314	74 2a		 je	 SHORT $LN27@GetAdapted

; 1228 :             {
; 1229 :                 if (pIter->m_BaseInfo.dwCellType != ctWater)

  03316	8b 45 e0	 mov	 eax, DWORD PTR _pIter$177944[ebp]
  03319	8b 08		 mov	 ecx, DWORD PTR [eax]
  0331b	83 e1 03	 and	 ecx, 3
  0331e	83 f9 01	 cmp	 ecx, 1
  03321	74 08		 je	 SHORT $LN26@GetAdapted

; 1230 :                 {
; 1231 :                     pNextRealCell = pIter;

  03323	8b 55 e0	 mov	 edx, DWORD PTR _pIter$177944[ebp]
  03326	89 55 e4	 mov	 DWORD PTR _pNextRealCell$177943[ebp], edx

; 1232 :                     break;

  03329	eb 15		 jmp	 SHORT $LN27@GetAdapted
$LN26@GetAdapted:

; 1233 :                 }
; 1234 :                 pIter = GetNextCell(pIter, bIgnoreDynamicSwitch);

  0332b	8b 45 1c	 mov	 eax, DWORD PTR _bIgnoreDynamicSwitch$[ebp]
  0332e	50		 push	 eax
  0332f	8b 4d e0	 mov	 ecx, DWORD PTR _pIter$177944[ebp]
  03332	51		 push	 ecx
  03333	8b 4d fc	 mov	 ecx, DWORD PTR _this$[ebp]
  03336	e8 00 00 00 00	 call	 ?GetNextCell@KRegion@@QAEPAUKCell@@PAU2@H@Z ; KRegion::GetNextCell
  0333b	89 45 e0	 mov	 DWORD PTR _pIter$177944[ebp], eax

; 1235 :             }

  0333e	eb d0		 jmp	 SHORT $LN28@GetAdapted
$LN27@GetAdapted:

; 1236 : 
; 1237 :             if (pNextRealCell)

  03340	83 7d e4 00	 cmp	 DWORD PTR _pNextRealCell$177943[ebp], 0
  03344	74 3b		 je	 SHORT $LN25@GetAdapted

; 1238 :             {
; 1239 :                 if (pNextRealCell->m_wLowLayer * POINT_PER_ALTITUDE < nFootPosZ + nHeight / 2)

  03346	8b 55 e4	 mov	 edx, DWORD PTR _pNextRealCell$177943[ebp]
  03349	0f b7 4a 04	 movzx	 ecx, WORD PTR [edx+4]
  0334d	c1 e1 06	 shl	 ecx, 6
  03350	8b 45 18	 mov	 eax, DWORD PTR _nHeight$[ebp]
  03353	99		 cdq
  03354	2b c2		 sub	 eax, edx
  03356	d1 f8		 sar	 eax, 1
  03358	03 45 10	 add	 eax, DWORD PTR _nFootPosZ$[ebp]
  0335b	3b c8		 cmp	 ecx, eax
  0335d	7d 05		 jge	 SHORT $LN24@GetAdapted

; 1240 :                     continue;

  0335f	e9 3c ff ff ff	 jmp	 $LN33@GetAdapted
$LN24@GetAdapted:

; 1241 : 
; 1242 :                 if ((pNextRealCell->m_wLowLayer - pCellNode->m_wLowLayer) * POINT_PER_ALTITUDE < nHeight)

  03364	8b 55 e4	 mov	 edx, DWORD PTR _pNextRealCell$177943[ebp]
  03367	0f b7 42 04	 movzx	 eax, WORD PTR [edx+4]
  0336b	8b 4d e8	 mov	 ecx, DWORD PTR _pCellNode$177936[ebp]
  0336e	0f b7 51 04	 movzx	 edx, WORD PTR [ecx+4]
  03372	2b c2		 sub	 eax, edx
  03374	c1 e0 06	 shl	 eax, 6
  03377	3b 45 18	 cmp	 eax, DWORD PTR _nHeight$[ebp]
  0337a	7d 05		 jge	 SHORT $LN25@GetAdapted

; 1243 :                     continue;

  0337c	e9 1f ff ff ff	 jmp	 $LN33@GetAdapted
$LN25@GetAdapted:

; 1244 :             }
; 1245 : 
; 1246 :             pPossibleCell = pCellNode;

  03381	8b 45 e8	 mov	 eax, DWORD PTR _pCellNode$177936[ebp]
  03384	89 45 f4	 mov	 DWORD PTR _pPossibleCell$[ebp], eax

; 1247 : 
; 1248 :             if (pCellNode->m_wLowLayer * POINT_PER_ALTITUDE < nFootPosZ)

  03387	8b 4d e8	 mov	 ecx, DWORD PTR _pCellNode$177936[ebp]
  0338a	0f b7 51 04	 movzx	 edx, WORD PTR [ecx+4]
  0338e	c1 e2 06	 shl	 edx, 6
  03391	3b 55 10	 cmp	 edx, DWORD PTR _nFootPosZ$[ebp]
  03394	7d 48		 jge	 SHORT $LN22@GetAdapted

; 1249 :             {
; 1250 :                 nRelativeZ = nFootPosZ - pCellNode->m_wHighLayer * POINT_PER_ALTITUDE;

  03396	8b 45 e8	 mov	 eax, DWORD PTR _pCellNode$177936[ebp]
  03399	0f b7 48 06	 movzx	 ecx, WORD PTR [eax+6]
  0339d	c1 e1 06	 shl	 ecx, 6
  033a0	8b 55 10	 mov	 edx, DWORD PTR _nFootPosZ$[ebp]
  033a3	2b d1		 sub	 edx, ecx
  033a5	89 55 ec	 mov	 DWORD PTR _nRelativeZ$[ebp], edx

; 1251 : 
; 1252 :                 if (pNextRealCell && pNextRealCell->m_wLowLayer * POINT_PER_ALTITUDE < nFootPosZ + nHeight)

  033a8	83 7d e4 00	 cmp	 DWORD PTR _pNextRealCell$177943[ebp], 0
  033ac	74 2e		 je	 SHORT $LN21@GetAdapted
  033ae	8b 45 e4	 mov	 eax, DWORD PTR _pNextRealCell$177943[ebp]
  033b1	0f b7 48 04	 movzx	 ecx, WORD PTR [eax+4]
  033b5	c1 e1 06	 shl	 ecx, 6
  033b8	8b 55 10	 mov	 edx, DWORD PTR _nFootPosZ$[ebp]
  033bb	03 55 18	 add	 edx, DWORD PTR _nHeight$[ebp]
  033be	3b ca		 cmp	 ecx, edx
  033c0	7d 1a		 jge	 SHORT $LN21@GetAdapted

; 1253 :                     nRelativeZ -= (nFootPosZ + nHeight) - (pNextRealCell->m_wLowLayer * POINT_PER_ALTITUDE);

  033c2	8b 45 10	 mov	 eax, DWORD PTR _nFootPosZ$[ebp]
  033c5	03 45 18	 add	 eax, DWORD PTR _nHeight$[ebp]
  033c8	8b 4d e4	 mov	 ecx, DWORD PTR _pNextRealCell$177943[ebp]
  033cb	0f b7 51 04	 movzx	 edx, WORD PTR [ecx+4]
  033cf	c1 e2 06	 shl	 edx, 6
  033d2	2b c2		 sub	 eax, edx
  033d4	8b 4d ec	 mov	 ecx, DWORD PTR _nRelativeZ$[ebp]
  033d7	2b c8		 sub	 ecx, eax
  033d9	89 4d ec	 mov	 DWORD PTR _nRelativeZ$[ebp], ecx
$LN21@GetAdapted:

; 1254 :             }
; 1255 :             else

  033dc	eb 16		 jmp	 SHORT $LN20@GetAdapted
$LN22@GetAdapted:

; 1256 :                 nRelativeZ = (pCellNode->m_wLowLayer - pCellNode->m_wHighLayer) * POINT_PER_ALTITUDE;

  033de	8b 55 e8	 mov	 edx, DWORD PTR _pCellNode$177936[ebp]
  033e1	0f b7 42 04	 movzx	 eax, WORD PTR [edx+4]
  033e5	8b 4d e8	 mov	 ecx, DWORD PTR _pCellNode$177936[ebp]
  033e8	0f b7 51 06	 movzx	 edx, WORD PTR [ecx+6]
  033ec	2b c2		 sub	 eax, edx
  033ee	c1 e0 06	 shl	 eax, 6
  033f1	89 45 ec	 mov	 DWORD PTR _nRelativeZ$[ebp], eax
$LN20@GetAdapted:

; 1257 :         }
; 1258 :         else

  033f4	e9 5f 01 00 00	 jmp	 $LN19@GetAdapted
$LN31@GetAdapted:

; 1259 :         {
; 1260 :             if (pCellNode->m_wHighLayer * POINT_PER_ALTITUDE > nFootPosZ + nClimb)

  033f9	8b 45 e8	 mov	 eax, DWORD PTR _pCellNode$177936[ebp]
  033fc	0f b7 48 06	 movzx	 ecx, WORD PTR [eax+6]
  03400	c1 e1 06	 shl	 ecx, 6
  03403	8b 55 10	 mov	 edx, DWORD PTR _nFootPosZ$[ebp]
  03406	03 55 14	 add	 edx, DWORD PTR _nClimb$[ebp]
  03409	3b ca		 cmp	 ecx, edx
  0340b	7e 2c		 jle	 SHORT $LN18@GetAdapted

; 1261 :             {
; 1262 :                 if (pCellNode->m_wLowLayer * POINT_PER_ALTITUDE < nFootPosZ + nHeight && pnObstacleDirection)

  0340d	8b 45 e8	 mov	 eax, DWORD PTR _pCellNode$177936[ebp]
  03410	0f b7 48 04	 movzx	 ecx, WORD PTR [eax+4]
  03414	c1 e1 06	 shl	 ecx, 6
  03417	8b 55 10	 mov	 edx, DWORD PTR _nFootPosZ$[ebp]
  0341a	03 55 18	 add	 edx, DWORD PTR _nHeight$[ebp]
  0341d	3b ca		 cmp	 ecx, edx
  0341f	7d 13		 jge	 SHORT $LN17@GetAdapted
  03421	83 7d 24 00	 cmp	 DWORD PTR _pnObstacleDirection$[ebp], 0
  03425	74 0d		 je	 SHORT $LN17@GetAdapted

; 1263 :                     *pnObstacleDirection = pCellNode->GetBarrierDirection();

  03427	8b 4d e8	 mov	 ecx, DWORD PTR _pCellNode$177936[ebp]
  0342a	e8 00 00 00 00	 call	 ?GetBarrierDirection@KCell@@QAEHXZ ; KCell::GetBarrierDirection
  0342f	8b 4d 24	 mov	 ecx, DWORD PTR _pnObstacleDirection$[ebp]
  03432	89 01		 mov	 DWORD PTR [ecx], eax
$LN17@GetAdapted:

; 1264 :                 break;

  03434	e9 24 01 00 00	 jmp	 $LN5@GetAdapted
$LN18@GetAdapted:

; 1265 :             }
; 1266 : 
; 1267 :             if (pCellNode->m_BaseInfo.dwBlockCharacter)

  03439	8b 55 e8	 mov	 edx, DWORD PTR _pCellNode$177936[ebp]
  0343c	8b 02		 mov	 eax, DWORD PTR [edx]
  0343e	c1 e8 1f	 shr	 eax, 31			; 0000001fH
  03441	83 e0 01	 and	 eax, 1
  03444	74 05		 je	 SHORT $LN16@GetAdapted

; 1268 :                 continue;

  03446	e9 55 fe ff ff	 jmp	 $LN33@GetAdapted
$LN16@GetAdapted:

; 1269 :             
; 1270 :             KCell* pNextRealCell = NULL;

  0344b	c7 45 dc 00 00
	00 00		 mov	 DWORD PTR _pNextRealCell$177959[ebp], 0

; 1271 :             KCell* pIter         = GetNextCell(pCellNode, bIgnoreDynamicSwitch);

  03452	8b 4d 1c	 mov	 ecx, DWORD PTR _bIgnoreDynamicSwitch$[ebp]
  03455	51		 push	 ecx
  03456	8b 55 e8	 mov	 edx, DWORD PTR _pCellNode$177936[ebp]
  03459	52		 push	 edx
  0345a	8b 4d fc	 mov	 ecx, DWORD PTR _this$[ebp]
  0345d	e8 00 00 00 00	 call	 ?GetNextCell@KRegion@@QAEPAUKCell@@PAU2@H@Z ; KRegion::GetNextCell
  03462	89 45 d8	 mov	 DWORD PTR _pIter$177960[ebp], eax
$LN15@GetAdapted:

; 1272 : 
; 1273 :             // Cell,Cell
; 1274 :             while (pIter)

  03465	83 7d d8 00	 cmp	 DWORD PTR _pIter$177960[ebp], 0
  03469	74 2a		 je	 SHORT $LN14@GetAdapted

; 1275 :             {
; 1276 :                 if (pIter->m_BaseInfo.dwCellType != ctWater)

  0346b	8b 45 d8	 mov	 eax, DWORD PTR _pIter$177960[ebp]
  0346e	8b 08		 mov	 ecx, DWORD PTR [eax]
  03470	83 e1 03	 and	 ecx, 3
  03473	83 f9 01	 cmp	 ecx, 1
  03476	74 08		 je	 SHORT $LN13@GetAdapted

; 1277 :                 {
; 1278 :                     pNextRealCell = pIter;

  03478	8b 55 d8	 mov	 edx, DWORD PTR _pIter$177960[ebp]
  0347b	89 55 dc	 mov	 DWORD PTR _pNextRealCell$177959[ebp], edx

; 1279 :                     break;

  0347e	eb 15		 jmp	 SHORT $LN14@GetAdapted
$LN13@GetAdapted:

; 1280 :                 }
; 1281 :                 pIter = GetNextCell(pIter, bIgnoreDynamicSwitch);

  03480	8b 45 1c	 mov	 eax, DWORD PTR _bIgnoreDynamicSwitch$[ebp]
  03483	50		 push	 eax
  03484	8b 4d d8	 mov	 ecx, DWORD PTR _pIter$177960[ebp]
  03487	51		 push	 ecx
  03488	8b 4d fc	 mov	 ecx, DWORD PTR _this$[ebp]
  0348b	e8 00 00 00 00	 call	 ?GetNextCell@KRegion@@QAEPAUKCell@@PAU2@H@Z ; KRegion::GetNextCell
  03490	89 45 d8	 mov	 DWORD PTR _pIter$177960[ebp], eax

; 1282 :             }

  03493	eb d0		 jmp	 SHORT $LN15@GetAdapted
$LN14@GetAdapted:

; 1283 : 
; 1284 :             if (pNextRealCell)

  03495	83 7d dc 00	 cmp	 DWORD PTR _pNextRealCell$177959[ebp], 0
  03499	74 3b		 je	 SHORT $LN12@GetAdapted

; 1285 :             {
; 1286 :                 if (pNextRealCell->m_wLowLayer * POINT_PER_ALTITUDE < nFootPosZ + nHeight / 2)  // Can't go down

  0349b	8b 55 dc	 mov	 edx, DWORD PTR _pNextRealCell$177959[ebp]
  0349e	0f b7 4a 04	 movzx	 ecx, WORD PTR [edx+4]
  034a2	c1 e1 06	 shl	 ecx, 6
  034a5	8b 45 18	 mov	 eax, DWORD PTR _nHeight$[ebp]
  034a8	99		 cdq
  034a9	2b c2		 sub	 eax, edx
  034ab	d1 f8		 sar	 eax, 1
  034ad	03 45 10	 add	 eax, DWORD PTR _nFootPosZ$[ebp]
  034b0	3b c8		 cmp	 ecx, eax
  034b2	7d 05		 jge	 SHORT $LN11@GetAdapted

; 1287 :                     continue;

  034b4	e9 e7 fd ff ff	 jmp	 $LN33@GetAdapted
$LN11@GetAdapted:

; 1288 : 
; 1289 :                 if ((pNextRealCell->m_wLowLayer - pCellNode->m_wHighLayer) * POINT_PER_ALTITUDE < nHeight)   // Not enough space

  034b9	8b 55 dc	 mov	 edx, DWORD PTR _pNextRealCell$177959[ebp]
  034bc	0f b7 42 04	 movzx	 eax, WORD PTR [edx+4]
  034c0	8b 4d e8	 mov	 ecx, DWORD PTR _pCellNode$177936[ebp]
  034c3	0f b7 51 06	 movzx	 edx, WORD PTR [ecx+6]
  034c7	2b c2		 sub	 eax, edx
  034c9	c1 e0 06	 shl	 eax, 6
  034cc	3b 45 18	 cmp	 eax, DWORD PTR _nHeight$[ebp]
  034cf	7d 05		 jge	 SHORT $LN12@GetAdapted

; 1290 :                     continue;

  034d1	e9 ca fd ff ff	 jmp	 $LN33@GetAdapted
$LN12@GetAdapted:

; 1291 :             }
; 1292 : 
; 1293 :             if (pCellNode->m_wHighLayer * POINT_PER_ALTITUDE >= nFootPosMin)    // Go the lowest possible cell

  034d6	8b 45 e8	 mov	 eax, DWORD PTR _pCellNode$177936[ebp]
  034d9	0f b7 48 06	 movzx	 ecx, WORD PTR [eax+6]
  034dd	c1 e1 06	 shl	 ecx, 6
  034e0	3b 4d f0	 cmp	 ecx, DWORD PTR _nFootPosMin$[ebp]
  034e3	7c 02		 jl	 SHORT $LN9@GetAdapted

; 1294 :                 break;

  034e5	eb 76		 jmp	 SHORT $LN5@GetAdapted
$LN9@GetAdapted:

; 1295 : 
; 1296 :             nFootPosMin = pCellNode->m_wHighLayer * POINT_PER_ALTITUDE;

  034e7	8b 55 e8	 mov	 edx, DWORD PTR _pCellNode$177936[ebp]
  034ea	0f b7 42 06	 movzx	 eax, WORD PTR [edx+6]
  034ee	c1 e0 06	 shl	 eax, 6
  034f1	89 45 f0	 mov	 DWORD PTR _nFootPosMin$[ebp], eax

; 1297 :             pPossibleCell = pCellNode;

  034f4	8b 4d e8	 mov	 ecx, DWORD PTR _pCellNode$177936[ebp]
  034f7	89 4d f4	 mov	 DWORD PTR _pPossibleCell$[ebp], ecx

; 1298 : 
; 1299 :             if (pCellNode->m_wHighLayer * POINT_PER_ALTITUDE < nFootPosZ)

  034fa	8b 55 e8	 mov	 edx, DWORD PTR _pCellNode$177936[ebp]
  034fd	0f b7 42 06	 movzx	 eax, WORD PTR [edx+6]
  03501	c1 e0 06	 shl	 eax, 6
  03504	3b 45 10	 cmp	 eax, DWORD PTR _nFootPosZ$[ebp]
  03507	7d 48		 jge	 SHORT $LN8@GetAdapted

; 1300 :             {
; 1301 :                 nRelativeZ  = nFootPosZ - pCellNode->m_wHighLayer * POINT_PER_ALTITUDE;

  03509	8b 4d e8	 mov	 ecx, DWORD PTR _pCellNode$177936[ebp]
  0350c	0f b7 51 06	 movzx	 edx, WORD PTR [ecx+6]
  03510	c1 e2 06	 shl	 edx, 6
  03513	8b 45 10	 mov	 eax, DWORD PTR _nFootPosZ$[ebp]
  03516	2b c2		 sub	 eax, edx
  03518	89 45 ec	 mov	 DWORD PTR _nRelativeZ$[ebp], eax

; 1302 : 
; 1303 :                 if (pNextRealCell && pNextRealCell->m_wLowLayer * POINT_PER_ALTITUDE < nFootPosZ + nHeight)

  0351b	83 7d dc 00	 cmp	 DWORD PTR _pNextRealCell$177959[ebp], 0
  0351f	74 2e		 je	 SHORT $LN7@GetAdapted
  03521	8b 4d dc	 mov	 ecx, DWORD PTR _pNextRealCell$177959[ebp]
  03524	0f b7 51 04	 movzx	 edx, WORD PTR [ecx+4]
  03528	c1 e2 06	 shl	 edx, 6
  0352b	8b 45 10	 mov	 eax, DWORD PTR _nFootPosZ$[ebp]
  0352e	03 45 18	 add	 eax, DWORD PTR _nHeight$[ebp]
  03531	3b d0		 cmp	 edx, eax
  03533	7d 1a		 jge	 SHORT $LN7@GetAdapted

; 1304 :                     nRelativeZ -= (nFootPosZ + nHeight) - (pNextRealCell->m_wLowLayer * POINT_PER_ALTITUDE);

  03535	8b 4d 10	 mov	 ecx, DWORD PTR _nFootPosZ$[ebp]
  03538	03 4d 18	 add	 ecx, DWORD PTR _nHeight$[ebp]
  0353b	8b 55 dc	 mov	 edx, DWORD PTR _pNextRealCell$177959[ebp]
  0353e	0f b7 42 04	 movzx	 eax, WORD PTR [edx+4]
  03542	c1 e0 06	 shl	 eax, 6
  03545	2b c8		 sub	 ecx, eax
  03547	8b 55 ec	 mov	 edx, DWORD PTR _nRelativeZ$[ebp]
  0354a	2b d1		 sub	 edx, ecx
  0354c	89 55 ec	 mov	 DWORD PTR _nRelativeZ$[ebp], edx
$LN7@GetAdapted:

; 1305 :             }
; 1306 :             else

  0354f	eb 07		 jmp	 SHORT $LN19@GetAdapted
$LN8@GetAdapted:

; 1307 :                 nRelativeZ = 0;

  03551	c7 45 ec 00 00
	00 00		 mov	 DWORD PTR _nRelativeZ$[ebp], 0
$LN19@GetAdapted:

; 1308 :         }
; 1309 :     }

  03558	e9 43 fd ff ff	 jmp	 $LN33@GetAdapted
$LN5@GetAdapted:

; 1310 : 
; 1311 :     KG_PROCESS_ERROR(pPossibleCell);

  0355d	83 7d f4 00	 cmp	 DWORD PTR _pPossibleCell$[ebp], 0
  03561	75 04		 jne	 SHORT $LN4@GetAdapted
  03563	eb 14		 jmp	 SHORT $Exit0$177976
  03565	eb 12		 jmp	 SHORT $Exit0$177976
$LN4@GetAdapted:
  03567	33 c0		 xor	 eax, eax
  03569	75 f2		 jne	 SHORT $LN5@GetAdapted

; 1312 : 
; 1313 :     pResult         = pPossibleCell;

  0356b	8b 4d f4	 mov	 ecx, DWORD PTR _pPossibleCell$[ebp]
  0356e	89 4d f8	 mov	 DWORD PTR _pResult$[ebp], ecx

; 1314 :     *pnRelativeZ    = nRelativeZ;

  03571	8b 55 20	 mov	 edx, DWORD PTR _pnRelativeZ$[ebp]
  03574	8b 45 ec	 mov	 eax, DWORD PTR _nRelativeZ$[ebp]
  03577	89 02		 mov	 DWORD PTR [edx], eax
$Exit0$177976:

; 1315 : Exit0:
; 1316 :     return pResult;

  03579	8b 45 f8	 mov	 eax, DWORD PTR _pResult$[ebp]

; 1317 : }

  0357c	5f		 pop	 edi
  0357d	5e		 pop	 esi
  0357e	83 c4 28	 add	 esp, 40			; 00000028H
  03581	3b ec		 cmp	 ebp, esp
  03583	e8 00 00 00 00	 call	 __RTC_CheckEsp
  03588	8b e5		 mov	 esp, ebp
  0358a	5d		 pop	 ebp
  0358b	c2 20 00	 ret	 32			; 00000020H
?GetAdaptedCellForObj@KRegion@@QAEPAUKCell@@HHHHHHPAH0@Z ENDP ; KRegion::GetAdaptedCellForObj
; Function compile flags: /Odtp /RTCsu
; File d:\code\game\sword3\include\so3world\kcell.h
_TEXT	ENDS
;	COMDAT ?GetBarrierDirection@KCell@@QAEHXZ
_TEXT	SEGMENT
_this$ = -4						; size = 4
?GetBarrierDirection@KCell@@QAEHXZ PROC			; KCell::GetBarrierDirection, COMDAT
; _this$ = ecx

; 104  :     { 

  00000	55		 push	 ebp
  00001	8b ec		 mov	 ebp, esp
  00003	51		 push	 ecx
  00004	c7 45 fc cc cc
	cc cc		 mov	 DWORD PTR [ebp-4], -858993460 ; ccccccccH
  0000b	89 4d fc	 mov	 DWORD PTR _this$[ebp], ecx

; 105  :         return m_BaseInfo.dwBarrierDirection * DIRECTION_COUNT / 2 / 8; 

  0000e	8b 45 fc	 mov	 eax, DWORD PTR _this$[ebp]
  00011	8b 00		 mov	 eax, DWORD PTR [eax]
  00013	c1 e8 0c	 shr	 eax, 12			; 0000000cH
  00016	83 e0 07	 and	 eax, 7
  00019	c1 e0 08	 shl	 eax, 8
  0001c	d1 e8		 shr	 eax, 1
  0001e	c1 e8 03	 shr	 eax, 3

; 106  :     }

  00021	8b e5		 mov	 esp, ebp
  00023	5d		 pop	 ebp
  00024	c3		 ret	 0
?GetBarrierDirection@KCell@@QAEHXZ ENDP			; KCell::GetBarrierDirection
_TEXT	ENDS
PUBLIC	?GetProximalCellForObj@KRegion@@QAEPAUKCell@@HHHHHHPAH@Z ; KRegion::GetProximalCellForObj
EXTRN	_abs:PROC
; Function compile flags: /Odtp /RTCsu
; File d:\code\game\sword3\source\common\so3world\src\kregion.cpp
_TEXT	SEGMENT
_pIter$178035 = -48					; size = 4
_pNextRealCell$178034 = -44				; size = 4
_pIter$178017 = -40					; size = 4
_pNextRealCell$178016 = -36				; size = 4
_bStandable$178012 = -32				; size = 4
_nTempPosZ$178011 = -28					; size = 4
_nAbsolutePosZ$ = -24					; size = 4
_nRelativeZ$ = -20					; size = 4
_pCellNode$ = -16					; size = 4
_pPossibleCell$ = -12					; size = 4
_pResult$ = -8						; size = 4
_this$ = -4						; size = 4
_nXCell$ = 8						; size = 4
_nYCell$ = 12						; size = 4
_nFootPosZ$ = 16					; size = 4
_nHeight$ = 20						; size = 4
_bIgnoreDynamicSwitch$ = 24				; size = 4
_bIgnoreBlock$ = 28					; size = 4
_pnRelativeZ$ = 32					; size = 4
?GetProximalCellForObj@KRegion@@QAEPAUKCell@@HHHHHHPAH@Z PROC ; KRegion::GetProximalCellForObj
; _this$ = ecx

; 1325 : {

  03590	55		 push	 ebp
  03591	8b ec		 mov	 ebp, esp
  03593	83 ec 30	 sub	 esp, 48			; 00000030H
  03596	56		 push	 esi
  03597	57		 push	 edi
  03598	51		 push	 ecx
  03599	8d 7d d0	 lea	 edi, DWORD PTR [ebp-48]
  0359c	b9 0c 00 00 00	 mov	 ecx, 12			; 0000000cH
  035a1	b8 cc cc cc cc	 mov	 eax, -858993460		; ccccccccH
  035a6	f3 ab		 rep stosd
  035a8	59		 pop	 ecx
  035a9	89 4d fc	 mov	 DWORD PTR _this$[ebp], ecx

; 1326 :     KCell*  pResult         = NULL;

  035ac	c7 45 f8 00 00
	00 00		 mov	 DWORD PTR _pResult$[ebp], 0

; 1327 :     KCell*  pPossibleCell   = NULL;

  035b3	c7 45 f4 00 00
	00 00		 mov	 DWORD PTR _pPossibleCell$[ebp], 0

; 1328 :     KCell*  pCellNode       = NULL;

  035ba	c7 45 f0 00 00
	00 00		 mov	 DWORD PTR _pCellNode$[ebp], 0

; 1329 :     int     nRelativeZ      = 0;

  035c1	c7 45 ec 00 00
	00 00		 mov	 DWORD PTR _nRelativeZ$[ebp], 0

; 1330 :     int     nAbsolutePosZ   = 0;

  035c8	c7 45 e8 00 00
	00 00		 mov	 DWORD PTR _nAbsolutePosZ$[ebp], 0

; 1331 : 
; 1332 :     assert(pnRelativeZ);

  035cf	83 7d 20 00	 cmp	 DWORD PTR _pnRelativeZ$[ebp], 0
  035d3	75 21		 jne	 SHORT $LN45@GetProxima
  035d5	8b f4		 mov	 esi, esp
  035d7	68 34 05 00 00	 push	 1332			; 00000534H
  035dc	68 00 00 00 00	 push	 OFFSET $SG177994
  035e1	68 00 00 00 00	 push	 OFFSET $SG177995
  035e6	ff 15 00 00 00
	00		 call	 DWORD PTR __imp___wassert
  035ec	83 c4 0c	 add	 esp, 12			; 0000000cH
  035ef	3b f4		 cmp	 esi, esp
  035f1	e8 00 00 00 00	 call	 __RTC_CheckEsp
$LN45@GetProxima:

; 1333 : 	assert(nXCell >= 0);

  035f6	83 7d 08 00	 cmp	 DWORD PTR _nXCell$[ebp], 0
  035fa	7d 21		 jge	 SHORT $LN46@GetProxima
  035fc	8b f4		 mov	 esi, esp
  035fe	68 35 05 00 00	 push	 1333			; 00000535H
  03603	68 00 00 00 00	 push	 OFFSET $SG177997
  03608	68 00 00 00 00	 push	 OFFSET $SG177998
  0360d	ff 15 00 00 00
	00		 call	 DWORD PTR __imp___wassert
  03613	83 c4 0c	 add	 esp, 12			; 0000000cH
  03616	3b f4		 cmp	 esi, esp
  03618	e8 00 00 00 00	 call	 __RTC_CheckEsp
$LN46@GetProxima:

; 1334 : 	assert(nXCell < REGION_GRID_WIDTH);

  0361d	83 7d 08 40	 cmp	 DWORD PTR _nXCell$[ebp], 64 ; 00000040H
  03621	7c 21		 jl	 SHORT $LN47@GetProxima
  03623	8b f4		 mov	 esi, esp
  03625	68 36 05 00 00	 push	 1334			; 00000536H
  0362a	68 00 00 00 00	 push	 OFFSET $SG178000
  0362f	68 00 00 00 00	 push	 OFFSET $SG178001
  03634	ff 15 00 00 00
	00		 call	 DWORD PTR __imp___wassert
  0363a	83 c4 0c	 add	 esp, 12			; 0000000cH
  0363d	3b f4		 cmp	 esi, esp
  0363f	e8 00 00 00 00	 call	 __RTC_CheckEsp
$LN47@GetProxima:

; 1335 : 	assert(nYCell >= 0);

  03644	83 7d 0c 00	 cmp	 DWORD PTR _nYCell$[ebp], 0
  03648	7d 21		 jge	 SHORT $LN48@GetProxima
  0364a	8b f4		 mov	 esi, esp
  0364c	68 37 05 00 00	 push	 1335			; 00000537H
  03651	68 00 00 00 00	 push	 OFFSET $SG178003
  03656	68 00 00 00 00	 push	 OFFSET $SG178004
  0365b	ff 15 00 00 00
	00		 call	 DWORD PTR __imp___wassert
  03661	83 c4 0c	 add	 esp, 12			; 0000000cH
  03664	3b f4		 cmp	 esi, esp
  03666	e8 00 00 00 00	 call	 __RTC_CheckEsp
$LN48@GetProxima:

; 1336 : 	assert(nYCell < REGION_GRID_HEIGHT);

  0366b	83 7d 0c 40	 cmp	 DWORD PTR _nYCell$[ebp], 64 ; 00000040H
  0366f	7c 21		 jl	 SHORT $LN49@GetProxima
  03671	8b f4		 mov	 esi, esp
  03673	68 38 05 00 00	 push	 1336			; 00000538H
  03678	68 00 00 00 00	 push	 OFFSET $SG178006
  0367d	68 00 00 00 00	 push	 OFFSET $SG178007
  03682	ff 15 00 00 00
	00		 call	 DWORD PTR __imp___wassert
  03688	83 c4 0c	 add	 esp, 12			; 0000000cH
  0368b	3b f4		 cmp	 esi, esp
  0368d	e8 00 00 00 00	 call	 __RTC_CheckEsp
$LN49@GetProxima:

; 1337 : 
; 1338 :     pCellNode = GetLowestObstacle(nXCell, nYCell);

  03692	8b 55 0c	 mov	 edx, DWORD PTR _nYCell$[ebp]
  03695	52		 push	 edx
  03696	8b 45 08	 mov	 eax, DWORD PTR _nXCell$[ebp]
  03699	50		 push	 eax
  0369a	8b 4d fc	 mov	 ecx, DWORD PTR _this$[ebp]
  0369d	e8 00 00 00 00	 call	 ?GetLowestObstacle@KRegion@@QAEPAUKCell@@HH@Z ; KRegion::GetLowestObstacle
  036a2	89 45 f0	 mov	 DWORD PTR _pCellNode$[ebp], eax
$LN42@GetProxima:

; 1339 :     while (pCellNode)

  036a5	83 7d f0 00	 cmp	 DWORD PTR _pCellNode$[ebp], 0
  036a9	0f 84 80 02 00
	00		 je	 $LN5@GetProxima

; 1340 :     {
; 1341 :         int    nTempPosZ     = 0;

  036af	c7 45 e4 00 00
	00 00		 mov	 DWORD PTR _nTempPosZ$178011[ebp], 0

; 1342 :         BOOL   bStandable    = false;

  036b6	c7 45 e0 00 00
	00 00		 mov	 DWORD PTR _bStandable$178012[ebp], 0

; 1343 : 
; 1344 :         if (pCellNode->m_BaseInfo.dwCellType == ctWater)

  036bd	8b 4d f0	 mov	 ecx, DWORD PTR _pCellNode$[ebp]
  036c0	8b 11		 mov	 edx, DWORD PTR [ecx]
  036c2	83 e2 03	 and	 edx, 3
  036c5	83 fa 01	 cmp	 edx, 1
  036c8	0f 85 00 01 00
	00		 jne	 $LN40@GetProxima

; 1345 :         {
; 1346 :             if (bIgnoreBlock || !pCellNode->m_BaseInfo.dwBlockCharacter)

  036ce	83 7d 1c 00	 cmp	 DWORD PTR _bIgnoreBlock$[ebp], 0
  036d2	75 11		 jne	 SHORT $LN38@GetProxima
  036d4	8b 45 f0	 mov	 eax, DWORD PTR _pCellNode$[ebp]
  036d7	8b 08		 mov	 ecx, DWORD PTR [eax]
  036d9	c1 e9 1f	 shr	 ecx, 31			; 0000001fH
  036dc	83 e1 01	 and	 ecx, 1
  036df	0f 85 e4 00 00
	00		 jne	 $LN39@GetProxima
$LN38@GetProxima:

; 1347 :             {
; 1348 :                 KCell* pNextRealCell = NULL;

  036e5	c7 45 dc 00 00
	00 00		 mov	 DWORD PTR _pNextRealCell$178016[ebp], 0

; 1349 :                 KCell* pIter         = GetNextCell(pCellNode, bIgnoreDynamicSwitch);

  036ec	8b 55 18	 mov	 edx, DWORD PTR _bIgnoreDynamicSwitch$[ebp]
  036ef	52		 push	 edx
  036f0	8b 45 f0	 mov	 eax, DWORD PTR _pCellNode$[ebp]
  036f3	50		 push	 eax
  036f4	8b 4d fc	 mov	 ecx, DWORD PTR _this$[ebp]
  036f7	e8 00 00 00 00	 call	 ?GetNextCell@KRegion@@QAEPAUKCell@@PAU2@H@Z ; KRegion::GetNextCell
  036fc	89 45 d8	 mov	 DWORD PTR _pIter$178017[ebp], eax
$LN37@GetProxima:

; 1350 : 
; 1351 :                 // Cell,Cell
; 1352 :                 while (pIter)

  036ff	83 7d d8 00	 cmp	 DWORD PTR _pIter$178017[ebp], 0
  03703	74 2a		 je	 SHORT $LN36@GetProxima

; 1353 :                 {
; 1354 :                     if (pIter->m_BaseInfo.dwCellType != ctWater)

  03705	8b 4d d8	 mov	 ecx, DWORD PTR _pIter$178017[ebp]
  03708	8b 11		 mov	 edx, DWORD PTR [ecx]
  0370a	83 e2 03	 and	 edx, 3
  0370d	83 fa 01	 cmp	 edx, 1
  03710	74 08		 je	 SHORT $LN35@GetProxima

; 1355 :                     {
; 1356 :                         pNextRealCell = pIter;

  03712	8b 45 d8	 mov	 eax, DWORD PTR _pIter$178017[ebp]
  03715	89 45 dc	 mov	 DWORD PTR _pNextRealCell$178016[ebp], eax

; 1357 :                         break;

  03718	eb 15		 jmp	 SHORT $LN36@GetProxima
$LN35@GetProxima:

; 1358 :                     }
; 1359 :                     pIter = GetNextCell(pIter, bIgnoreDynamicSwitch);

  0371a	8b 4d 18	 mov	 ecx, DWORD PTR _bIgnoreDynamicSwitch$[ebp]
  0371d	51		 push	 ecx
  0371e	8b 55 d8	 mov	 edx, DWORD PTR _pIter$178017[ebp]
  03721	52		 push	 edx
  03722	8b 4d fc	 mov	 ecx, DWORD PTR _this$[ebp]
  03725	e8 00 00 00 00	 call	 ?GetNextCell@KRegion@@QAEPAUKCell@@PAU2@H@Z ; KRegion::GetNextCell
  0372a	89 45 d8	 mov	 DWORD PTR _pIter$178017[ebp], eax

; 1360 :                 }

  0372d	eb d0		 jmp	 SHORT $LN37@GetProxima
$LN36@GetProxima:

; 1361 : 
; 1362 :                 if (pNextRealCell)

  0372f	83 7d dc 00	 cmp	 DWORD PTR _pNextRealCell$178016[ebp], 0
  03733	74 69		 je	 SHORT $LN34@GetProxima

; 1363 :                 {
; 1364 :                     if ((pNextRealCell->m_wLowLayer - pCellNode->m_wLowLayer) * POINT_PER_ALTITUDE >= nHeight)

  03735	8b 45 dc	 mov	 eax, DWORD PTR _pNextRealCell$178016[ebp]
  03738	0f b7 48 04	 movzx	 ecx, WORD PTR [eax+4]
  0373c	8b 55 f0	 mov	 edx, DWORD PTR _pCellNode$[ebp]
  0373f	0f b7 42 04	 movzx	 eax, WORD PTR [edx+4]
  03743	2b c8		 sub	 ecx, eax
  03745	c1 e1 06	 shl	 ecx, 6
  03748	3b 4d 14	 cmp	 ecx, DWORD PTR _nHeight$[ebp]
  0374b	7c 4f		 jl	 SHORT $LN33@GetProxima

; 1365 :                     {
; 1366 :                         bStandable = true;

  0374d	c7 45 e0 01 00
	00 00		 mov	 DWORD PTR _bStandable$178012[ebp], 1

; 1367 : 
; 1368 :                         if (nFootPosZ >= pNextRealCell->m_wLowLayer * POINT_PER_ALTITUDE - nHeight)

  03754	8b 4d dc	 mov	 ecx, DWORD PTR _pNextRealCell$178016[ebp]
  03757	0f b7 51 04	 movzx	 edx, WORD PTR [ecx+4]
  0375b	c1 e2 06	 shl	 edx, 6
  0375e	2b 55 14	 sub	 edx, DWORD PTR _nHeight$[ebp]
  03761	39 55 10	 cmp	 DWORD PTR _nFootPosZ$[ebp], edx
  03764	7c 12		 jl	 SHORT $LN32@GetProxima

; 1369 :                         {
; 1370 :                             nTempPosZ = pNextRealCell->m_wLowLayer * POINT_PER_ALTITUDE - nHeight;

  03766	8b 45 dc	 mov	 eax, DWORD PTR _pNextRealCell$178016[ebp]
  03769	0f b7 48 04	 movzx	 ecx, WORD PTR [eax+4]
  0376d	c1 e1 06	 shl	 ecx, 6
  03770	2b 4d 14	 sub	 ecx, DWORD PTR _nHeight$[ebp]
  03773	89 4d e4	 mov	 DWORD PTR _nTempPosZ$178011[ebp], ecx
  03776	eb 24		 jmp	 SHORT $LN33@GetProxima
$LN32@GetProxima:

; 1371 :                         }
; 1372 :                         else if (nFootPosZ < pCellNode->m_wLowLayer * POINT_PER_ALTITUDE)

  03778	8b 55 f0	 mov	 edx, DWORD PTR _pCellNode$[ebp]
  0377b	0f b7 42 04	 movzx	 eax, WORD PTR [edx+4]
  0377f	c1 e0 06	 shl	 eax, 6
  03782	39 45 10	 cmp	 DWORD PTR _nFootPosZ$[ebp], eax
  03785	7d 0f		 jge	 SHORT $LN30@GetProxima

; 1373 :                         {
; 1374 :                             nTempPosZ = pCellNode->m_wLowLayer * POINT_PER_ALTITUDE;

  03787	8b 4d f0	 mov	 ecx, DWORD PTR _pCellNode$[ebp]
  0378a	0f b7 51 04	 movzx	 edx, WORD PTR [ecx+4]
  0378e	c1 e2 06	 shl	 edx, 6
  03791	89 55 e4	 mov	 DWORD PTR _nTempPosZ$178011[ebp], edx

; 1375 :                         }
; 1376 :                         else

  03794	eb 06		 jmp	 SHORT $LN33@GetProxima
$LN30@GetProxima:

; 1377 :                         {
; 1378 :                             nTempPosZ = nFootPosZ;

  03796	8b 45 10	 mov	 eax, DWORD PTR _nFootPosZ$[ebp]
  03799	89 45 e4	 mov	 DWORD PTR _nTempPosZ$178011[ebp], eax
$LN33@GetProxima:

; 1379 :                         }
; 1380 :                     }
; 1381 :                 }
; 1382 :                 else

  0379c	eb 2b		 jmp	 SHORT $LN39@GetProxima
$LN34@GetProxima:

; 1383 :                 {
; 1384 :                     bStandable = true;

  0379e	c7 45 e0 01 00
	00 00		 mov	 DWORD PTR _bStandable$178012[ebp], 1

; 1385 : 
; 1386 :                     if (nFootPosZ > pCellNode->m_wLowLayer * POINT_PER_ALTITUDE)

  037a5	8b 4d f0	 mov	 ecx, DWORD PTR _pCellNode$[ebp]
  037a8	0f b7 51 04	 movzx	 edx, WORD PTR [ecx+4]
  037ac	c1 e2 06	 shl	 edx, 6
  037af	39 55 10	 cmp	 DWORD PTR _nFootPosZ$[ebp], edx
  037b2	7e 08		 jle	 SHORT $LN27@GetProxima

; 1387 :                     {
; 1388 :                         nTempPosZ = nFootPosZ;

  037b4	8b 45 10	 mov	 eax, DWORD PTR _nFootPosZ$[ebp]
  037b7	89 45 e4	 mov	 DWORD PTR _nTempPosZ$178011[ebp], eax

; 1389 :                     }
; 1390 :                     else

  037ba	eb 0d		 jmp	 SHORT $LN39@GetProxima
$LN27@GetProxima:

; 1391 :                     {
; 1392 :                         nTempPosZ = pCellNode->m_wLowLayer * POINT_PER_ALTITUDE;

  037bc	8b 4d f0	 mov	 ecx, DWORD PTR _pCellNode$[ebp]
  037bf	0f b7 51 04	 movzx	 edx, WORD PTR [ecx+4]
  037c3	c1 e2 06	 shl	 edx, 6
  037c6	89 55 e4	 mov	 DWORD PTR _nTempPosZ$178011[ebp], edx
$LN39@GetProxima:

; 1393 :                     }                        
; 1394 :                 }
; 1395 :             }
; 1396 :         }
; 1397 :         else

  037c9	e9 fb 00 00 00	 jmp	 $LN25@GetProxima
$LN40@GetProxima:

; 1398 :         {
; 1399 :             if (bIgnoreBlock || !pCellNode->m_BaseInfo.dwBlockCharacter)

  037ce	83 7d 1c 00	 cmp	 DWORD PTR _bIgnoreBlock$[ebp], 0
  037d2	75 11		 jne	 SHORT $LN23@GetProxima
  037d4	8b 45 f0	 mov	 eax, DWORD PTR _pCellNode$[ebp]
  037d7	8b 08		 mov	 ecx, DWORD PTR [eax]
  037d9	c1 e9 1f	 shr	 ecx, 31			; 0000001fH
  037dc	83 e1 01	 and	 ecx, 1
  037df	0f 85 e4 00 00
	00		 jne	 $LN25@GetProxima
$LN23@GetProxima:

; 1400 :             {
; 1401 :                 KCell* pNextRealCell = NULL;

  037e5	c7 45 d4 00 00
	00 00		 mov	 DWORD PTR _pNextRealCell$178034[ebp], 0

; 1402 :                 KCell* pIter         = GetNextCell(pCellNode, bIgnoreDynamicSwitch);

  037ec	8b 55 18	 mov	 edx, DWORD PTR _bIgnoreDynamicSwitch$[ebp]
  037ef	52		 push	 edx
  037f0	8b 45 f0	 mov	 eax, DWORD PTR _pCellNode$[ebp]
  037f3	50		 push	 eax
  037f4	8b 4d fc	 mov	 ecx, DWORD PTR _this$[ebp]
  037f7	e8 00 00 00 00	 call	 ?GetNextCell@KRegion@@QAEPAUKCell@@PAU2@H@Z ; KRegion::GetNextCell
  037fc	89 45 d0	 mov	 DWORD PTR _pIter$178035[ebp], eax
$LN22@GetProxima:

; 1403 : 
; 1404 :                 // Cell,Cell
; 1405 :                 while (pIter)

  037ff	83 7d d0 00	 cmp	 DWORD PTR _pIter$178035[ebp], 0
  03803	74 2a		 je	 SHORT $LN21@GetProxima

; 1406 :                 {
; 1407 :                     if (pIter->m_BaseInfo.dwCellType != ctWater)

  03805	8b 4d d0	 mov	 ecx, DWORD PTR _pIter$178035[ebp]
  03808	8b 11		 mov	 edx, DWORD PTR [ecx]
  0380a	83 e2 03	 and	 edx, 3
  0380d	83 fa 01	 cmp	 edx, 1
  03810	74 08		 je	 SHORT $LN20@GetProxima

; 1408 :                     {
; 1409 :                         pNextRealCell = pIter;

  03812	8b 45 d0	 mov	 eax, DWORD PTR _pIter$178035[ebp]
  03815	89 45 d4	 mov	 DWORD PTR _pNextRealCell$178034[ebp], eax

; 1410 :                         break;

  03818	eb 15		 jmp	 SHORT $LN21@GetProxima
$LN20@GetProxima:

; 1411 :                     }
; 1412 :                     pIter = GetNextCell(pIter, bIgnoreDynamicSwitch);

  0381a	8b 4d 18	 mov	 ecx, DWORD PTR _bIgnoreDynamicSwitch$[ebp]
  0381d	51		 push	 ecx
  0381e	8b 55 d0	 mov	 edx, DWORD PTR _pIter$178035[ebp]
  03821	52		 push	 edx
  03822	8b 4d fc	 mov	 ecx, DWORD PTR _this$[ebp]
  03825	e8 00 00 00 00	 call	 ?GetNextCell@KRegion@@QAEPAUKCell@@PAU2@H@Z ; KRegion::GetNextCell
  0382a	89 45 d0	 mov	 DWORD PTR _pIter$178035[ebp], eax

; 1413 :                 }

  0382d	eb d0		 jmp	 SHORT $LN22@GetProxima
$LN21@GetProxima:

; 1414 : 
; 1415 :                 if (pNextRealCell)

  0382f	83 7d d4 00	 cmp	 DWORD PTR _pNextRealCell$178034[ebp], 0
  03833	74 69		 je	 SHORT $LN19@GetProxima

; 1416 :                 {
; 1417 :                     if ((pNextRealCell->m_wLowLayer - pCellNode->m_wHighLayer) * POINT_PER_ALTITUDE >= nHeight)

  03835	8b 45 d4	 mov	 eax, DWORD PTR _pNextRealCell$178034[ebp]
  03838	0f b7 48 04	 movzx	 ecx, WORD PTR [eax+4]
  0383c	8b 55 f0	 mov	 edx, DWORD PTR _pCellNode$[ebp]
  0383f	0f b7 42 06	 movzx	 eax, WORD PTR [edx+6]
  03843	2b c8		 sub	 ecx, eax
  03845	c1 e1 06	 shl	 ecx, 6
  03848	3b 4d 14	 cmp	 ecx, DWORD PTR _nHeight$[ebp]
  0384b	7c 4f		 jl	 SHORT $LN18@GetProxima

; 1418 :                     {
; 1419 :                         bStandable = true;

  0384d	c7 45 e0 01 00
	00 00		 mov	 DWORD PTR _bStandable$178012[ebp], 1

; 1420 : 
; 1421 :                         if (nFootPosZ >= pNextRealCell->m_wLowLayer * POINT_PER_ALTITUDE - nHeight)

  03854	8b 4d d4	 mov	 ecx, DWORD PTR _pNextRealCell$178034[ebp]
  03857	0f b7 51 04	 movzx	 edx, WORD PTR [ecx+4]
  0385b	c1 e2 06	 shl	 edx, 6
  0385e	2b 55 14	 sub	 edx, DWORD PTR _nHeight$[ebp]
  03861	39 55 10	 cmp	 DWORD PTR _nFootPosZ$[ebp], edx
  03864	7c 12		 jl	 SHORT $LN17@GetProxima

; 1422 :                         {
; 1423 :                             nTempPosZ = pNextRealCell->m_wLowLayer * POINT_PER_ALTITUDE - nHeight;

  03866	8b 45 d4	 mov	 eax, DWORD PTR _pNextRealCell$178034[ebp]
  03869	0f b7 48 04	 movzx	 ecx, WORD PTR [eax+4]
  0386d	c1 e1 06	 shl	 ecx, 6
  03870	2b 4d 14	 sub	 ecx, DWORD PTR _nHeight$[ebp]
  03873	89 4d e4	 mov	 DWORD PTR _nTempPosZ$178011[ebp], ecx
  03876	eb 24		 jmp	 SHORT $LN18@GetProxima
$LN17@GetProxima:

; 1424 :                         }
; 1425 :                         else if (nFootPosZ < pCellNode->m_wHighLayer * POINT_PER_ALTITUDE)

  03878	8b 55 f0	 mov	 edx, DWORD PTR _pCellNode$[ebp]
  0387b	0f b7 42 06	 movzx	 eax, WORD PTR [edx+6]
  0387f	c1 e0 06	 shl	 eax, 6
  03882	39 45 10	 cmp	 DWORD PTR _nFootPosZ$[ebp], eax
  03885	7d 0f		 jge	 SHORT $LN15@GetProxima

; 1426 :                         {
; 1427 :                             nTempPosZ = pCellNode->m_wHighLayer * POINT_PER_ALTITUDE;

  03887	8b 4d f0	 mov	 ecx, DWORD PTR _pCellNode$[ebp]
  0388a	0f b7 51 06	 movzx	 edx, WORD PTR [ecx+6]
  0388e	c1 e2 06	 shl	 edx, 6
  03891	89 55 e4	 mov	 DWORD PTR _nTempPosZ$178011[ebp], edx

; 1428 :                         }
; 1429 :                         else

  03894	eb 06		 jmp	 SHORT $LN18@GetProxima
$LN15@GetProxima:

; 1430 :                         {
; 1431 :                             nTempPosZ = nFootPosZ;

  03896	8b 45 10	 mov	 eax, DWORD PTR _nFootPosZ$[ebp]
  03899	89 45 e4	 mov	 DWORD PTR _nTempPosZ$178011[ebp], eax
$LN18@GetProxima:

; 1432 :                         }
; 1433 :                     }
; 1434 :                 }
; 1435 :                 else

  0389c	eb 2b		 jmp	 SHORT $LN25@GetProxima
$LN19@GetProxima:

; 1436 :                 {
; 1437 :                     bStandable = true;

  0389e	c7 45 e0 01 00
	00 00		 mov	 DWORD PTR _bStandable$178012[ebp], 1

; 1438 : 
; 1439 :                     if (nFootPosZ > pCellNode->m_wHighLayer * POINT_PER_ALTITUDE)

  038a5	8b 4d f0	 mov	 ecx, DWORD PTR _pCellNode$[ebp]
  038a8	0f b7 51 06	 movzx	 edx, WORD PTR [ecx+6]
  038ac	c1 e2 06	 shl	 edx, 6
  038af	39 55 10	 cmp	 DWORD PTR _nFootPosZ$[ebp], edx
  038b2	7e 08		 jle	 SHORT $LN12@GetProxima

; 1440 :                     {
; 1441 :                         nTempPosZ = nFootPosZ;

  038b4	8b 45 10	 mov	 eax, DWORD PTR _nFootPosZ$[ebp]
  038b7	89 45 e4	 mov	 DWORD PTR _nTempPosZ$178011[ebp], eax

; 1442 :                     }
; 1443 :                     else

  038ba	eb 0d		 jmp	 SHORT $LN25@GetProxima
$LN12@GetProxima:

; 1444 :                     {
; 1445 :                         nTempPosZ = pCellNode->m_wHighLayer * POINT_PER_ALTITUDE;

  038bc	8b 4d f0	 mov	 ecx, DWORD PTR _pCellNode$[ebp]
  038bf	0f b7 51 06	 movzx	 edx, WORD PTR [ecx+6]
  038c3	c1 e2 06	 shl	 edx, 6
  038c6	89 55 e4	 mov	 DWORD PTR _nTempPosZ$178011[ebp], edx
$LN25@GetProxima:

; 1446 :                     }                        
; 1447 :                 }
; 1448 :             }
; 1449 :         }
; 1450 : 
; 1451 :         if (bStandable)

  038c9	83 7d e0 00	 cmp	 DWORD PTR _bStandable$178012[ebp], 0
  038cd	74 48		 je	 SHORT $LN10@GetProxima

; 1452 :         {
; 1453 :             if (pPossibleCell)

  038cf	83 7d f4 00	 cmp	 DWORD PTR _pPossibleCell$[ebp], 0
  038d3	74 36		 je	 SHORT $LN9@GetProxima

; 1454 :             {
; 1455 :                 // Cell,nFootZ
; 1456 :                 if (abs(nTempPosZ - nFootPosZ) <= abs(nAbsolutePosZ - nFootPosZ))

  038d5	8b 45 e4	 mov	 eax, DWORD PTR _nTempPosZ$178011[ebp]
  038d8	2b 45 10	 sub	 eax, DWORD PTR _nFootPosZ$[ebp]
  038db	50		 push	 eax
  038dc	e8 00 00 00 00	 call	 _abs
  038e1	83 c4 04	 add	 esp, 4
  038e4	8b f0		 mov	 esi, eax
  038e6	8b 4d e8	 mov	 ecx, DWORD PTR _nAbsolutePosZ$[ebp]
  038e9	2b 4d 10	 sub	 ecx, DWORD PTR _nFootPosZ$[ebp]
  038ec	51		 push	 ecx
  038ed	e8 00 00 00 00	 call	 _abs
  038f2	83 c4 04	 add	 esp, 4
  038f5	3b f0		 cmp	 esi, eax
  038f7	7f 0e		 jg	 SHORT $LN8@GetProxima

; 1457 :                 {
; 1458 :                     pPossibleCell = pCellNode;

  038f9	8b 55 f0	 mov	 edx, DWORD PTR _pCellNode$[ebp]
  038fc	89 55 f4	 mov	 DWORD PTR _pPossibleCell$[ebp], edx

; 1459 :                     nAbsolutePosZ = nTempPosZ;

  038ff	8b 45 e4	 mov	 eax, DWORD PTR _nTempPosZ$178011[ebp]
  03902	89 45 e8	 mov	 DWORD PTR _nAbsolutePosZ$[ebp], eax

; 1460 :                 }
; 1461 :                 else

  03905	eb 02		 jmp	 SHORT $LN7@GetProxima
$LN8@GetProxima:

; 1462 :                 {
; 1463 :                     // Cell,,Cell,CellnFootZ,Cell
; 1464 :                     break;

  03907	eb 26		 jmp	 SHORT $LN5@GetProxima
$LN7@GetProxima:

; 1465 :                 }
; 1466 :             }
; 1467 :             else

  03909	eb 0c		 jmp	 SHORT $LN10@GetProxima
$LN9@GetProxima:

; 1468 :             {
; 1469 :                 pPossibleCell = pCellNode;

  0390b	8b 4d f0	 mov	 ecx, DWORD PTR _pCellNode$[ebp]
  0390e	89 4d f4	 mov	 DWORD PTR _pPossibleCell$[ebp], ecx

; 1470 :                 nAbsolutePosZ = nTempPosZ;

  03911	8b 55 e4	 mov	 edx, DWORD PTR _nTempPosZ$178011[ebp]
  03914	89 55 e8	 mov	 DWORD PTR _nAbsolutePosZ$[ebp], edx
$LN10@GetProxima:

; 1471 :             }
; 1472 :         }
; 1473 : 
; 1474 :         pCellNode = GetNextCell(pCellNode, bIgnoreDynamicSwitch);

  03917	8b 45 18	 mov	 eax, DWORD PTR _bIgnoreDynamicSwitch$[ebp]
  0391a	50		 push	 eax
  0391b	8b 4d f0	 mov	 ecx, DWORD PTR _pCellNode$[ebp]
  0391e	51		 push	 ecx
  0391f	8b 4d fc	 mov	 ecx, DWORD PTR _this$[ebp]
  03922	e8 00 00 00 00	 call	 ?GetNextCell@KRegion@@QAEPAUKCell@@PAU2@H@Z ; KRegion::GetNextCell
  03927	89 45 f0	 mov	 DWORD PTR _pCellNode$[ebp], eax

; 1475 :     }

  0392a	e9 76 fd ff ff	 jmp	 $LN42@GetProxima
$LN5@GetProxima:

; 1476 : 
; 1477 : 
; 1478 :     KG_PROCESS_ERROR(pPossibleCell);

  0392f	83 7d f4 00	 cmp	 DWORD PTR _pPossibleCell$[ebp], 0
  03933	75 04		 jne	 SHORT $LN4@GetProxima
  03935	eb 26		 jmp	 SHORT $Exit0$178058
  03937	eb 24		 jmp	 SHORT $Exit0$178058
$LN4@GetProxima:
  03939	33 d2		 xor	 edx, edx
  0393b	75 f2		 jne	 SHORT $LN5@GetProxima

; 1479 : 
; 1480 :     nRelativeZ      = nAbsolutePosZ - pPossibleCell->m_wHighLayer * POINT_PER_ALTITUDE;

  0393d	8b 45 f4	 mov	 eax, DWORD PTR _pPossibleCell$[ebp]
  03940	0f b7 48 06	 movzx	 ecx, WORD PTR [eax+6]
  03944	c1 e1 06	 shl	 ecx, 6
  03947	8b 55 e8	 mov	 edx, DWORD PTR _nAbsolutePosZ$[ebp]
  0394a	2b d1		 sub	 edx, ecx
  0394c	89 55 ec	 mov	 DWORD PTR _nRelativeZ$[ebp], edx

; 1481 : 
; 1482 :     pResult         = pPossibleCell;

  0394f	8b 45 f4	 mov	 eax, DWORD PTR _pPossibleCell$[ebp]
  03952	89 45 f8	 mov	 DWORD PTR _pResult$[ebp], eax

; 1483 :     *pnRelativeZ    = nRelativeZ;

  03955	8b 4d 20	 mov	 ecx, DWORD PTR _pnRelativeZ$[ebp]
  03958	8b 55 ec	 mov	 edx, DWORD PTR _nRelativeZ$[ebp]
  0395b	89 11		 mov	 DWORD PTR [ecx], edx
$Exit0$178058:

; 1484 : Exit0:
; 1485 :     return pResult;

  0395d	8b 45 f8	 mov	 eax, DWORD PTR _pResult$[ebp]

; 1486 : }

  03960	5f		 pop	 edi
  03961	5e		 pop	 esi
  03962	83 c4 30	 add	 esp, 48			; 00000030H
  03965	3b ec		 cmp	 ebp, esp
  03967	e8 00 00 00 00	 call	 __RTC_CheckEsp
  0396c	8b e5		 mov	 esp, ebp
  0396e	5d		 pop	 ebp
  0396f	c2 1c 00	 ret	 28			; 0000001cH
?GetProximalCellForObj@KRegion@@QAEPAUKCell@@HHHHHHPAH@Z ENDP ; KRegion::GetProximalCellForObj
_TEXT	ENDS
PUBLIC	?GetPreCell@KRegion@@QAEPAUKCell@@HHPAU2@@Z	; KRegion::GetPreCell
EXTRN	?GetDynamicObstacleState@KScene@@QAEHH@Z:PROC	; KScene::GetDynamicObstacleState
; Function compile flags: /Odtp /RTCsu
_TEXT	SEGMENT
_pDynamicCell$178071 = -12				; size = 4
_pCellNode$ = -8					; size = 4
_this$ = -4						; size = 4
_nCellX$ = 8						; size = 4
_nCellY$ = 12						; size = 4
_pCell$ = 16						; size = 4
?GetPreCell@KRegion@@QAEPAUKCell@@HHPAU2@@Z PROC	; KRegion::GetPreCell
; _this$ = ecx

; 1489 : {

  03980	55		 push	 ebp
  03981	8b ec		 mov	 ebp, esp
  03983	83 ec 0c	 sub	 esp, 12			; 0000000cH
  03986	c7 45 f4 cc cc
	cc cc		 mov	 DWORD PTR [ebp-12], -858993460 ; ccccccccH
  0398d	c7 45 f8 cc cc
	cc cc		 mov	 DWORD PTR [ebp-8], -858993460 ; ccccccccH
  03994	c7 45 fc cc cc
	cc cc		 mov	 DWORD PTR [ebp-4], -858993460 ; ccccccccH
  0399b	89 4d fc	 mov	 DWORD PTR _this$[ebp], ecx

; 1490 :     KCell* pCellNode = GetLowestObstacle(nCellX, nCellY);

  0399e	8b 45 0c	 mov	 eax, DWORD PTR _nCellY$[ebp]
  039a1	50		 push	 eax
  039a2	8b 4d 08	 mov	 ecx, DWORD PTR _nCellX$[ebp]
  039a5	51		 push	 ecx
  039a6	8b 4d fc	 mov	 ecx, DWORD PTR _this$[ebp]
  039a9	e8 00 00 00 00	 call	 ?GetLowestObstacle@KRegion@@QAEPAUKCell@@HH@Z ; KRegion::GetLowestObstacle
  039ae	89 45 f8	 mov	 DWORD PTR _pCellNode$[ebp], eax
$LN4@GetPreCell:

; 1491 : 
; 1492 :     while (pCellNode && pCellNode->m_pNext != pCell)

  039b1	83 7d f8 00	 cmp	 DWORD PTR _pCellNode$[ebp], 0
  039b5	74 16		 je	 SHORT $LN3@GetPreCell
  039b7	8b 55 f8	 mov	 edx, DWORD PTR _pCellNode$[ebp]
  039ba	8b 42 08	 mov	 eax, DWORD PTR [edx+8]
  039bd	3b 45 10	 cmp	 eax, DWORD PTR _pCell$[ebp]
  039c0	74 0b		 je	 SHORT $LN3@GetPreCell

; 1493 :     {
; 1494 :         pCellNode = pCellNode->m_pNext;

  039c2	8b 4d f8	 mov	 ecx, DWORD PTR _pCellNode$[ebp]
  039c5	8b 51 08	 mov	 edx, DWORD PTR [ecx+8]
  039c8	89 55 f8	 mov	 DWORD PTR _pCellNode$[ebp], edx

; 1495 :     }

  039cb	eb e4		 jmp	 SHORT $LN4@GetPreCell
$LN3@GetPreCell:

; 1496 : 
; 1497 :     if (pCellNode && pCellNode->m_BaseInfo.dwDynamic)

  039cd	83 7d f8 00	 cmp	 DWORD PTR _pCellNode$[ebp], 0
  039d1	74 40		 je	 SHORT $LN2@GetPreCell
  039d3	8b 45 f8	 mov	 eax, DWORD PTR _pCellNode$[ebp]
  039d6	8b 08		 mov	 ecx, DWORD PTR [eax]
  039d8	c1 e9 10	 shr	 ecx, 16			; 00000010H
  039db	83 e1 01	 and	 ecx, 1
  039de	74 33		 je	 SHORT $LN2@GetPreCell

; 1498 :     {
; 1499 :         KDynamicCell* pDynamicCell = (KDynamicCell*)pCellNode;

  039e0	8b 55 f8	 mov	 edx, DWORD PTR _pCellNode$[ebp]
  039e3	89 55 f4	 mov	 DWORD PTR _pDynamicCell$178071[ebp], edx

; 1500 : 
; 1501 :         if (!m_pScene->GetDynamicObstacleState(pDynamicCell->m_wGroupIndex))

  039e6	8b 45 f4	 mov	 eax, DWORD PTR _pDynamicCell$178071[ebp]
  039e9	0f b7 48 0c	 movzx	 ecx, WORD PTR [eax+12]
  039ed	51		 push	 ecx
  039ee	8b 55 fc	 mov	 edx, DWORD PTR _this$[ebp]
  039f1	8b 4a 18	 mov	 ecx, DWORD PTR [edx+24]
  039f4	e8 00 00 00 00	 call	 ?GetDynamicObstacleState@KScene@@QAEHH@Z ; KScene::GetDynamicObstacleState
  039f9	85 c0		 test	 eax, eax
  039fb	75 16		 jne	 SHORT $LN2@GetPreCell

; 1502 :         {
; 1503 :             return GetPreCell(nCellX, nCellY, pCellNode);

  039fd	8b 45 f8	 mov	 eax, DWORD PTR _pCellNode$[ebp]
  03a00	50		 push	 eax
  03a01	8b 4d 0c	 mov	 ecx, DWORD PTR _nCellY$[ebp]
  03a04	51		 push	 ecx
  03a05	8b 55 08	 mov	 edx, DWORD PTR _nCellX$[ebp]
  03a08	52		 push	 edx
  03a09	8b 4d fc	 mov	 ecx, DWORD PTR _this$[ebp]
  03a0c	e8 00 00 00 00	 call	 ?GetPreCell@KRegion@@QAEPAUKCell@@HHPAU2@@Z ; KRegion::GetPreCell
  03a11	eb 03		 jmp	 SHORT $LN5@GetPreCell
$LN2@GetPreCell:

; 1504 :         }
; 1505 :     }
; 1506 : 
; 1507 :     return pCellNode;

  03a13	8b 45 f8	 mov	 eax, DWORD PTR _pCellNode$[ebp]
$LN5@GetPreCell:

; 1508 : }

  03a16	83 c4 0c	 add	 esp, 12			; 0000000cH
  03a19	3b ec		 cmp	 ebp, esp
  03a1b	e8 00 00 00 00	 call	 __RTC_CheckEsp
  03a20	8b e5		 mov	 esp, ebp
  03a22	5d		 pop	 ebp
  03a23	c2 0c 00	 ret	 12			; 0000000cH
?GetPreCell@KRegion@@QAEPAUKCell@@HHPAU2@@Z ENDP	; KRegion::GetPreCell
; Function compile flags: /Odtp /RTCsu
_bDynamicSwitch$178086 = -16				; size = 4
_pDynamicCell$178084 = -12				; size = 4
_pCellNode$ = -8					; size = 4
_this$ = -4						; size = 4
_pCell$ = 8						; size = 4
_bIgnoreDynamicSwitch$ = 12				; size = 4
?GetNextCell@KRegion@@QAEPAUKCell@@PAU2@H@Z PROC	; KRegion::GetNextCell
; _this$ = ecx

; 1511 : {

  03a30	55		 push	 ebp
  03a31	8b ec		 mov	 ebp, esp
  03a33	83 ec 10	 sub	 esp, 16			; 00000010H
  03a36	b8 cc cc cc cc	 mov	 eax, -858993460		; ccccccccH
  03a3b	89 45 f0	 mov	 DWORD PTR [ebp-16], eax
  03a3e	89 45 f4	 mov	 DWORD PTR [ebp-12], eax
  03a41	89 45 f8	 mov	 DWORD PTR [ebp-8], eax
  03a44	89 45 fc	 mov	 DWORD PTR [ebp-4], eax
  03a47	89 4d fc	 mov	 DWORD PTR _this$[ebp], ecx

; 1512 :     KCell*  pCellNode     = NULL;

  03a4a	c7 45 f8 00 00
	00 00		 mov	 DWORD PTR _pCellNode$[ebp], 0

; 1513 : 
; 1514 :     pCellNode = pCell->m_pNext;

  03a51	8b 45 08	 mov	 eax, DWORD PTR _pCell$[ebp]
  03a54	8b 48 08	 mov	 ecx, DWORD PTR [eax+8]
  03a57	89 4d f8	 mov	 DWORD PTR _pCellNode$[ebp], ecx
$LN4@GetNextCel:

; 1515 : 
; 1516 :     while (pCellNode && pCellNode->m_BaseInfo.dwDynamic)

  03a5a	83 7d f8 00	 cmp	 DWORD PTR _pCellNode$[ebp], 0
  03a5e	74 45		 je	 SHORT $LN3@GetNextCel
  03a60	8b 55 f8	 mov	 edx, DWORD PTR _pCellNode$[ebp]
  03a63	8b 02		 mov	 eax, DWORD PTR [edx]
  03a65	c1 e8 10	 shr	 eax, 16			; 00000010H
  03a68	83 e0 01	 and	 eax, 1
  03a6b	74 38		 je	 SHORT $LN3@GetNextCel

; 1517 :     {
; 1518 :         // ,disable
; 1519 :         if (!bIgnoreDynamicSwitch)

  03a6d	83 7d 0c 00	 cmp	 DWORD PTR _bIgnoreDynamicSwitch$[ebp], 0
  03a71	75 27		 jne	 SHORT $LN2@GetNextCel

; 1520 :         {
; 1521 :             KDynamicCell* pDynamicCell   = (KDynamicCell*)pCellNode;

  03a73	8b 4d f8	 mov	 ecx, DWORD PTR _pCellNode$[ebp]
  03a76	89 4d f4	 mov	 DWORD PTR _pDynamicCell$178084[ebp], ecx

; 1522 :             BOOL bDynamicSwitch = m_pScene->GetDynamicObstacleState(pDynamicCell->m_wGroupIndex);

  03a79	8b 55 f4	 mov	 edx, DWORD PTR _pDynamicCell$178084[ebp]
  03a7c	0f b7 42 0c	 movzx	 eax, WORD PTR [edx+12]
  03a80	50		 push	 eax
  03a81	8b 4d fc	 mov	 ecx, DWORD PTR _this$[ebp]
  03a84	8b 49 18	 mov	 ecx, DWORD PTR [ecx+24]
  03a87	e8 00 00 00 00	 call	 ?GetDynamicObstacleState@KScene@@QAEHH@Z ; KScene::GetDynamicObstacleState
  03a8c	89 45 f0	 mov	 DWORD PTR _bDynamicSwitch$178086[ebp], eax

; 1523 :             if (bDynamicSwitch)

  03a8f	83 7d f0 00	 cmp	 DWORD PTR _bDynamicSwitch$178086[ebp], 0
  03a93	74 05		 je	 SHORT $LN2@GetNextCel

; 1524 :             {
; 1525 :                 return pCellNode;

  03a95	8b 45 f8	 mov	 eax, DWORD PTR _pCellNode$[ebp]
  03a98	eb 0e		 jmp	 SHORT $LN5@GetNextCel
$LN2@GetNextCel:

; 1526 :             }
; 1527 :         }
; 1528 : 
; 1529 :         pCellNode = pCellNode->m_pNext;

  03a9a	8b 55 f8	 mov	 edx, DWORD PTR _pCellNode$[ebp]
  03a9d	8b 42 08	 mov	 eax, DWORD PTR [edx+8]
  03aa0	89 45 f8	 mov	 DWORD PTR _pCellNode$[ebp], eax

; 1530 :     }

  03aa3	eb b5		 jmp	 SHORT $LN4@GetNextCel
$LN3@GetNextCel:

; 1531 : 
; 1532 :     return pCellNode;

  03aa5	8b 45 f8	 mov	 eax, DWORD PTR _pCellNode$[ebp]
$LN5@GetNextCel:

; 1533 : }

  03aa8	83 c4 10	 add	 esp, 16			; 00000010H
  03aab	3b ec		 cmp	 ebp, esp
  03aad	e8 00 00 00 00	 call	 __RTC_CheckEsp
  03ab2	8b e5		 mov	 esp, ebp
  03ab4	5d		 pop	 ebp
  03ab5	c2 08 00	 ret	 8
?GetNextCell@KRegion@@QAEPAUKCell@@PAU2@H@Z ENDP	; KRegion::GetNextCell
_TEXT	ENDS
PUBLIC	?CheckObstacle@KRegion@@QAEHHHH@Z		; KRegion::CheckObstacle
; Function compile flags: /Odtp /RTCsu
_TEXT	SEGMENT
_pCell$ = -12						; size = 4
_bFound$ = -8						; size = 4
_this$ = -4						; size = 4
_nXCell$ = 8						; size = 4
_nYCell$ = 12						; size = 4
_nLayer$ = 16						; size = 4
?CheckObstacle@KRegion@@QAEHHHH@Z PROC			; KRegion::CheckObstacle
; _this$ = ecx

; 1536 : {

  03ac0	55		 push	 ebp
  03ac1	8b ec		 mov	 ebp, esp
  03ac3	83 ec 0c	 sub	 esp, 12			; 0000000cH
  03ac6	c7 45 f4 cc cc
	cc cc		 mov	 DWORD PTR [ebp-12], -858993460 ; ccccccccH
  03acd	c7 45 f8 cc cc
	cc cc		 mov	 DWORD PTR [ebp-8], -858993460 ; ccccccccH
  03ad4	c7 45 fc cc cc
	cc cc		 mov	 DWORD PTR [ebp-4], -858993460 ; ccccccccH
  03adb	89 4d fc	 mov	 DWORD PTR _this$[ebp], ecx

; 1537 : 	BOOL    bFound = false;

  03ade	c7 45 f8 00 00
	00 00		 mov	 DWORD PTR _bFound$[ebp], 0

; 1538 :     KCell*  pCell  = NULL;

  03ae5	c7 45 f4 00 00
	00 00		 mov	 DWORD PTR _pCell$[ebp], 0
$LN26@CheckObsta:

; 1539 : 
; 1540 : 	KG_PROCESS_SUCCESS(nXCell < 0);

  03aec	83 7d 08 00	 cmp	 DWORD PTR _nXCell$[ebp], 0
  03af0	7d 04		 jge	 SHORT $LN25@CheckObsta
  03af2	eb 7f		 jmp	 SHORT $Exit1$178100
  03af4	eb 7d		 jmp	 SHORT $Exit1$178100
$LN25@CheckObsta:
  03af6	33 c0		 xor	 eax, eax
  03af8	75 f2		 jne	 SHORT $LN26@CheckObsta
$LN21@CheckObsta:

; 1541 : 	KG_PROCESS_SUCCESS(nXCell >= REGION_GRID_WIDTH);

  03afa	83 7d 08 40	 cmp	 DWORD PTR _nXCell$[ebp], 64 ; 00000040H
  03afe	7c 04		 jl	 SHORT $LN20@CheckObsta
  03b00	eb 71		 jmp	 SHORT $Exit1$178100
  03b02	eb 6f		 jmp	 SHORT $Exit1$178100
$LN20@CheckObsta:
  03b04	33 c9		 xor	 ecx, ecx
  03b06	75 f2		 jne	 SHORT $LN21@CheckObsta
$LN16@CheckObsta:

; 1542 : 	KG_PROCESS_SUCCESS(nYCell < 0);

  03b08	83 7d 0c 00	 cmp	 DWORD PTR _nYCell$[ebp], 0
  03b0c	7d 04		 jge	 SHORT $LN15@CheckObsta
  03b0e	eb 63		 jmp	 SHORT $Exit1$178100
  03b10	eb 61		 jmp	 SHORT $Exit1$178100
$LN15@CheckObsta:
  03b12	33 d2		 xor	 edx, edx
  03b14	75 f2		 jne	 SHORT $LN16@CheckObsta
$LN11@CheckObsta:

; 1543 : 	KG_PROCESS_SUCCESS(nYCell >= REGION_GRID_HEIGHT);

  03b16	83 7d 0c 40	 cmp	 DWORD PTR _nYCell$[ebp], 64 ; 00000040H
  03b1a	7c 04		 jl	 SHORT $LN10@CheckObsta
  03b1c	eb 55		 jmp	 SHORT $Exit1$178100
  03b1e	eb 53		 jmp	 SHORT $Exit1$178100
$LN10@CheckObsta:
  03b20	33 c0		 xor	 eax, eax
  03b22	75 f2		 jne	 SHORT $LN11@CheckObsta

; 1544 : 
; 1545 : 	pCell = GetLowestObstacle(nXCell, nYCell);

  03b24	8b 4d 0c	 mov	 ecx, DWORD PTR _nYCell$[ebp]
  03b27	51		 push	 ecx
  03b28	8b 55 08	 mov	 edx, DWORD PTR _nXCell$[ebp]
  03b2b	52		 push	 edx
  03b2c	8b 4d fc	 mov	 ecx, DWORD PTR _this$[ebp]
  03b2f	e8 00 00 00 00	 call	 ?GetLowestObstacle@KRegion@@QAEPAUKCell@@HH@Z ; KRegion::GetLowestObstacle
  03b34	89 45 f4	 mov	 DWORD PTR _pCell$[ebp], eax
$LN6@CheckObsta:

; 1546 : 	while (pCell)

  03b37	83 7d f4 00	 cmp	 DWORD PTR _pCell$[ebp], 0
  03b3b	74 32		 je	 SHORT $Exit0$178124

; 1547 : 	{
; 1548 : 		if (nLayer >= pCell->m_wLowLayer)

  03b3d	8b 45 f4	 mov	 eax, DWORD PTR _pCell$[ebp]
  03b40	0f b7 48 04	 movzx	 ecx, WORD PTR [eax+4]
  03b44	39 4d 10	 cmp	 DWORD PTR _nLayer$[ebp], ecx
  03b47	7c 20		 jl	 SHORT $LN4@CheckObsta

; 1549 : 		{
; 1550 : 			if (nLayer < pCell->m_wHighLayer)

  03b49	8b 55 f4	 mov	 edx, DWORD PTR _pCell$[ebp]
  03b4c	0f b7 42 06	 movzx	 eax, WORD PTR [edx+6]
  03b50	39 45 10	 cmp	 DWORD PTR _nLayer$[ebp], eax
  03b53	7d 09		 jge	 SHORT $LN3@CheckObsta

; 1551 : 				return true;

  03b55	b8 01 00 00 00	 mov	 eax, 1
  03b5a	eb 1c		 jmp	 SHORT $LN27@CheckObsta

; 1552 : 			else

  03b5c	eb 09		 jmp	 SHORT $LN2@CheckObsta
$LN3@CheckObsta:

; 1553 : 				pCell = pCell->m_pNext;

  03b5e	8b 4d f4	 mov	 ecx, DWORD PTR _pCell$[ebp]
  03b61	8b 51 08	 mov	 edx, DWORD PTR [ecx+8]
  03b64	89 55 f4	 mov	 DWORD PTR _pCell$[ebp], edx
$LN2@CheckObsta:

; 1554 : 		}
; 1555 : 		else

  03b67	eb 04		 jmp	 SHORT $LN1@CheckObsta
$LN4@CheckObsta:

; 1556 : 		{
; 1557 : 			return false;

  03b69	33 c0		 xor	 eax, eax
  03b6b	eb 0b		 jmp	 SHORT $LN27@CheckObsta
$LN1@CheckObsta:

; 1558 : 		}
; 1559 : 	}

  03b6d	eb c8		 jmp	 SHORT $LN6@CheckObsta
$Exit0$178124:

; 1560 : 
; 1561 : Exit0:
; 1562 : 	return false;

  03b6f	33 c0		 xor	 eax, eax
  03b71	eb 05		 jmp	 SHORT $LN27@CheckObsta
$Exit1$178100:

; 1563 : 
; 1564 : Exit1:
; 1565 : 	// 
; 1566 : 	return true;

  03b73	b8 01 00 00 00	 mov	 eax, 1
$LN27@CheckObsta:

; 1567 : }

  03b78	83 c4 0c	 add	 esp, 12			; 0000000cH
  03b7b	3b ec		 cmp	 ebp, esp
  03b7d	e8 00 00 00 00	 call	 __RTC_CheckEsp
  03b82	8b e5		 mov	 esp, ebp
  03b84	5d		 pop	 ebp
  03b85	c2 0c 00	 ret	 12			; 0000000cH
?CheckObstacle@KRegion@@QAEHHHH@Z ENDP			; KRegion::CheckObstacle
_TEXT	ENDS
PUBLIC	?GetScriptIDByIndex@KRegion@@QAEKK@Z		; KRegion::GetScriptIDByIndex
; Function compile flags: /Odtp /RTCsu
_TEXT	SEGMENT
_this$ = -4						; size = 4
_dwIndex$ = 8						; size = 4
?GetScriptIDByIndex@KRegion@@QAEKK@Z PROC		; KRegion::GetScriptIDByIndex
; _this$ = ecx

; 1571 : {

  03b90	55		 push	 ebp
  03b91	8b ec		 mov	 ebp, esp
  03b93	51		 push	 ecx
  03b94	56		 push	 esi
  03b95	c7 45 fc cc cc
	cc cc		 mov	 DWORD PTR [ebp-4], -858993460 ; ccccccccH
  03b9c	89 4d fc	 mov	 DWORD PTR _this$[ebp], ecx

; 1572 :     assert(m_pdwScriptList);

  03b9f	8b 45 fc	 mov	 eax, DWORD PTR _this$[ebp]
  03ba2	83 78 20 00	 cmp	 DWORD PTR [eax+32], 0
  03ba6	75 21		 jne	 SHORT $LN4@GetScriptI
  03ba8	8b f4		 mov	 esi, esp
  03baa	68 24 06 00 00	 push	 1572			; 00000624H
  03baf	68 00 00 00 00	 push	 OFFSET $SG178130
  03bb4	68 00 00 00 00	 push	 OFFSET $SG178131
  03bb9	ff 15 00 00 00
	00		 call	 DWORD PTR __imp___wassert
  03bbf	83 c4 0c	 add	 esp, 12			; 0000000cH
  03bc2	3b f4		 cmp	 esi, esp
  03bc4	e8 00 00 00 00	 call	 __RTC_CheckEsp
$LN4@GetScriptI:

; 1573 : 
; 1574 : 	if (dwIndex < SCRIPT_COUNT_PER_REGION)

  03bc9	83 7d 08 10	 cmp	 DWORD PTR _dwIndex$[ebp], 16 ; 00000010H
  03bcd	73 0e		 jae	 SHORT $LN1@GetScriptI

; 1575 :     {
; 1576 : 	    return m_pdwScriptList[dwIndex];

  03bcf	8b 55 fc	 mov	 edx, DWORD PTR _this$[ebp]
  03bd2	8b 42 20	 mov	 eax, DWORD PTR [edx+32]
  03bd5	8b 4d 08	 mov	 ecx, DWORD PTR _dwIndex$[ebp]
  03bd8	8b 04 88	 mov	 eax, DWORD PTR [eax+ecx*4]
  03bdb	eb 02		 jmp	 SHORT $LN2@GetScriptI
$LN1@GetScriptI:

; 1577 :     }
; 1578 : 
; 1579 :     return 0;

  03bdd	33 c0		 xor	 eax, eax
$LN2@GetScriptI:

; 1580 : }

  03bdf	5e		 pop	 esi
  03be0	83 c4 04	 add	 esp, 4
  03be3	3b ec		 cmp	 ebp, esp
  03be5	e8 00 00 00 00	 call	 __RTC_CheckEsp
  03bea	8b e5		 mov	 esp, ebp
  03bec	5d		 pop	 ebp
  03bed	c2 04 00	 ret	 4
?GetScriptIDByIndex@KRegion@@QAEKK@Z ENDP		; KRegion::GetScriptIDByIndex
_TEXT	ENDS
PUBLIC	?SetScriptID@KRegion@@QAEHPAUKCell@@K@Z		; KRegion::SetScriptID
; Function compile flags: /Odtp /RTCsu
_TEXT	SEGMENT
_nInsertIndex$ = -12					; size = 4
_nScriptIndex$ = -8					; size = 4
_this$ = -4						; size = 4
_pCell$ = 8						; size = 4
_dwScriptID$ = 12					; size = 4
?SetScriptID@KRegion@@QAEHPAUKCell@@K@Z PROC		; KRegion::SetScriptID
; _this$ = ecx

; 1583 : {

  03bf0	55		 push	 ebp
  03bf1	8b ec		 mov	 ebp, esp
  03bf3	83 ec 0c	 sub	 esp, 12			; 0000000cH
  03bf6	56		 push	 esi
  03bf7	c7 45 f4 cc cc
	cc cc		 mov	 DWORD PTR [ebp-12], -858993460 ; ccccccccH
  03bfe	c7 45 f8 cc cc
	cc cc		 mov	 DWORD PTR [ebp-8], -858993460 ; ccccccccH
  03c05	c7 45 fc cc cc
	cc cc		 mov	 DWORD PTR [ebp-4], -858993460 ; ccccccccH
  03c0c	89 4d fc	 mov	 DWORD PTR _this$[ebp], ecx

; 1584 : 	assert(pCell);

  03c0f	83 7d 08 00	 cmp	 DWORD PTR _pCell$[ebp], 0
  03c13	75 21		 jne	 SHORT $LN17@SetScriptI
  03c15	8b f4		 mov	 esi, esp
  03c17	68 30 06 00 00	 push	 1584			; 00000630H
  03c1c	68 00 00 00 00	 push	 OFFSET $SG178139
  03c21	68 00 00 00 00	 push	 OFFSET $SG178140
  03c26	ff 15 00 00 00
	00		 call	 DWORD PTR __imp___wassert
  03c2c	83 c4 0c	 add	 esp, 12			; 0000000cH
  03c2f	3b f4		 cmp	 esi, esp
  03c31	e8 00 00 00 00	 call	 __RTC_CheckEsp
$LN17@SetScriptI:

; 1585 : 
; 1586 : 	int nScriptIndex = 1;

  03c36	c7 45 f8 01 00
	00 00		 mov	 DWORD PTR _nScriptIndex$[ebp], 1

; 1587 : 	int nInsertIndex = 0;

  03c3d	c7 45 f4 00 00
	00 00		 mov	 DWORD PTR _nInsertIndex$[ebp], 0

; 1588 : 
; 1589 : 	if (!dwScriptID)

  03c44	83 7d 0c 00	 cmp	 DWORD PTR _dwScriptID$[ebp], 0
  03c48	75 1a		 jne	 SHORT $LN14@SetScriptI

; 1590 : 	{
; 1591 : 		pCell->m_BaseInfo.dwScriptIndex = 0;

  03c4a	8b 4d 08	 mov	 ecx, DWORD PTR _pCell$[ebp]
  03c4d	8b 11		 mov	 edx, DWORD PTR [ecx]
  03c4f	81 e2 ff ff 7f
	f8		 and	 edx, -125829121		; f87fffffH
  03c55	8b 45 08	 mov	 eax, DWORD PTR _pCell$[ebp]
  03c58	89 10		 mov	 DWORD PTR [eax], edx
  03c5a	e9 cc 00 00 00	 jmp	 $Exit1$178144

; 1592 : 		goto Exit1;

  03c5f	e9 c7 00 00 00	 jmp	 $Exit1$178144
$LN14@SetScriptI:

; 1593 : 	}

  03c64	eb 09		 jmp	 SHORT $LN12@SetScriptI
$LN11@SetScriptI:

; 1594 : 
; 1595 : 	for (; nScriptIndex < SCRIPT_COUNT_PER_REGION; nScriptIndex++)

  03c66	8b 4d f8	 mov	 ecx, DWORD PTR _nScriptIndex$[ebp]
  03c69	83 c1 01	 add	 ecx, 1
  03c6c	89 4d f8	 mov	 DWORD PTR _nScriptIndex$[ebp], ecx
$LN12@SetScriptI:
  03c6f	83 7d f8 10	 cmp	 DWORD PTR _nScriptIndex$[ebp], 16 ; 00000010H
  03c73	7d 4b		 jge	 SHORT $LN10@SetScriptI

; 1596 : 	{
; 1597 : 		if (m_pdwScriptList[nScriptIndex] == dwScriptID)

  03c75	8b 55 fc	 mov	 edx, DWORD PTR _this$[ebp]
  03c78	8b 42 20	 mov	 eax, DWORD PTR [edx+32]
  03c7b	8b 4d f8	 mov	 ecx, DWORD PTR _nScriptIndex$[ebp]
  03c7e	8b 14 88	 mov	 edx, DWORD PTR [eax+ecx*4]
  03c81	3b 55 0c	 cmp	 edx, DWORD PTR _dwScriptID$[ebp]
  03c84	75 1d		 jne	 SHORT $LN9@SetScriptI

; 1598 : 		{
; 1599 : 			pCell->m_BaseInfo.dwScriptIndex = nScriptIndex;

  03c86	8b 45 f8	 mov	 eax, DWORD PTR _nScriptIndex$[ebp]
  03c89	83 e0 0f	 and	 eax, 15			; 0000000fH
  03c8c	c1 e0 17	 shl	 eax, 23			; 00000017H
  03c8f	8b 4d 08	 mov	 ecx, DWORD PTR _pCell$[ebp]
  03c92	8b 11		 mov	 edx, DWORD PTR [ecx]
  03c94	81 e2 ff ff 7f
	f8		 and	 edx, -125829121		; f87fffffH
  03c9a	0b d0		 or	 edx, eax
  03c9c	8b 45 08	 mov	 eax, DWORD PTR _pCell$[ebp]
  03c9f	89 10		 mov	 DWORD PTR [eax], edx

; 1600 : 			break;

  03ca1	eb 1d		 jmp	 SHORT $LN10@SetScriptI
$LN9@SetScriptI:

; 1601 : 		}
; 1602 : 		if (nInsertIndex == 0 && m_pdwScriptList[nScriptIndex] == 0)

  03ca3	83 7d f4 00	 cmp	 DWORD PTR _nInsertIndex$[ebp], 0
  03ca7	75 15		 jne	 SHORT $LN8@SetScriptI
  03ca9	8b 4d fc	 mov	 ecx, DWORD PTR _this$[ebp]
  03cac	8b 51 20	 mov	 edx, DWORD PTR [ecx+32]
  03caf	8b 45 f8	 mov	 eax, DWORD PTR _nScriptIndex$[ebp]
  03cb2	83 3c 82 00	 cmp	 DWORD PTR [edx+eax*4], 0
  03cb6	75 06		 jne	 SHORT $LN8@SetScriptI

; 1603 : 		{
; 1604 : 			nInsertIndex = nScriptIndex;

  03cb8	8b 4d f8	 mov	 ecx, DWORD PTR _nScriptIndex$[ebp]
  03cbb	89 4d f4	 mov	 DWORD PTR _nInsertIndex$[ebp], ecx
$LN8@SetScriptI:

; 1605 : 		}
; 1606 : 	}

  03cbe	eb a6		 jmp	 SHORT $LN11@SetScriptI
$LN10@SetScriptI:

; 1607 : 
; 1608 : 	if (nScriptIndex == SCRIPT_COUNT_PER_REGION)

  03cc0	83 7d f8 10	 cmp	 DWORD PTR _nScriptIndex$[ebp], 16 ; 00000010H
  03cc4	75 65		 jne	 SHORT $Exit1$178144
$LN6@SetScriptI:

; 1609 : 	{
; 1610 : 		KGLOG_PROCESS_ERROR(nInsertIndex > 0 && nInsertIndex < SCRIPT_COUNT_PER_REGION);

  03cc6	83 7d f4 00	 cmp	 DWORD PTR _nInsertIndex$[ebp], 0
  03cca	7e 06		 jle	 SHORT $LN2@SetScriptI
  03ccc	83 7d f4 10	 cmp	 DWORD PTR _nInsertIndex$[ebp], 16 ; 00000010H
  03cd0	7c 2c		 jl	 SHORT $LN5@SetScriptI
$LN2@SetScriptI:
  03cd2	8b f4		 mov	 esi, esp
  03cd4	68 00 00 00 00	 push	 OFFSET $SG178157
  03cd9	68 4a 06 00 00	 push	 1610			; 0000064aH
  03cde	68 00 00 00 00	 push	 OFFSET $SG178158
  03ce3	68 00 00 00 00	 push	 OFFSET $SG178159
  03ce8	6a 07		 push	 7
  03cea	ff 15 00 00 00
	00		 call	 DWORD PTR __imp_?KGLogPrintf@@YAHW4KGLOG_PRIORITY@@QBDZZ
  03cf0	83 c4 14	 add	 esp, 20			; 00000014H
  03cf3	3b f4		 cmp	 esi, esp
  03cf5	e8 00 00 00 00	 call	 __RTC_CheckEsp
  03cfa	eb 36		 jmp	 SHORT $Exit0$178160
  03cfc	eb 34		 jmp	 SHORT $Exit0$178160
$LN5@SetScriptI:
  03cfe	33 d2		 xor	 edx, edx
  03d00	75 c4		 jne	 SHORT $LN6@SetScriptI

; 1611 : 		m_pdwScriptList[nInsertIndex] = dwScriptID;

  03d02	8b 45 fc	 mov	 eax, DWORD PTR _this$[ebp]
  03d05	8b 48 20	 mov	 ecx, DWORD PTR [eax+32]
  03d08	8b 55 f4	 mov	 edx, DWORD PTR _nInsertIndex$[ebp]
  03d0b	8b 45 0c	 mov	 eax, DWORD PTR _dwScriptID$[ebp]
  03d0e	89 04 91	 mov	 DWORD PTR [ecx+edx*4], eax

; 1612 : 		pCell->m_BaseInfo.dwScriptIndex = nInsertIndex;

  03d11	8b 4d f4	 mov	 ecx, DWORD PTR _nInsertIndex$[ebp]
  03d14	83 e1 0f	 and	 ecx, 15			; 0000000fH
  03d17	c1 e1 17	 shl	 ecx, 23			; 00000017H
  03d1a	8b 55 08	 mov	 edx, DWORD PTR _pCell$[ebp]
  03d1d	8b 02		 mov	 eax, DWORD PTR [edx]
  03d1f	25 ff ff 7f f8	 and	 eax, -125829121		; f87fffffH
  03d24	0b c1		 or	 eax, ecx
  03d26	8b 4d 08	 mov	 ecx, DWORD PTR _pCell$[ebp]
  03d29	89 01		 mov	 DWORD PTR [ecx], eax
$Exit1$178144:

; 1613 : 	}
; 1614 : 
; 1615 : Exit1:
; 1616 : 
; 1617 : 	return true;

  03d2b	b8 01 00 00 00	 mov	 eax, 1
  03d30	eb 02		 jmp	 SHORT $LN15@SetScriptI
$Exit0$178160:

; 1618 : 
; 1619 : Exit0:
; 1620 : 
; 1621 : 	return false;

  03d32	33 c0		 xor	 eax, eax
$LN15@SetScriptI:

; 1622 : }

  03d34	5e		 pop	 esi
  03d35	83 c4 0c	 add	 esp, 12			; 0000000cH
  03d38	3b ec		 cmp	 ebp, esp
  03d3a	e8 00 00 00 00	 call	 __RTC_CheckEsp
  03d3f	8b e5		 mov	 esp, ebp
  03d41	5d		 pop	 ebp
  03d42	c2 08 00	 ret	 8
?SetScriptID@KRegion@@QAEHPAUKCell@@K@Z ENDP		; KRegion::SetScriptID
_TEXT	ENDS
PUBLIC	?RecycleScriptIndex@KRegion@@QAEHXZ		; KRegion::RecycleScriptIndex
; Function compile flags: /Odtp /RTCsu
_TEXT	SEGMENT
_i$178183 = -100					; size = 4
_nIndex$178179 = -96					; size = 4
_pCell$178175 = -92					; size = 4
_nCellX$178171 = -88					; size = 4
_nCellY$178167 = -84					; size = 4
_nScriptRefCount$ = -76					; size = 64
_nResult$ = -8						; size = 4
_this$ = -4						; size = 4
?RecycleScriptIndex@KRegion@@QAEHXZ PROC		; KRegion::RecycleScriptIndex
; _this$ = ecx

; 1625 : {

  03d50	55		 push	 ebp
  03d51	8b ec		 mov	 ebp, esp
  03d53	83 ec 64	 sub	 esp, 100		; 00000064H
  03d56	56		 push	 esi
  03d57	57		 push	 edi
  03d58	51		 push	 ecx
  03d59	8d 7d 9c	 lea	 edi, DWORD PTR [ebp-100]
  03d5c	b9 19 00 00 00	 mov	 ecx, 25			; 00000019H
  03d61	b8 cc cc cc cc	 mov	 eax, -858993460		; ccccccccH
  03d66	f3 ab		 rep stosd
  03d68	59		 pop	 ecx
  03d69	89 4d fc	 mov	 DWORD PTR _this$[ebp], ecx

; 1626 : 	int nResult = 0;

  03d6c	c7 45 f8 00 00
	00 00		 mov	 DWORD PTR _nResult$[ebp], 0

; 1627 : 	int nScriptRefCount[SCRIPT_COUNT_PER_REGION];
; 1628 : 
; 1629 : 	memset(nScriptRefCount, 0, sizeof(nScriptRefCount));

  03d73	6a 40		 push	 64			; 00000040H
  03d75	6a 00		 push	 0
  03d77	8d 45 b4	 lea	 eax, DWORD PTR _nScriptRefCount$[ebp]
  03d7a	50		 push	 eax
  03d7b	e8 00 00 00 00	 call	 _memset
  03d80	83 c4 0c	 add	 esp, 12			; 0000000cH

; 1630 : 
; 1631 :     // 
; 1632 : 	for (int nCellY = 0; nCellY < REGION_GRID_HEIGHT; nCellY++)

  03d83	c7 45 ac 00 00
	00 00		 mov	 DWORD PTR _nCellY$178167[ebp], 0
  03d8a	eb 09		 jmp	 SHORT $LN13@RecycleScr
$LN12@RecycleScr:
  03d8c	8b 4d ac	 mov	 ecx, DWORD PTR _nCellY$178167[ebp]
  03d8f	83 c1 01	 add	 ecx, 1
  03d92	89 4d ac	 mov	 DWORD PTR _nCellY$178167[ebp], ecx
$LN13@RecycleScr:
  03d95	83 7d ac 40	 cmp	 DWORD PTR _nCellY$178167[ebp], 64 ; 00000040H
  03d99	0f 8d 8b 00 00
	00		 jge	 $LN11@RecycleScr

; 1633 : 	{
; 1634 : 		for (int nCellX = 0; nCellX < REGION_GRID_WIDTH; nCellX++)

  03d9f	c7 45 a8 00 00
	00 00		 mov	 DWORD PTR _nCellX$178171[ebp], 0
  03da6	eb 09		 jmp	 SHORT $LN10@RecycleScr
$LN9@RecycleScr:
  03da8	8b 55 a8	 mov	 edx, DWORD PTR _nCellX$178171[ebp]
  03dab	83 c2 01	 add	 edx, 1
  03dae	89 55 a8	 mov	 DWORD PTR _nCellX$178171[ebp], edx
$LN10@RecycleScr:
  03db1	83 7d a8 40	 cmp	 DWORD PTR _nCellX$178171[ebp], 64 ; 00000040H
  03db5	7d 6e		 jge	 SHORT $LN8@RecycleScr

; 1635 : 		{
; 1636 :             KCell* pCell = GetLowestObstacle(nCellX, nCellY);

  03db7	8b 45 ac	 mov	 eax, DWORD PTR _nCellY$178167[ebp]
  03dba	50		 push	 eax
  03dbb	8b 4d a8	 mov	 ecx, DWORD PTR _nCellX$178171[ebp]
  03dbe	51		 push	 ecx
  03dbf	8b 4d fc	 mov	 ecx, DWORD PTR _this$[ebp]
  03dc2	e8 00 00 00 00	 call	 ?GetLowestObstacle@KRegion@@QAEPAUKCell@@HH@Z ; KRegion::GetLowestObstacle
  03dc7	89 45 a4	 mov	 DWORD PTR _pCell$178175[ebp], eax
$LN7@RecycleScr:

; 1637 :             while (pCell)

  03dca	83 7d a4 00	 cmp	 DWORD PTR _pCell$178175[ebp], 0
  03dce	74 53		 je	 SHORT $LN6@RecycleScr

; 1638 :             {
; 1639 :                 int nIndex = pCell->m_BaseInfo.dwScriptIndex;

  03dd0	8b 55 a4	 mov	 edx, DWORD PTR _pCell$178175[ebp]
  03dd3	8b 02		 mov	 eax, DWORD PTR [edx]
  03dd5	c1 e8 17	 shr	 eax, 23			; 00000017H
  03dd8	83 e0 0f	 and	 eax, 15			; 0000000fH
  03ddb	89 45 a0	 mov	 DWORD PTR _nIndex$178179[ebp], eax

; 1640 :                 assert(nIndex >= 0 && nIndex < SCRIPT_COUNT_PER_REGION);

  03dde	7c 06		 jl	 SHORT $LN16@RecycleScr
  03de0	83 7d a0 10	 cmp	 DWORD PTR _nIndex$178179[ebp], 16 ; 00000010H
  03de4	7c 21		 jl	 SHORT $LN17@RecycleScr
$LN16@RecycleScr:
  03de6	8b f4		 mov	 esi, esp
  03de8	68 68 06 00 00	 push	 1640			; 00000668H
  03ded	68 00 00 00 00	 push	 OFFSET $SG178181
  03df2	68 00 00 00 00	 push	 OFFSET $SG178182
  03df7	ff 15 00 00 00
	00		 call	 DWORD PTR __imp___wassert
  03dfd	83 c4 0c	 add	 esp, 12			; 0000000cH
  03e00	3b f4		 cmp	 esi, esp
  03e02	e8 00 00 00 00	 call	 __RTC_CheckEsp
$LN17@RecycleScr:

; 1641 : 			    nScriptRefCount[nIndex]++;

  03e07	8b 55 a0	 mov	 edx, DWORD PTR _nIndex$178179[ebp]
  03e0a	8b 44 95 b4	 mov	 eax, DWORD PTR _nScriptRefCount$[ebp+edx*4]
  03e0e	83 c0 01	 add	 eax, 1
  03e11	8b 4d a0	 mov	 ecx, DWORD PTR _nIndex$178179[ebp]
  03e14	89 44 8d b4	 mov	 DWORD PTR _nScriptRefCount$[ebp+ecx*4], eax

; 1642 :                 pCell = pCell->m_pNext;

  03e18	8b 55 a4	 mov	 edx, DWORD PTR _pCell$178175[ebp]
  03e1b	8b 42 08	 mov	 eax, DWORD PTR [edx+8]
  03e1e	89 45 a4	 mov	 DWORD PTR _pCell$178175[ebp], eax

; 1643 :             }

  03e21	eb a7		 jmp	 SHORT $LN7@RecycleScr
$LN6@RecycleScr:

; 1644 : 		}

  03e23	eb 83		 jmp	 SHORT $LN9@RecycleScr
$LN8@RecycleScr:

; 1645 : 	}

  03e25	e9 62 ff ff ff	 jmp	 $LN12@RecycleScr
$LN11@RecycleScr:

; 1646 : 
; 1647 : 	for (int i = 1; i < SCRIPT_COUNT_PER_REGION; i++)

  03e2a	c7 45 9c 01 00
	00 00		 mov	 DWORD PTR _i$178183[ebp], 1
  03e31	eb 09		 jmp	 SHORT $LN5@RecycleScr
$LN4@RecycleScr:
  03e33	8b 4d 9c	 mov	 ecx, DWORD PTR _i$178183[ebp]
  03e36	83 c1 01	 add	 ecx, 1
  03e39	89 4d 9c	 mov	 DWORD PTR _i$178183[ebp], ecx
$LN5@RecycleScr:
  03e3c	83 7d 9c 10	 cmp	 DWORD PTR _i$178183[ebp], 16 ; 00000010H
  03e40	7d 34		 jge	 SHORT $LN3@RecycleScr

; 1648 : 	{
; 1649 : 		if (nScriptRefCount[i] == 0)

  03e42	8b 55 9c	 mov	 edx, DWORD PTR _i$178183[ebp]
  03e45	83 7c 95 b4 00	 cmp	 DWORD PTR _nScriptRefCount$[ebp+edx*4], 0
  03e4a	75 10		 jne	 SHORT $LN2@RecycleScr

; 1650 : 		{
; 1651 : 			m_pdwScriptList[i] = 0;

  03e4c	8b 45 fc	 mov	 eax, DWORD PTR _this$[ebp]
  03e4f	8b 48 20	 mov	 ecx, DWORD PTR [eax+32]
  03e52	8b 55 9c	 mov	 edx, DWORD PTR _i$178183[ebp]
  03e55	c7 04 91 00 00
	00 00		 mov	 DWORD PTR [ecx+edx*4], 0
$LN2@RecycleScr:

; 1652 : 		}
; 1653 : 
; 1654 : 		if (m_pdwScriptList[i] == 0)

  03e5c	8b 45 fc	 mov	 eax, DWORD PTR _this$[ebp]
  03e5f	8b 48 20	 mov	 ecx, DWORD PTR [eax+32]
  03e62	8b 55 9c	 mov	 edx, DWORD PTR _i$178183[ebp]
  03e65	83 3c 91 00	 cmp	 DWORD PTR [ecx+edx*4], 0
  03e69	75 09		 jne	 SHORT $LN1@RecycleScr

; 1655 : 		{
; 1656 : 			nResult++;

  03e6b	8b 45 f8	 mov	 eax, DWORD PTR _nResult$[ebp]
  03e6e	83 c0 01	 add	 eax, 1
  03e71	89 45 f8	 mov	 DWORD PTR _nResult$[ebp], eax
$LN1@RecycleScr:

; 1657 : 		}	
; 1658 : 	}

  03e74	eb bd		 jmp	 SHORT $LN4@RecycleScr
$LN3@RecycleScr:

; 1659 : 
; 1660 : 	return nResult;

  03e76	8b 45 f8	 mov	 eax, DWORD PTR _nResult$[ebp]

; 1661 : }

  03e79	52		 push	 edx
  03e7a	8b cd		 mov	 ecx, ebp
  03e7c	50		 push	 eax
  03e7d	8d 15 00 00 00
	00		 lea	 edx, DWORD PTR $LN20@RecycleScr
  03e83	e8 00 00 00 00	 call	 @_RTC_CheckStackVars@8
  03e88	58		 pop	 eax
  03e89	5a		 pop	 edx
  03e8a	5f		 pop	 edi
  03e8b	5e		 pop	 esi
  03e8c	83 c4 64	 add	 esp, 100		; 00000064H
  03e8f	3b ec		 cmp	 ebp, esp
  03e91	e8 00 00 00 00	 call	 __RTC_CheckEsp
  03e96	8b e5		 mov	 esp, ebp
  03e98	5d		 pop	 ebp
  03e99	c3		 ret	 0
  03e9a	8b ff		 npad	 2
$LN20@RecycleScr:
  03e9c	01 00 00 00	 DD	 1
  03ea0	00 00 00 00	 DD	 $LN19@RecycleScr
$LN19@RecycleScr:
  03ea4	b4 ff ff ff	 DD	 -76			; ffffffb4H
  03ea8	40 00 00 00	 DD	 64			; 00000040H
  03eac	00 00 00 00	 DD	 $LN18@RecycleScr
$LN18@RecycleScr:
  03eb0	6e		 DB	 110			; 0000006eH
  03eb1	53		 DB	 83			; 00000053H
  03eb2	63		 DB	 99			; 00000063H
  03eb3	72		 DB	 114			; 00000072H
  03eb4	69		 DB	 105			; 00000069H
  03eb5	70		 DB	 112			; 00000070H
  03eb6	74		 DB	 116			; 00000074H
  03eb7	52		 DB	 82			; 00000052H
  03eb8	65		 DB	 101			; 00000065H
  03eb9	66		 DB	 102			; 00000066H
  03eba	43		 DB	 67			; 00000043H
  03ebb	6f		 DB	 111			; 0000006fH
  03ebc	75		 DB	 117			; 00000075H
  03ebd	6e		 DB	 110			; 0000006eH
  03ebe	74		 DB	 116			; 00000074H
  03ebf	00		 DB	 0
?RecycleScriptIndex@KRegion@@QAEHXZ ENDP		; KRegion::RecycleScriptIndex
_TEXT	ENDS
PUBLIC	?ClearAllScript@KRegion@@QAEHXZ			; KRegion::ClearAllScript
; Function compile flags: /Odtp /RTCsu
_TEXT	SEGMENT
_pCell$178200 = -16					; size = 4
_nX$178196 = -12					; size = 4
_nY$178192 = -8						; size = 4
_this$ = -4						; size = 4
?ClearAllScript@KRegion@@QAEHXZ PROC			; KRegion::ClearAllScript
; _this$ = ecx

; 1665 : {

  03ec0	55		 push	 ebp
  03ec1	8b ec		 mov	 ebp, esp
  03ec3	83 ec 10	 sub	 esp, 16			; 00000010H
  03ec6	b8 cc cc cc cc	 mov	 eax, -858993460		; ccccccccH
  03ecb	89 45 f0	 mov	 DWORD PTR [ebp-16], eax
  03ece	89 45 f4	 mov	 DWORD PTR [ebp-12], eax
  03ed1	89 45 f8	 mov	 DWORD PTR [ebp-8], eax
  03ed4	89 45 fc	 mov	 DWORD PTR [ebp-4], eax
  03ed7	89 4d fc	 mov	 DWORD PTR _this$[ebp], ecx

; 1666 :     for (int nY = 0; nY < REGION_GRID_HEIGHT; nY++)

  03eda	c7 45 f8 00 00
	00 00		 mov	 DWORD PTR _nY$178192[ebp], 0
  03ee1	eb 09		 jmp	 SHORT $LN8@ClearAllSc
$LN7@ClearAllSc:
  03ee3	8b 45 f8	 mov	 eax, DWORD PTR _nY$178192[ebp]
  03ee6	83 c0 01	 add	 eax, 1
  03ee9	89 45 f8	 mov	 DWORD PTR _nY$178192[ebp], eax
$LN8@ClearAllSc:
  03eec	83 7d f8 40	 cmp	 DWORD PTR _nY$178192[ebp], 64 ; 00000040H
  03ef0	7d 50		 jge	 SHORT $LN6@ClearAllSc

; 1667 :     {
; 1668 :         for (int nX = 0; nX < REGION_GRID_WIDTH; nX++)

  03ef2	c7 45 f4 00 00
	00 00		 mov	 DWORD PTR _nX$178196[ebp], 0
  03ef9	eb 09		 jmp	 SHORT $LN5@ClearAllSc
$LN4@ClearAllSc:
  03efb	8b 4d f4	 mov	 ecx, DWORD PTR _nX$178196[ebp]
  03efe	83 c1 01	 add	 ecx, 1
  03f01	89 4d f4	 mov	 DWORD PTR _nX$178196[ebp], ecx
$LN5@ClearAllSc:
  03f04	83 7d f4 40	 cmp	 DWORD PTR _nX$178196[ebp], 64 ; 00000040H
  03f08	7d 36		 jge	 SHORT $LN3@ClearAllSc

; 1669 :         {
; 1670 :             KCell* pCell = GetLowestObstacle(nX, nY);

  03f0a	8b 55 f8	 mov	 edx, DWORD PTR _nY$178192[ebp]
  03f0d	52		 push	 edx
  03f0e	8b 45 f4	 mov	 eax, DWORD PTR _nX$178196[ebp]
  03f11	50		 push	 eax
  03f12	8b 4d fc	 mov	 ecx, DWORD PTR _this$[ebp]
  03f15	e8 00 00 00 00	 call	 ?GetLowestObstacle@KRegion@@QAEPAUKCell@@HH@Z ; KRegion::GetLowestObstacle
  03f1a	89 45 f0	 mov	 DWORD PTR _pCell$178200[ebp], eax
$LN2@ClearAllSc:

; 1671 : 
; 1672 :             while (pCell)

  03f1d	83 7d f0 00	 cmp	 DWORD PTR _pCell$178200[ebp], 0
  03f21	74 1b		 je	 SHORT $LN1@ClearAllSc

; 1673 :             {
; 1674 :                 pCell->m_BaseInfo.dwScriptIndex = 0;

  03f23	8b 4d f0	 mov	 ecx, DWORD PTR _pCell$178200[ebp]
  03f26	8b 11		 mov	 edx, DWORD PTR [ecx]
  03f28	81 e2 ff ff 7f
	f8		 and	 edx, -125829121		; f87fffffH
  03f2e	8b 45 f0	 mov	 eax, DWORD PTR _pCell$178200[ebp]
  03f31	89 10		 mov	 DWORD PTR [eax], edx

; 1675 :                 pCell = pCell->m_pNext;

  03f33	8b 4d f0	 mov	 ecx, DWORD PTR _pCell$178200[ebp]
  03f36	8b 51 08	 mov	 edx, DWORD PTR [ecx+8]
  03f39	89 55 f0	 mov	 DWORD PTR _pCell$178200[ebp], edx

; 1676 :             }

  03f3c	eb df		 jmp	 SHORT $LN2@ClearAllSc
$LN1@ClearAllSc:

; 1677 :         }

  03f3e	eb bb		 jmp	 SHORT $LN4@ClearAllSc
$LN3@ClearAllSc:

; 1678 :     }

  03f40	eb a1		 jmp	 SHORT $LN7@ClearAllSc
$LN6@ClearAllSc:

; 1679 : 
; 1680 :     memset(m_pdwScriptList, 0, SCRIPT_DATA_SIZE);

  03f42	6a 40		 push	 64			; 00000040H
  03f44	6a 00		 push	 0
  03f46	8b 45 fc	 mov	 eax, DWORD PTR _this$[ebp]
  03f49	8b 48 20	 mov	 ecx, DWORD PTR [eax+32]
  03f4c	51		 push	 ecx
  03f4d	e8 00 00 00 00	 call	 _memset
  03f52	83 c4 0c	 add	 esp, 12			; 0000000cH

; 1681 : 
; 1682 :     return true;

  03f55	b8 01 00 00 00	 mov	 eax, 1

; 1683 : }

  03f5a	83 c4 10	 add	 esp, 16			; 00000010H
  03f5d	3b ec		 cmp	 ebp, esp
  03f5f	e8 00 00 00 00	 call	 __RTC_CheckEsp
  03f64	8b e5		 mov	 esp, ebp
  03f66	5d		 pop	 ebp
  03f67	c3		 ret	 0
?ClearAllScript@KRegion@@QAEHXZ ENDP			; KRegion::ClearAllScript
_TEXT	ENDS
PUBLIC	?ClearScriptSpecial@KRegion@@QAEHK@Z		; KRegion::ClearScriptSpecial
; Function compile flags: /Odtp /RTCsu
_TEXT	SEGMENT
_pCell$178237 = -28					; size = 4
_nX$178233 = -24					; size = 4
_nY$178229 = -20					; size = 4
_i$178217 = -16						; size = 4
_dwIndex$ = -12						; size = 4
_bResult$ = -8						; size = 4
_this$ = -4						; size = 4
_dwScriptID$ = 8					; size = 4
?ClearScriptSpecial@KRegion@@QAEHK@Z PROC		; KRegion::ClearScriptSpecial
; _this$ = ecx

; 1686 : {

  03f70	55		 push	 ebp
  03f71	8b ec		 mov	 ebp, esp
  03f73	83 ec 1c	 sub	 esp, 28			; 0000001cH
  03f76	b8 cc cc cc cc	 mov	 eax, -858993460		; ccccccccH
  03f7b	89 45 e4	 mov	 DWORD PTR [ebp-28], eax
  03f7e	89 45 e8	 mov	 DWORD PTR [ebp-24], eax
  03f81	89 45 ec	 mov	 DWORD PTR [ebp-20], eax
  03f84	89 45 f0	 mov	 DWORD PTR [ebp-16], eax
  03f87	89 45 f4	 mov	 DWORD PTR [ebp-12], eax
  03f8a	89 45 f8	 mov	 DWORD PTR [ebp-8], eax
  03f8d	89 45 fc	 mov	 DWORD PTR [ebp-4], eax
  03f90	89 4d fc	 mov	 DWORD PTR _this$[ebp], ecx

; 1687 :     BOOL    bResult     = false;    

  03f93	c7 45 f8 00 00
	00 00		 mov	 DWORD PTR _bResult$[ebp], 0

; 1688 :     DWORD   dwIndex     = 0;

  03f9a	c7 45 f4 00 00
	00 00		 mov	 DWORD PTR _dwIndex$[ebp], 0
$LN24@ClearScrip:

; 1689 : 
; 1690 :     KG_PROCESS_ERROR(dwScriptID != 0);

  03fa1	83 7d 08 00	 cmp	 DWORD PTR _dwScriptID$[ebp], 0
  03fa5	75 0a		 jne	 SHORT $LN23@ClearScrip
  03fa7	e9 e4 00 00 00	 jmp	 $Exit0$178215
  03fac	e9 df 00 00 00	 jmp	 $Exit0$178215
$LN23@ClearScrip:
  03fb1	33 c0		 xor	 eax, eax
  03fb3	75 ec		 jne	 SHORT $LN24@ClearScrip

; 1691 : 
; 1692 :     for (int i = 1; i < SCRIPT_COUNT_PER_REGION; i++)

  03fb5	c7 45 f0 01 00
	00 00		 mov	 DWORD PTR _i$178217[ebp], 1
  03fbc	eb 09		 jmp	 SHORT $LN19@ClearScrip
$LN18@ClearScrip:
  03fbe	8b 4d f0	 mov	 ecx, DWORD PTR _i$178217[ebp]
  03fc1	83 c1 01	 add	 ecx, 1
  03fc4	89 4d f0	 mov	 DWORD PTR _i$178217[ebp], ecx
$LN19@ClearScrip:
  03fc7	83 7d f0 10	 cmp	 DWORD PTR _i$178217[ebp], 16 ; 00000010H
  03fcb	7d 2b		 jge	 SHORT $LN15@ClearScrip

; 1693 :     {
; 1694 :         if (m_pdwScriptList[i] == dwScriptID)

  03fcd	8b 55 fc	 mov	 edx, DWORD PTR _this$[ebp]
  03fd0	8b 42 20	 mov	 eax, DWORD PTR [edx+32]
  03fd3	8b 4d f0	 mov	 ecx, DWORD PTR _i$178217[ebp]
  03fd6	8b 14 88	 mov	 edx, DWORD PTR [eax+ecx*4]
  03fd9	3b 55 08	 cmp	 edx, DWORD PTR _dwScriptID$[ebp]
  03fdc	75 18		 jne	 SHORT $LN16@ClearScrip

; 1695 :         {
; 1696 :             m_pdwScriptList[i]   = 0;

  03fde	8b 45 fc	 mov	 eax, DWORD PTR _this$[ebp]
  03fe1	8b 48 20	 mov	 ecx, DWORD PTR [eax+32]
  03fe4	8b 55 f0	 mov	 edx, DWORD PTR _i$178217[ebp]
  03fe7	c7 04 91 00 00
	00 00		 mov	 DWORD PTR [ecx+edx*4], 0

; 1697 :             dwIndex             = (DWORD)i;

  03fee	8b 45 f0	 mov	 eax, DWORD PTR _i$178217[ebp]
  03ff1	89 45 f4	 mov	 DWORD PTR _dwIndex$[ebp], eax

; 1698 :             break;

  03ff4	eb 02		 jmp	 SHORT $LN15@ClearScrip
$LN16@ClearScrip:

; 1699 :         }
; 1700 :     }

  03ff6	eb c6		 jmp	 SHORT $LN18@ClearScrip
$LN15@ClearScrip:

; 1701 : 
; 1702 :     KG_PROCESS_ERROR(dwIndex >= 1 && dwIndex < SCRIPT_COUNT_PER_REGION);

  03ff8	83 7d f4 01	 cmp	 DWORD PTR _dwIndex$[ebp], 1
  03ffc	72 06		 jb	 SHORT $LN11@ClearScrip
  03ffe	83 7d f4 10	 cmp	 DWORD PTR _dwIndex$[ebp], 16 ; 00000010H
  04002	72 0a		 jb	 SHORT $LN14@ClearScrip
$LN11@ClearScrip:
  04004	e9 87 00 00 00	 jmp	 $Exit0$178215
  04009	e9 82 00 00 00	 jmp	 $Exit0$178215
$LN14@ClearScrip:
  0400e	33 c9		 xor	 ecx, ecx
  04010	75 e6		 jne	 SHORT $LN15@ClearScrip

; 1703 : 
; 1704 :     for (int nY = 0; nY < REGION_GRID_HEIGHT; nY++)

  04012	c7 45 ec 00 00
	00 00		 mov	 DWORD PTR _nY$178229[ebp], 0
  04019	eb 09		 jmp	 SHORT $LN9@ClearScrip
$LN8@ClearScrip:
  0401b	8b 55 ec	 mov	 edx, DWORD PTR _nY$178229[ebp]
  0401e	83 c2 01	 add	 edx, 1
  04021	89 55 ec	 mov	 DWORD PTR _nY$178229[ebp], edx
$LN9@ClearScrip:
  04024	83 7d ec 40	 cmp	 DWORD PTR _nY$178229[ebp], 64 ; 00000040H
  04028	7d 5f		 jge	 SHORT $LN7@ClearScrip

; 1705 :     {
; 1706 :         for (int nX = 0; nX < REGION_GRID_WIDTH; nX++)

  0402a	c7 45 e8 00 00
	00 00		 mov	 DWORD PTR _nX$178233[ebp], 0
  04031	eb 09		 jmp	 SHORT $LN6@ClearScrip
$LN5@ClearScrip:
  04033	8b 45 e8	 mov	 eax, DWORD PTR _nX$178233[ebp]
  04036	83 c0 01	 add	 eax, 1
  04039	89 45 e8	 mov	 DWORD PTR _nX$178233[ebp], eax
$LN6@ClearScrip:
  0403c	83 7d e8 40	 cmp	 DWORD PTR _nX$178233[ebp], 64 ; 00000040H
  04040	7d 45		 jge	 SHORT $LN4@ClearScrip

; 1707 :         {
; 1708 :             KCell* pCell = GetLowestObstacle(nX, nY);

  04042	8b 4d ec	 mov	 ecx, DWORD PTR _nY$178229[ebp]
  04045	51		 push	 ecx
  04046	8b 55 e8	 mov	 edx, DWORD PTR _nX$178233[ebp]
  04049	52		 push	 edx
  0404a	8b 4d fc	 mov	 ecx, DWORD PTR _this$[ebp]
  0404d	e8 00 00 00 00	 call	 ?GetLowestObstacle@KRegion@@QAEPAUKCell@@HH@Z ; KRegion::GetLowestObstacle
  04052	89 45 e4	 mov	 DWORD PTR _pCell$178237[ebp], eax
$LN3@ClearScrip:

; 1709 : 
; 1710 :             while (pCell)

  04055	83 7d e4 00	 cmp	 DWORD PTR _pCell$178237[ebp], 0
  04059	74 2a		 je	 SHORT $LN2@ClearScrip

; 1711 :             {
; 1712 :                 if (pCell->m_BaseInfo.dwScriptIndex == dwIndex)

  0405b	8b 45 e4	 mov	 eax, DWORD PTR _pCell$178237[ebp]
  0405e	8b 08		 mov	 ecx, DWORD PTR [eax]
  04060	c1 e9 17	 shr	 ecx, 23			; 00000017H
  04063	83 e1 0f	 and	 ecx, 15			; 0000000fH
  04066	3b 4d f4	 cmp	 ecx, DWORD PTR _dwIndex$[ebp]
  04069	75 0f		 jne	 SHORT $LN1@ClearScrip

; 1713 :                 {
; 1714 :                     pCell->m_BaseInfo.dwScriptIndex = 0;

  0406b	8b 55 e4	 mov	 edx, DWORD PTR _pCell$178237[ebp]
  0406e	8b 02		 mov	 eax, DWORD PTR [edx]
  04070	25 ff ff 7f f8	 and	 eax, -125829121		; f87fffffH
  04075	8b 4d e4	 mov	 ecx, DWORD PTR _pCell$178237[ebp]
  04078	89 01		 mov	 DWORD PTR [ecx], eax
$LN1@ClearScrip:

; 1715 :                 }
; 1716 :                 pCell = pCell->m_pNext;

  0407a	8b 55 e4	 mov	 edx, DWORD PTR _pCell$178237[ebp]
  0407d	8b 42 08	 mov	 eax, DWORD PTR [edx+8]
  04080	89 45 e4	 mov	 DWORD PTR _pCell$178237[ebp], eax

; 1717 :             }

  04083	eb d0		 jmp	 SHORT $LN3@ClearScrip
$LN2@ClearScrip:

; 1718 :         }

  04085	eb ac		 jmp	 SHORT $LN5@ClearScrip
$LN4@ClearScrip:

; 1719 :     }

  04087	eb 92		 jmp	 SHORT $LN8@ClearScrip
$LN7@ClearScrip:

; 1720 : 
; 1721 :     bResult = true;

  04089	c7 45 f8 01 00
	00 00		 mov	 DWORD PTR _bResult$[ebp], 1
$Exit0$178215:

; 1722 : Exit0:
; 1723 :     return bResult;

  04090	8b 45 f8	 mov	 eax, DWORD PTR _bResult$[ebp]

; 1724 : }

  04093	83 c4 1c	 add	 esp, 28			; 0000001cH
  04096	3b ec		 cmp	 ebp, esp
  04098	e8 00 00 00 00	 call	 __RTC_CheckEsp
  0409d	8b e5		 mov	 esp, ebp
  0409f	5d		 pop	 ebp
  040a0	c2 04 00	 ret	 4
?ClearScriptSpecial@KRegion@@QAEHK@Z ENDP		; KRegion::ClearScriptSpecial
_TEXT	ENDS
PUBLIC	?AddTail@KList@@QAEXPAVKNode@@@Z		; KList::AddTail
PUBLIC	?AddNpc@KRegion@@QAEHPAVKNpc@@@Z		; KRegion::AddNpc
; Function compile flags: /Odtp /RTCsu
_TEXT	SEGMENT
_nRelativeZ$ = -24					; size = 4
_pCell$ = -16						; size = 4
_bRetCode$ = -12					; size = 4
_bResult$ = -8						; size = 4
_this$ = -4						; size = 4
_pNpc$ = 8						; size = 4
?AddNpc@KRegion@@QAEHPAVKNpc@@@Z PROC			; KRegion::AddNpc
; _this$ = ecx

; 1728 : {

  040b0	55		 push	 ebp
  040b1	8b ec		 mov	 ebp, esp
  040b3	83 ec 1c	 sub	 esp, 28			; 0000001cH
  040b6	56		 push	 esi
  040b7	b8 cc cc cc cc	 mov	 eax, -858993460		; ccccccccH
  040bc	89 45 e4	 mov	 DWORD PTR [ebp-28], eax
  040bf	89 45 e8	 mov	 DWORD PTR [ebp-24], eax
  040c2	89 45 ec	 mov	 DWORD PTR [ebp-20], eax
  040c5	89 45 f0	 mov	 DWORD PTR [ebp-16], eax
  040c8	89 45 f4	 mov	 DWORD PTR [ebp-12], eax
  040cb	89 45 f8	 mov	 DWORD PTR [ebp-8], eax
  040ce	89 45 fc	 mov	 DWORD PTR [ebp-4], eax
  040d1	89 4d fc	 mov	 DWORD PTR _this$[ebp], ecx

; 1729 :     BOOL    bResult     = false;

  040d4	c7 45 f8 00 00
	00 00		 mov	 DWORD PTR _bResult$[ebp], 0

; 1730 : 	BOOL    bRetCode    = false;

  040db	c7 45 f4 00 00
	00 00		 mov	 DWORD PTR _bRetCode$[ebp], 0

; 1731 :     KCell*  pCell       = NULL;

  040e2	c7 45 f0 00 00
	00 00		 mov	 DWORD PTR _pCell$[ebp], 0

; 1732 :     int     nRelativeZ  = 0;

  040e9	c7 45 e8 00 00
	00 00		 mov	 DWORD PTR _nRelativeZ$[ebp], 0

; 1733 : 
; 1734 :     assert(IS_NPC(pNpc->m_dwID));

  040f0	8b 45 08	 mov	 eax, DWORD PTR _pNpc$[ebp]
  040f3	8b 48 04	 mov	 ecx, DWORD PTR [eax+4]
  040f6	81 e1 00 00 00
	40		 and	 ecx, 1073741824		; 40000000H
  040fc	75 21		 jne	 SHORT $LN10@AddNpc
  040fe	8b f4		 mov	 esi, esp
  04100	68 c6 06 00 00	 push	 1734			; 000006c6H
  04105	68 00 00 00 00	 push	 OFFSET $SG178251
  0410a	68 00 00 00 00	 push	 OFFSET $SG178252
  0410f	ff 15 00 00 00
	00		 call	 DWORD PTR __imp___wassert
  04115	83 c4 0c	 add	 esp, 12			; 0000000cH
  04118	3b f4		 cmp	 esi, esp
  0411a	e8 00 00 00 00	 call	 __RTC_CheckEsp
$LN10@AddNpc:

; 1735 : 
; 1736 : #ifdef _SERVER
; 1737 : 	if (pNpc->m_bActiveMark || pNpc->m_bFightState || pNpc->m_AIData.nPatrolPathID > 0)

  0411f	8b 45 08	 mov	 eax, DWORD PTR _pNpc$[ebp]
  04122	83 b8 0c 09 00
	00 00		 cmp	 DWORD PTR [eax+2316], 0
  04129	75 18		 jne	 SHORT $LN6@AddNpc
  0412b	8b 4d 08	 mov	 ecx, DWORD PTR _pNpc$[ebp]
  0412e	83 b9 c8 01 00
	00 00		 cmp	 DWORD PTR [ecx+456], 0
  04135	75 0c		 jne	 SHORT $LN6@AddNpc
  04137	8b 55 08	 mov	 edx, DWORD PTR _pNpc$[ebp]
  0413a	83 ba 68 06 00
	00 00		 cmp	 DWORD PTR [edx+1640], 0
  04141	7e 08		 jle	 SHORT $LN7@AddNpc
$LN6@AddNpc:

; 1738 : 	{
; 1739 : 		SetActive();

  04143	8b 4d fc	 mov	 ecx, DWORD PTR _this$[ebp]
  04146	e8 00 00 00 00	 call	 ?SetActive@KRegion@@QAEXXZ ; KRegion::SetActive
$LN7@AddNpc:

; 1740 : 	}
; 1741 : #endif
; 1742 : 	pCell = GetProximalCellForObj(
; 1743 :         pNpc->m_nXCell, pNpc->m_nYCell, pNpc->m_nZ, 
; 1744 :         pNpc->m_nHeight, false, false, 
; 1745 :         &nRelativeZ
; 1746 :     );

  0414b	8d 45 e8	 lea	 eax, DWORD PTR _nRelativeZ$[ebp]
  0414e	50		 push	 eax
  0414f	6a 00		 push	 0
  04151	6a 00		 push	 0
  04153	8b 4d 08	 mov	 ecx, DWORD PTR _pNpc$[ebp]
  04156	8b 51 2c	 mov	 edx, DWORD PTR [ecx+44]
  04159	52		 push	 edx
  0415a	8b 45 08	 mov	 eax, DWORD PTR _pNpc$[ebp]
  0415d	8b 48 10	 mov	 ecx, DWORD PTR [eax+16]
  04160	51		 push	 ecx
  04161	8b 55 08	 mov	 edx, DWORD PTR _pNpc$[ebp]
  04164	8b 42 1c	 mov	 eax, DWORD PTR [edx+28]
  04167	50		 push	 eax
  04168	8b 4d 08	 mov	 ecx, DWORD PTR _pNpc$[ebp]
  0416b	8b 51 18	 mov	 edx, DWORD PTR [ecx+24]
  0416e	52		 push	 edx
  0416f	8b 4d fc	 mov	 ecx, DWORD PTR _this$[ebp]
  04172	e8 00 00 00 00	 call	 ?GetProximalCellForObj@KRegion@@QAEPAUKCell@@HHHHHHPAH@Z ; KRegion::GetProximalCellForObj
  04177	89 45 f0	 mov	 DWORD PTR _pCell$[ebp], eax
$LN5@AddNpc:

; 1747 :     KGLOG_PROCESS_ERROR(pCell);

  0417a	83 7d f0 00	 cmp	 DWORD PTR _pCell$[ebp], 0
  0417e	75 2c		 jne	 SHORT $LN4@AddNpc
  04180	8b f4		 mov	 esi, esp
  04182	68 00 00 00 00	 push	 OFFSET $SG178259
  04187	68 d3 06 00 00	 push	 1747			; 000006d3H
  0418c	68 00 00 00 00	 push	 OFFSET $SG178260
  04191	68 00 00 00 00	 push	 OFFSET $SG178261
  04196	6a 07		 push	 7
  04198	ff 15 00 00 00
	00		 call	 DWORD PTR __imp_?KGLogPrintf@@YAHW4KGLOG_PRIORITY@@QBDZZ
  0419e	83 c4 14	 add	 esp, 20			; 00000014H
  041a1	3b f4		 cmp	 esi, esp
  041a3	e8 00 00 00 00	 call	 __RTC_CheckEsp
  041a8	eb 55		 jmp	 SHORT $Exit0$178262
  041aa	eb 53		 jmp	 SHORT $Exit0$178262
$LN4@AddNpc:
  041ac	33 c0		 xor	 eax, eax
  041ae	75 ca		 jne	 SHORT $LN5@AddNpc

; 1748 : 
; 1749 : 	m_NpcList.AddTail((KNode*)&pNpc->m_RegionObjNode);

  041b0	8b 4d 08	 mov	 ecx, DWORD PTR _pNpc$[ebp]
  041b3	83 c1 48	 add	 ecx, 72			; 00000048H
  041b6	51		 push	 ecx
  041b7	8b 4d fc	 mov	 ecx, DWORD PTR _this$[ebp]
  041ba	83 c1 30	 add	 ecx, 48			; 00000030H
  041bd	e8 00 00 00 00	 call	 ?AddTail@KList@@QAEXPAVKNode@@@Z ; KList::AddTail

; 1750 : 	pNpc->m_pRegion = this;

  041c2	8b 55 08	 mov	 edx, DWORD PTR _pNpc$[ebp]
  041c5	8b 45 fc	 mov	 eax, DWORD PTR _this$[ebp]
  041c8	89 42 40	 mov	 DWORD PTR [edx+64], eax

; 1751 : 
; 1752 :     pNpc->m_nZ = pCell->m_wHighLayer * POINT_PER_ALTITUDE + nRelativeZ;

  041cb	8b 4d f0	 mov	 ecx, DWORD PTR _pCell$[ebp]
  041ce	0f b7 51 06	 movzx	 edx, WORD PTR [ecx+6]
  041d2	c1 e2 06	 shl	 edx, 6
  041d5	03 55 e8	 add	 edx, DWORD PTR _nRelativeZ$[ebp]
  041d8	8b 45 08	 mov	 eax, DWORD PTR _pNpc$[ebp]
  041db	89 50 10	 mov	 DWORD PTR [eax+16], edx

; 1753 : 
; 1754 : 	pNpc->SetCell(pCell);

  041de	8b f4		 mov	 esi, esp
  041e0	8b 4d f0	 mov	 ecx, DWORD PTR _pCell$[ebp]
  041e3	51		 push	 ecx
  041e4	8b 55 08	 mov	 edx, DWORD PTR _pNpc$[ebp]
  041e7	8b 02		 mov	 eax, DWORD PTR [edx]
  041e9	8b 4d 08	 mov	 ecx, DWORD PTR _pNpc$[ebp]
  041ec	8b 50 04	 mov	 edx, DWORD PTR [eax+4]
  041ef	ff d2		 call	 edx
  041f1	3b f4		 cmp	 esi, esp
  041f3	e8 00 00 00 00	 call	 __RTC_CheckEsp

; 1755 : 
; 1756 :     bResult = true;

  041f8	c7 45 f8 01 00
	00 00		 mov	 DWORD PTR _bResult$[ebp], 1
$Exit0$178262:

; 1757 : Exit0:
; 1758 : 	return bResult;

  041ff	8b 45 f8	 mov	 eax, DWORD PTR _bResult$[ebp]

; 1759 : }

  04202	52		 push	 edx
  04203	8b cd		 mov	 ecx, ebp
  04205	50		 push	 eax
  04206	8d 15 00 00 00
	00		 lea	 edx, DWORD PTR $LN13@AddNpc
  0420c	e8 00 00 00 00	 call	 @_RTC_CheckStackVars@8
  04211	58		 pop	 eax
  04212	5a		 pop	 edx
  04213	5e		 pop	 esi
  04214	83 c4 1c	 add	 esp, 28			; 0000001cH
  04217	3b ec		 cmp	 ebp, esp
  04219	e8 00 00 00 00	 call	 __RTC_CheckEsp
  0421e	8b e5		 mov	 esp, ebp
  04220	5d		 pop	 ebp
  04221	c2 04 00	 ret	 4
$LN13@AddNpc:
  04224	01 00 00 00	 DD	 1
  04228	00 00 00 00	 DD	 $LN12@AddNpc
$LN12@AddNpc:
  0422c	e8 ff ff ff	 DD	 -24			; ffffffe8H
  04230	04 00 00 00	 DD	 4
  04234	00 00 00 00	 DD	 $LN11@AddNpc
$LN11@AddNpc:
  04238	6e		 DB	 110			; 0000006eH
  04239	52		 DB	 82			; 00000052H
  0423a	65		 DB	 101			; 00000065H
  0423b	6c		 DB	 108			; 0000006cH
  0423c	61		 DB	 97			; 00000061H
  0423d	74		 DB	 116			; 00000074H
  0423e	69		 DB	 105			; 00000069H
  0423f	76		 DB	 118			; 00000076H
  04240	65		 DB	 101			; 00000065H
  04241	5a		 DB	 90			; 0000005aH
  04242	00		 DB	 0
?AddNpc@KRegion@@QAEHPAVKNpc@@@Z ENDP			; KRegion::AddNpc
_TEXT	ENDS
PUBLIC	?InsertBefore@KNode@@QAEXPAV1@@Z		; KNode::InsertBefore
; Function compile flags: /Odtp /RTCsu
; File d:\code\game\base\include\engine\klist.h
;	COMDAT ?AddTail@KList@@QAEXPAVKNode@@@Z
_TEXT	SEGMENT
_this$ = -4						; size = 4
_pNode$ = 8						; size = 4
?AddTail@KList@@QAEXPAVKNode@@@Z PROC			; KList::AddTail, COMDAT
; _this$ = ecx

; 84   : {

  00000	55		 push	 ebp
  00001	8b ec		 mov	 ebp, esp
  00003	51		 push	 ecx
  00004	c7 45 fc cc cc
	cc cc		 mov	 DWORD PTR [ebp-4], -858993460 ; ccccccccH
  0000b	89 4d fc	 mov	 DWORD PTR _this$[ebp], ecx

; 85   : 	m_ListTail.InsertBefore(pNode);

  0000e	8b 45 08	 mov	 eax, DWORD PTR _pNode$[ebp]
  00011	50		 push	 eax
  00012	8b 4d fc	 mov	 ecx, DWORD PTR _this$[ebp]
  00015	83 c1 0c	 add	 ecx, 12			; 0000000cH
  00018	e8 00 00 00 00	 call	 ?InsertBefore@KNode@@QAEXPAV1@@Z ; KNode::InsertBefore

; 86   : }

  0001d	83 c4 04	 add	 esp, 4
  00020	3b ec		 cmp	 ebp, esp
  00022	e8 00 00 00 00	 call	 __RTC_CheckEsp
  00027	8b e5		 mov	 esp, ebp
  00029	5d		 pop	 ebp
  0002a	c2 04 00	 ret	 4
?AddTail@KList@@QAEXPAVKNode@@@Z ENDP			; KList::AddTail
_TEXT	ENDS
PUBLIC	??_C@_1FC@LFLKAEMJ@?$AAd?$AA?3?$AA?2?$AAc?$AAo?$AAd?$AAe?$AA?2?$AAg?$AAa?$AAm?$AAe?$AA?2?$AAb?$AAa?$AAs?$AAe?$AA?2?$AAi?$AAn?$AAc?$AAl?$AAu?$AAd?$AAe?$AA?2?$AAe?$AAn?$AAg?$AAi?$AAn?$AAe@ ; `string'
PUBLIC	??_C@_0CJ@IPHLFEKJ@d?3?2code?2game?2base?2include?2engine@ ; `string'
EXTRN	__imp___CrtDbgReportW:PROC
EXTRN	__imp__g_AssertFailed:PROC
;	COMDAT ??_C@_1FC@LFLKAEMJ@?$AAd?$AA?3?$AA?2?$AAc?$AAo?$AAd?$AAe?$AA?2?$AAg?$AAa?$AAm?$AAe?$AA?2?$AAb?$AAa?$AAs?$AAe?$AA?2?$AAi?$AAn?$AAc?$AAl?$AAu?$AAd?$AAe?$AA?2?$AAe?$AAn?$AAg?$AAi?$AAn?$AAe@
; File d:\code\game\base\include\engine\knode.h
CONST	SEGMENT
??_C@_1FC@LFLKAEMJ@?$AAd?$AA?3?$AA?2?$AAc?$AAo?$AAd?$AAe?$AA?2?$AAg?$AAa?$AAm?$AAe?$AA?2?$AAb?$AAa?$AAs?$AAe?$AA?2?$AAi?$AAn?$AAc?$AAl?$AAu?$AAd?$AAe?$AA?2?$AAe?$AAn?$AAg?$AAi?$AAn?$AAe@ DB 'd'
	DB	00H, ':', 00H, '\', 00H, 'c', 00H, 'o', 00H, 'd', 00H, 'e', 00H
	DB	'\', 00H, 'g', 00H, 'a', 00H, 'm', 00H, 'e', 00H, '\', 00H, 'b'
	DB	00H, 'a', 00H, 's', 00H, 'e', 00H, '\', 00H, 'i', 00H, 'n', 00H
	DB	'c', 00H, 'l', 00H, 'u', 00H, 'd', 00H, 'e', 00H, '\', 00H, 'e'
	DB	00H, 'n', 00H, 'g', 00H, 'i', 00H, 'n', 00H, 'e', 00H, '\', 00H
	DB	'K', 00H, 'N', 00H, 'o', 00H, 'd', 00H, 'e', 00H, '.', 00H, 'h'
	DB	00H, 00H, 00H				; `string'
CONST	ENDS
;	COMDAT ??_C@_0CJ@IPHLFEKJ@d?3?2code?2game?2base?2include?2engine@
CONST	SEGMENT
??_C@_0CJ@IPHLFEKJ@d?3?2code?2game?2base?2include?2engine@ DB 'd:\code\ga'
	DB	'me\base\include\engine\KNode.h', 00H	; `string'
; Function compile flags: /Odtp /RTCsu
CONST	ENDS
;	COMDAT ?InsertBefore@KNode@@QAEXPAV1@@Z
_TEXT	SEGMENT
_this$ = -4						; size = 4
_pNode$ = 8						; size = 4
?InsertBefore@KNode@@QAEXPAV1@@Z PROC			; KNode::InsertBefore, COMDAT
; _this$ = ecx

; 72   : {

  00000	55		 push	 ebp
  00001	8b ec		 mov	 ebp, esp
  00003	51		 push	 ecx
  00004	56		 push	 esi
  00005	c7 45 fc cc cc
	cc cc		 mov	 DWORD PTR [ebp-4], -858993460 ; ccccccccH
  0000c	89 4d fc	 mov	 DWORD PTR _this$[ebp], ecx

; 73   : 	KASSERT(m_pPrev);

  0000f	8b 45 fc	 mov	 eax, DWORD PTR _this$[ebp]
  00012	83 78 08 00	 cmp	 DWORD PTR [eax+8], 0
  00016	75 19		 jne	 SHORT $LN5@InsertBefo
  00018	8b f4		 mov	 esi, esp
  0001a	6a 49		 push	 73			; 00000049H
  0001c	68 00 00 00 00	 push	 OFFSET ??_C@_0CJ@IPHLFEKJ@d?3?2code?2game?2base?2include?2engine@
  00021	ff 15 00 00 00
	00		 call	 DWORD PTR __imp__g_AssertFailed
  00027	83 c4 08	 add	 esp, 8
  0002a	3b f4		 cmp	 esi, esp
  0002c	e8 00 00 00 00	 call	 __RTC_CheckEsp
$LN5@InsertBefo:

; 74   : 	if (!pNode || !m_pPrev)

  00031	83 7d 08 00	 cmp	 DWORD PTR _pNode$[ebp], 0
  00035	74 09		 je	 SHORT $LN3@InsertBefo
  00037	8b 4d fc	 mov	 ecx, DWORD PTR _this$[ebp]
  0003a	83 79 08 00	 cmp	 DWORD PTR [ecx+8], 0
  0003e	75 02		 jne	 SHORT $LN4@InsertBefo
$LN3@InsertBefo:

; 75   : 		return;

  00040	eb 65		 jmp	 SHORT $LN6@InsertBefo
$LN4@InsertBefo:

; 76   : 
; 77   : 	if(pNode->m_pNext || pNode->m_pPrev)

  00042	8b 55 08	 mov	 edx, DWORD PTR _pNode$[ebp]
  00045	83 7a 04 00	 cmp	 DWORD PTR [edx+4], 0
  00049	75 09		 jne	 SHORT $LN1@InsertBefo
  0004b	8b 45 08	 mov	 eax, DWORD PTR _pNode$[ebp]
  0004e	83 78 08 00	 cmp	 DWORD PTR [eax+8], 0
  00052	74 29		 je	 SHORT $LN2@InsertBefo
$LN1@InsertBefo:

; 78   : 	{
; 79   : 		_ASSERT(0);

  00054	33 c9		 xor	 ecx, ecx
  00056	75 25		 jne	 SHORT $LN2@InsertBefo
  00058	8b f4		 mov	 esi, esp
  0005a	6a 00		 push	 0
  0005c	6a 00		 push	 0
  0005e	6a 4f		 push	 79			; 0000004fH
  00060	68 00 00 00 00	 push	 OFFSET ??_C@_1FC@LFLKAEMJ@?$AAd?$AA?3?$AA?2?$AAc?$AAo?$AAd?$AAe?$AA?2?$AAg?$AAa?$AAm?$AAe?$AA?2?$AAb?$AAa?$AAs?$AAe?$AA?2?$AAi?$AAn?$AAc?$AAl?$AAu?$AAd?$AAe?$AA?2?$AAe?$AAn?$AAg?$AAi?$AAn?$AAe@
  00065	6a 02		 push	 2
  00067	ff 15 00 00 00
	00		 call	 DWORD PTR __imp___CrtDbgReportW
  0006d	83 c4 14	 add	 esp, 20			; 00000014H
  00070	3b f4		 cmp	 esi, esp
  00072	e8 00 00 00 00	 call	 __RTC_CheckEsp
  00077	83 f8 01	 cmp	 eax, 1
  0007a	75 01		 jne	 SHORT $LN2@InsertBefo
  0007c	cc		 int	 3
$LN2@InsertBefo:

; 80   : 	}
; 81   : 
; 82   : 	pNode->m_pPrev = m_pPrev;

  0007d	8b 45 08	 mov	 eax, DWORD PTR _pNode$[ebp]
  00080	8b 4d fc	 mov	 ecx, DWORD PTR _this$[ebp]
  00083	8b 51 08	 mov	 edx, DWORD PTR [ecx+8]
  00086	89 50 08	 mov	 DWORD PTR [eax+8], edx

; 83   : 	pNode->m_pNext = this;

  00089	8b 45 08	 mov	 eax, DWORD PTR _pNode$[ebp]
  0008c	8b 4d fc	 mov	 ecx, DWORD PTR _this$[ebp]
  0008f	89 48 04	 mov	 DWORD PTR [eax+4], ecx

; 84   : 	m_pPrev->m_pNext = pNode;

  00092	8b 55 fc	 mov	 edx, DWORD PTR _this$[ebp]
  00095	8b 42 08	 mov	 eax, DWORD PTR [edx+8]
  00098	8b 4d 08	 mov	 ecx, DWORD PTR _pNode$[ebp]
  0009b	89 48 04	 mov	 DWORD PTR [eax+4], ecx

; 85   : 	m_pPrev = pNode;

  0009e	8b 55 fc	 mov	 edx, DWORD PTR _this$[ebp]
  000a1	8b 45 08	 mov	 eax, DWORD PTR _pNode$[ebp]
  000a4	89 42 08	 mov	 DWORD PTR [edx+8], eax
$LN6@InsertBefo:

; 86   : }

  000a7	5e		 pop	 esi
  000a8	83 c4 04	 add	 esp, 4
  000ab	3b ec		 cmp	 ebp, esp
  000ad	e8 00 00 00 00	 call	 __RTC_CheckEsp
  000b2	8b e5		 mov	 esp, ebp
  000b4	5d		 pop	 ebp
  000b5	c2 04 00	 ret	 4
?InsertBefore@KNode@@QAEXPAV1@@Z ENDP			; KNode::InsertBefore
_TEXT	ENDS
PUBLIC	?AddDoodad@KRegion@@QAEHPAVKDoodad@@@Z		; KRegion::AddDoodad
; Function compile flags: /Odtp /RTCsu
; File d:\code\game\sword3\source\common\so3world\src\kregion.cpp
_TEXT	SEGMENT
_nRelativeZ$ = -24					; size = 4
_pCell$ = -16						; size = 4
_bRetCode$ = -12					; size = 4
_bResult$ = -8						; size = 4
_this$ = -4						; size = 4
_pDoodad$ = 8						; size = 4
?AddDoodad@KRegion@@QAEHPAVKDoodad@@@Z PROC		; KRegion::AddDoodad
; _this$ = ecx

; 1762 : {

  04250	55		 push	 ebp
  04251	8b ec		 mov	 ebp, esp
  04253	83 ec 1c	 sub	 esp, 28			; 0000001cH
  04256	56		 push	 esi
  04257	b8 cc cc cc cc	 mov	 eax, -858993460		; ccccccccH
  0425c	89 45 e4	 mov	 DWORD PTR [ebp-28], eax
  0425f	89 45 e8	 mov	 DWORD PTR [ebp-24], eax
  04262	89 45 ec	 mov	 DWORD PTR [ebp-20], eax
  04265	89 45 f0	 mov	 DWORD PTR [ebp-16], eax
  04268	89 45 f4	 mov	 DWORD PTR [ebp-12], eax
  0426b	89 45 f8	 mov	 DWORD PTR [ebp-8], eax
  0426e	89 45 fc	 mov	 DWORD PTR [ebp-4], eax
  04271	89 4d fc	 mov	 DWORD PTR _this$[ebp], ecx

; 1763 :     BOOL    bResult     = false;

  04274	c7 45 f8 00 00
	00 00		 mov	 DWORD PTR _bResult$[ebp], 0

; 1764 : 	BOOL    bRetCode    = false;

  0427b	c7 45 f4 00 00
	00 00		 mov	 DWORD PTR _bRetCode$[ebp], 0

; 1765 :     KCell*  pCell       = NULL;

  04282	c7 45 f0 00 00
	00 00		 mov	 DWORD PTR _pCell$[ebp], 0

; 1766 :     int     nRelativeZ  = 0;

  04289	c7 45 e8 00 00
	00 00		 mov	 DWORD PTR _nRelativeZ$[ebp], 0

; 1767 : 
; 1768 : 	pCell = GetProximalCellForObj(
; 1769 :         pDoodad->m_nXCell, pDoodad->m_nYCell, pDoodad->m_nZ, 
; 1770 :         pDoodad->m_nHeight, false, false, 
; 1771 :         &nRelativeZ
; 1772 :     );

  04290	8d 45 e8	 lea	 eax, DWORD PTR _nRelativeZ$[ebp]
  04293	50		 push	 eax
  04294	6a 00		 push	 0
  04296	6a 00		 push	 0
  04298	8b 4d 08	 mov	 ecx, DWORD PTR _pDoodad$[ebp]
  0429b	8b 51 2c	 mov	 edx, DWORD PTR [ecx+44]
  0429e	52		 push	 edx
  0429f	8b 45 08	 mov	 eax, DWORD PTR _pDoodad$[ebp]
  042a2	8b 48 10	 mov	 ecx, DWORD PTR [eax+16]
  042a5	51		 push	 ecx
  042a6	8b 55 08	 mov	 edx, DWORD PTR _pDoodad$[ebp]
  042a9	8b 42 1c	 mov	 eax, DWORD PTR [edx+28]
  042ac	50		 push	 eax
  042ad	8b 4d 08	 mov	 ecx, DWORD PTR _pDoodad$[ebp]
  042b0	8b 51 18	 mov	 edx, DWORD PTR [ecx+24]
  042b3	52		 push	 edx
  042b4	8b 4d fc	 mov	 ecx, DWORD PTR _this$[ebp]
  042b7	e8 00 00 00 00	 call	 ?GetProximalCellForObj@KRegion@@QAEPAUKCell@@HHHHHHPAH@Z ; KRegion::GetProximalCellForObj
  042bc	89 45 f0	 mov	 DWORD PTR _pCell$[ebp], eax
$LN5@AddDoodad:

; 1773 :     KGLOG_PROCESS_ERROR(pCell);

  042bf	83 7d f0 00	 cmp	 DWORD PTR _pCell$[ebp], 0
  042c3	75 2c		 jne	 SHORT $LN4@AddDoodad
  042c5	8b f4		 mov	 esi, esp
  042c7	68 00 00 00 00	 push	 OFFSET $SG178277
  042cc	68 ed 06 00 00	 push	 1773			; 000006edH
  042d1	68 00 00 00 00	 push	 OFFSET $SG178278
  042d6	68 00 00 00 00	 push	 OFFSET $SG178279
  042db	6a 07		 push	 7
  042dd	ff 15 00 00 00
	00		 call	 DWORD PTR __imp_?KGLogPrintf@@YAHW4KGLOG_PRIORITY@@QBDZZ
  042e3	83 c4 14	 add	 esp, 20			; 00000014H
  042e6	3b f4		 cmp	 esi, esp
  042e8	e8 00 00 00 00	 call	 __RTC_CheckEsp
  042ed	eb 42		 jmp	 SHORT $Exit0$178280
  042ef	eb 40		 jmp	 SHORT $Exit0$178280
$LN4@AddDoodad:
  042f1	33 c0		 xor	 eax, eax
  042f3	75 ca		 jne	 SHORT $LN5@AddDoodad

; 1774 : 
; 1775 : 	m_DoodadList.AddTail((KNode*)&pDoodad->m_RegionObjNode);

  042f5	8b 4d 08	 mov	 ecx, DWORD PTR _pDoodad$[ebp]
  042f8	83 c1 48	 add	 ecx, 72			; 00000048H
  042fb	51		 push	 ecx
  042fc	8b 4d fc	 mov	 ecx, DWORD PTR _this$[ebp]
  042ff	83 c1 48	 add	 ecx, 72			; 00000048H
  04302	e8 00 00 00 00	 call	 ?AddTail@KList@@QAEXPAVKNode@@@Z ; KList::AddTail

; 1776 : 	pDoodad->m_pRegion = this;

  04307	8b 55 08	 mov	 edx, DWORD PTR _pDoodad$[ebp]
  0430a	8b 45 fc	 mov	 eax, DWORD PTR _this$[ebp]
  0430d	89 42 40	 mov	 DWORD PTR [edx+64], eax

; 1777 : 
; 1778 :     // CELL
; 1779 :     //pDoodad->m_nZ = pCell->m_wHighLayer * POINT_PER_ALTITUDE + nRelativeZ;
; 1780 : 
; 1781 :     pDoodad->SetCell(pCell);

  04310	8b f4		 mov	 esi, esp
  04312	8b 4d f0	 mov	 ecx, DWORD PTR _pCell$[ebp]
  04315	51		 push	 ecx
  04316	8b 55 08	 mov	 edx, DWORD PTR _pDoodad$[ebp]
  04319	8b 02		 mov	 eax, DWORD PTR [edx]
  0431b	8b 4d 08	 mov	 ecx, DWORD PTR _pDoodad$[ebp]
  0431e	8b 50 04	 mov	 edx, DWORD PTR [eax+4]
  04321	ff d2		 call	 edx
  04323	3b f4		 cmp	 esi, esp
  04325	e8 00 00 00 00	 call	 __RTC_CheckEsp

; 1782 :     
; 1783 :     bResult = true;

  0432a	c7 45 f8 01 00
	00 00		 mov	 DWORD PTR _bResult$[ebp], 1
$Exit0$178280:

; 1784 : Exit0:
; 1785 : 	return bResult;

  04331	8b 45 f8	 mov	 eax, DWORD PTR _bResult$[ebp]

; 1786 : }

  04334	52		 push	 edx
  04335	8b cd		 mov	 ecx, ebp
  04337	50		 push	 eax
  04338	8d 15 00 00 00
	00		 lea	 edx, DWORD PTR $LN10@AddDoodad
  0433e	e8 00 00 00 00	 call	 @_RTC_CheckStackVars@8
  04343	58		 pop	 eax
  04344	5a		 pop	 edx
  04345	5e		 pop	 esi
  04346	83 c4 1c	 add	 esp, 28			; 0000001cH
  04349	3b ec		 cmp	 ebp, esp
  0434b	e8 00 00 00 00	 call	 __RTC_CheckEsp
  04350	8b e5		 mov	 esp, ebp
  04352	5d		 pop	 ebp
  04353	c2 04 00	 ret	 4
  04356	8b ff		 npad	 2
$LN10@AddDoodad:
  04358	01 00 00 00	 DD	 1
  0435c	00 00 00 00	 DD	 $LN9@AddDoodad
$LN9@AddDoodad:
  04360	e8 ff ff ff	 DD	 -24			; ffffffe8H
  04364	04 00 00 00	 DD	 4
  04368	00 00 00 00	 DD	 $LN8@AddDoodad
$LN8@AddDoodad:
  0436c	6e		 DB	 110			; 0000006eH
  0436d	52		 DB	 82			; 00000052H
  0436e	65		 DB	 101			; 00000065H
  0436f	6c		 DB	 108			; 0000006cH
  04370	61		 DB	 97			; 00000061H
  04371	74		 DB	 116			; 00000074H
  04372	69		 DB	 105			; 00000069H
  04373	76		 DB	 118			; 00000076H
  04374	65		 DB	 101			; 00000065H
  04375	5a		 DB	 90			; 0000005aH
  04376	00		 DB	 0
?AddDoodad@KRegion@@QAEHPAVKDoodad@@@Z ENDP		; KRegion::AddDoodad
_TEXT	ENDS
PUBLIC	?AddPlayer@KRegion@@QAEHPAVKPlayer@@@Z		; KRegion::AddPlayer
; Function compile flags: /Odtp /RTCsu
_TEXT	SEGMENT
_nRelativeZ$ = -24					; size = 4
_pCell$ = -16						; size = 4
_bRetCode$ = -12					; size = 4
_bResult$ = -8						; size = 4
_this$ = -4						; size = 4
_pPlayer$ = 8						; size = 4
?AddPlayer@KRegion@@QAEHPAVKPlayer@@@Z PROC		; KRegion::AddPlayer
; _this$ = ecx

; 1789 : {

  04380	55		 push	 ebp
  04381	8b ec		 mov	 ebp, esp
  04383	83 ec 1c	 sub	 esp, 28			; 0000001cH
  04386	56		 push	 esi
  04387	b8 cc cc cc cc	 mov	 eax, -858993460		; ccccccccH
  0438c	89 45 e4	 mov	 DWORD PTR [ebp-28], eax
  0438f	89 45 e8	 mov	 DWORD PTR [ebp-24], eax
  04392	89 45 ec	 mov	 DWORD PTR [ebp-20], eax
  04395	89 45 f0	 mov	 DWORD PTR [ebp-16], eax
  04398	89 45 f4	 mov	 DWORD PTR [ebp-12], eax
  0439b	89 45 f8	 mov	 DWORD PTR [ebp-8], eax
  0439e	89 45 fc	 mov	 DWORD PTR [ebp-4], eax
  043a1	89 4d fc	 mov	 DWORD PTR _this$[ebp], ecx

; 1790 :     BOOL    bResult     = false;

  043a4	c7 45 f8 00 00
	00 00		 mov	 DWORD PTR _bResult$[ebp], 0

; 1791 : 	BOOL    bRetCode    = false;

  043ab	c7 45 f4 00 00
	00 00		 mov	 DWORD PTR _bRetCode$[ebp], 0

; 1792 :     KCell*  pCell       = NULL;

  043b2	c7 45 f0 00 00
	00 00		 mov	 DWORD PTR _pCell$[ebp], 0

; 1793 :     int     nRelativeZ  = 0;

  043b9	c7 45 e8 00 00
	00 00		 mov	 DWORD PTR _nRelativeZ$[ebp], 0

; 1794 : 
; 1795 :     assert(IS_PLAYER(pPlayer->m_dwID));

  043c0	8b 45 08	 mov	 eax, DWORD PTR _pPlayer$[ebp]
  043c3	8b 48 04	 mov	 ecx, DWORD PTR [eax+4]
  043c6	81 e1 00 00 00
	40		 and	 ecx, 1073741824		; 40000000H
  043cc	74 21		 je	 SHORT $LN8@AddPlayer
  043ce	8b f4		 mov	 esi, esp
  043d0	68 03 07 00 00	 push	 1795			; 00000703H
  043d5	68 00 00 00 00	 push	 OFFSET $SG178292
  043da	68 00 00 00 00	 push	 OFFSET $SG178293
  043df	ff 15 00 00 00
	00		 call	 DWORD PTR __imp___wassert
  043e5	83 c4 0c	 add	 esp, 12			; 0000000cH
  043e8	3b f4		 cmp	 esi, esp
  043ea	e8 00 00 00 00	 call	 __RTC_CheckEsp
$LN8@AddPlayer:

; 1796 : 
; 1797 : 	pCell = GetProximalCellForObj(
; 1798 :         pPlayer->m_nXCell, pPlayer->m_nYCell, pPlayer->m_nZ, 
; 1799 :         pPlayer->m_nHeight, false, true, 
; 1800 :         &nRelativeZ
; 1801 :     );

  043ef	8d 45 e8	 lea	 eax, DWORD PTR _nRelativeZ$[ebp]
  043f2	50		 push	 eax
  043f3	6a 01		 push	 1
  043f5	6a 00		 push	 0
  043f7	8b 4d 08	 mov	 ecx, DWORD PTR _pPlayer$[ebp]
  043fa	8b 51 2c	 mov	 edx, DWORD PTR [ecx+44]
  043fd	52		 push	 edx
  043fe	8b 45 08	 mov	 eax, DWORD PTR _pPlayer$[ebp]
  04401	8b 48 10	 mov	 ecx, DWORD PTR [eax+16]
  04404	51		 push	 ecx
  04405	8b 55 08	 mov	 edx, DWORD PTR _pPlayer$[ebp]
  04408	8b 42 1c	 mov	 eax, DWORD PTR [edx+28]
  0440b	50		 push	 eax
  0440c	8b 4d 08	 mov	 ecx, DWORD PTR _pPlayer$[ebp]
  0440f	8b 51 18	 mov	 edx, DWORD PTR [ecx+24]
  04412	52		 push	 edx
  04413	8b 4d fc	 mov	 ecx, DWORD PTR _this$[ebp]
  04416	e8 00 00 00 00	 call	 ?GetProximalCellForObj@KRegion@@QAEPAUKCell@@HHHHHHPAH@Z ; KRegion::GetProximalCellForObj
  0441b	89 45 f0	 mov	 DWORD PTR _pCell$[ebp], eax
$LN5@AddPlayer:

; 1802 :     KGLOG_PROCESS_ERROR(pCell);

  0441e	83 7d f0 00	 cmp	 DWORD PTR _pCell$[ebp], 0
  04422	75 2c		 jne	 SHORT $LN4@AddPlayer
  04424	8b f4		 mov	 esi, esp
  04426	68 00 00 00 00	 push	 OFFSET $SG178298
  0442b	68 0a 07 00 00	 push	 1802			; 0000070aH
  04430	68 00 00 00 00	 push	 OFFSET $SG178299
  04435	68 00 00 00 00	 push	 OFFSET $SG178300
  0443a	6a 07		 push	 7
  0443c	ff 15 00 00 00
	00		 call	 DWORD PTR __imp_?KGLogPrintf@@YAHW4KGLOG_PRIORITY@@QBDZZ
  04442	83 c4 14	 add	 esp, 20			; 00000014H
  04445	3b f4		 cmp	 esi, esp
  04447	e8 00 00 00 00	 call	 __RTC_CheckEsp
  0444c	eb 55		 jmp	 SHORT $Exit0$178301
  0444e	eb 53		 jmp	 SHORT $Exit0$178301
$LN4@AddPlayer:
  04450	33 c0		 xor	 eax, eax
  04452	75 ca		 jne	 SHORT $LN5@AddPlayer

; 1803 : 
; 1804 : 	m_PlayerList.AddTail((KNode*)&pPlayer->m_RegionObjNode);

  04454	8b 4d 08	 mov	 ecx, DWORD PTR _pPlayer$[ebp]
  04457	83 c1 48	 add	 ecx, 72			; 00000048H
  0445a	51		 push	 ecx
  0445b	8b 4d fc	 mov	 ecx, DWORD PTR _this$[ebp]
  0445e	83 c1 60	 add	 ecx, 96			; 00000060H
  04461	e8 00 00 00 00	 call	 ?AddTail@KList@@QAEXPAVKNode@@@Z ; KList::AddTail

; 1805 : 	pPlayer->m_pRegion = this;

  04466	8b 55 08	 mov	 edx, DWORD PTR _pPlayer$[ebp]
  04469	8b 45 fc	 mov	 eax, DWORD PTR _this$[ebp]
  0446c	89 42 40	 mov	 DWORD PTR [edx+64], eax

; 1806 : 
; 1807 :     pPlayer->m_nZ = pCell->m_wHighLayer * POINT_PER_ALTITUDE + nRelativeZ;

  0446f	8b 4d f0	 mov	 ecx, DWORD PTR _pCell$[ebp]
  04472	0f b7 51 06	 movzx	 edx, WORD PTR [ecx+6]
  04476	c1 e2 06	 shl	 edx, 6
  04479	03 55 e8	 add	 edx, DWORD PTR _nRelativeZ$[ebp]
  0447c	8b 45 08	 mov	 eax, DWORD PTR _pPlayer$[ebp]
  0447f	89 50 10	 mov	 DWORD PTR [eax+16], edx

; 1808 : 
; 1809 :     pPlayer->SetCell(pCell);

  04482	8b f4		 mov	 esi, esp
  04484	8b 4d f0	 mov	 ecx, DWORD PTR _pCell$[ebp]
  04487	51		 push	 ecx
  04488	8b 55 08	 mov	 edx, DWORD PTR _pPlayer$[ebp]
  0448b	8b 02		 mov	 eax, DWORD PTR [edx]
  0448d	8b 4d 08	 mov	 ecx, DWORD PTR _pPlayer$[ebp]
  04490	8b 50 04	 mov	 edx, DWORD PTR [eax+4]
  04493	ff d2		 call	 edx
  04495	3b f4		 cmp	 esi, esp
  04497	e8 00 00 00 00	 call	 __RTC_CheckEsp

; 1810 : 
; 1811 :     bResult = true;

  0449c	c7 45 f8 01 00
	00 00		 mov	 DWORD PTR _bResult$[ebp], 1
$Exit0$178301:

; 1812 : Exit0:
; 1813 : 	return bResult;

  044a3	8b 45 f8	 mov	 eax, DWORD PTR _bResult$[ebp]

; 1814 : }

  044a6	52		 push	 edx
  044a7	8b cd		 mov	 ecx, ebp
  044a9	50		 push	 eax
  044aa	8d 15 00 00 00
	00		 lea	 edx, DWORD PTR $LN11@AddPlayer
  044b0	e8 00 00 00 00	 call	 @_RTC_CheckStackVars@8
  044b5	58		 pop	 eax
  044b6	5a		 pop	 edx
  044b7	5e		 pop	 esi
  044b8	83 c4 1c	 add	 esp, 28			; 0000001cH
  044bb	3b ec		 cmp	 ebp, esp
  044bd	e8 00 00 00 00	 call	 __RTC_CheckEsp
  044c2	8b e5		 mov	 esp, ebp
  044c4	5d		 pop	 ebp
  044c5	c2 04 00	 ret	 4
$LN11@AddPlayer:
  044c8	01 00 00 00	 DD	 1
  044cc	00 00 00 00	 DD	 $LN10@AddPlayer
$LN10@AddPlayer:
  044d0	e8 ff ff ff	 DD	 -24			; ffffffe8H
  044d4	04 00 00 00	 DD	 4
  044d8	00 00 00 00	 DD	 $LN9@AddPlayer
$LN9@AddPlayer:
  044dc	6e		 DB	 110			; 0000006eH
  044dd	52		 DB	 82			; 00000052H
  044de	65		 DB	 101			; 00000065H
  044df	6c		 DB	 108			; 0000006cH
  044e0	61		 DB	 97			; 00000061H
  044e1	74		 DB	 116			; 00000074H
  044e2	69		 DB	 105			; 00000069H
  044e3	76		 DB	 118			; 00000076H
  044e4	65		 DB	 101			; 00000065H
  044e5	5a		 DB	 90			; 0000005aH
  044e6	00		 DB	 0
?AddPlayer@KRegion@@QAEHPAVKPlayer@@@Z ENDP		; KRegion::AddPlayer
_TEXT	ENDS
PUBLIC	?Remove@KNode@@QAEXXZ				; KNode::Remove
PUBLIC	?RemoveNpc@KRegion@@QAEHPAVKNpc@@@Z		; KRegion::RemoveNpc
; Function compile flags: /Odtp /RTCsu
_TEXT	SEGMENT
_this$ = -4						; size = 4
_pNpc$ = 8						; size = 4
?RemoveNpc@KRegion@@QAEHPAVKNpc@@@Z PROC		; KRegion::RemoveNpc
; _this$ = ecx

; 1817 : {

  044f0	55		 push	 ebp
  044f1	8b ec		 mov	 ebp, esp
  044f3	51		 push	 ecx
  044f4	56		 push	 esi
  044f5	c7 45 fc cc cc
	cc cc		 mov	 DWORD PTR [ebp-4], -858993460 ; ccccccccH
  044fc	89 4d fc	 mov	 DWORD PTR _this$[ebp], ecx

; 1818 :     pNpc->SetCell(NULL);

  044ff	8b f4		 mov	 esi, esp
  04501	6a 00		 push	 0
  04503	8b 45 08	 mov	 eax, DWORD PTR _pNpc$[ebp]
  04506	8b 10		 mov	 edx, DWORD PTR [eax]
  04508	8b 4d 08	 mov	 ecx, DWORD PTR _pNpc$[ebp]
  0450b	8b 42 04	 mov	 eax, DWORD PTR [edx+4]
  0450e	ff d0		 call	 eax
  04510	3b f4		 cmp	 esi, esp
  04512	e8 00 00 00 00	 call	 __RTC_CheckEsp

; 1819 : 
; 1820 : 	pNpc->m_RegionObjNode.Remove();

  04517	8b 4d 08	 mov	 ecx, DWORD PTR _pNpc$[ebp]
  0451a	83 c1 48	 add	 ecx, 72			; 00000048H
  0451d	e8 00 00 00 00	 call	 ?Remove@KNode@@QAEXXZ	; KNode::Remove

; 1821 : 	pNpc->m_pRegion = NULL;

  04522	8b 4d 08	 mov	 ecx, DWORD PTR _pNpc$[ebp]
  04525	c7 41 40 00 00
	00 00		 mov	 DWORD PTR [ecx+64], 0

; 1822 : 
; 1823 : 	return true;

  0452c	b8 01 00 00 00	 mov	 eax, 1

; 1824 : }

  04531	5e		 pop	 esi
  04532	83 c4 04	 add	 esp, 4
  04535	3b ec		 cmp	 ebp, esp
  04537	e8 00 00 00 00	 call	 __RTC_CheckEsp
  0453c	8b e5		 mov	 esp, ebp
  0453e	5d		 pop	 ebp
  0453f	c2 04 00	 ret	 4
?RemoveNpc@KRegion@@QAEHPAVKNpc@@@Z ENDP		; KRegion::RemoveNpc
; Function compile flags: /Odtp /RTCsu
; File d:\code\game\base\include\engine\knode.h
_TEXT	ENDS
;	COMDAT ?Remove@KNode@@QAEXXZ
_TEXT	SEGMENT
_this$ = -4						; size = 4
?Remove@KNode@@QAEXXZ PROC				; KNode::Remove, COMDAT
; _this$ = ecx

; 108  : {

  00000	55		 push	 ebp
  00001	8b ec		 mov	 ebp, esp
  00003	51		 push	 ecx
  00004	56		 push	 esi
  00005	c7 45 fc cc cc
	cc cc		 mov	 DWORD PTR [ebp-4], -858993460 ; ccccccccH
  0000c	89 4d fc	 mov	 DWORD PTR _this$[ebp], ecx

; 109  : 	KASSERT(m_pPrev);

  0000f	8b 45 fc	 mov	 eax, DWORD PTR _this$[ebp]
  00012	83 78 08 00	 cmp	 DWORD PTR [eax+8], 0
  00016	75 19		 jne	 SHORT $LN4@Remove
  00018	8b f4		 mov	 esi, esp
  0001a	6a 6d		 push	 109			; 0000006dH
  0001c	68 00 00 00 00	 push	 OFFSET ??_C@_0CJ@IPHLFEKJ@d?3?2code?2game?2base?2include?2engine@
  00021	ff 15 00 00 00
	00		 call	 DWORD PTR __imp__g_AssertFailed
  00027	83 c4 08	 add	 esp, 8
  0002a	3b f4		 cmp	 esi, esp
  0002c	e8 00 00 00 00	 call	 __RTC_CheckEsp
$LN4@Remove:

; 110  : 	KASSERT(m_pNext);

  00031	8b 4d fc	 mov	 ecx, DWORD PTR _this$[ebp]
  00034	83 79 04 00	 cmp	 DWORD PTR [ecx+4], 0
  00038	75 19		 jne	 SHORT $LN3@Remove
  0003a	8b f4		 mov	 esi, esp
  0003c	6a 6e		 push	 110			; 0000006eH
  0003e	68 00 00 00 00	 push	 OFFSET ??_C@_0CJ@IPHLFEKJ@d?3?2code?2game?2base?2include?2engine@
  00043	ff 15 00 00 00
	00		 call	 DWORD PTR __imp__g_AssertFailed
  00049	83 c4 08	 add	 esp, 8
  0004c	3b f4		 cmp	 esi, esp
  0004e	e8 00 00 00 00	 call	 __RTC_CheckEsp
$LN3@Remove:

; 111  : 	if (m_pPrev)

  00053	8b 55 fc	 mov	 edx, DWORD PTR _this$[ebp]
  00056	83 7a 08 00	 cmp	 DWORD PTR [edx+8], 0
  0005a	74 0f		 je	 SHORT $LN2@Remove

; 112  : 		m_pPrev->m_pNext = m_pNext;

  0005c	8b 45 fc	 mov	 eax, DWORD PTR _this$[ebp]
  0005f	8b 48 08	 mov	 ecx, DWORD PTR [eax+8]
  00062	8b 55 fc	 mov	 edx, DWORD PTR _this$[ebp]
  00065	8b 42 04	 mov	 eax, DWORD PTR [edx+4]
  00068	89 41 04	 mov	 DWORD PTR [ecx+4], eax
$LN2@Remove:

; 113  : 	if (m_pNext)

  0006b	8b 4d fc	 mov	 ecx, DWORD PTR _this$[ebp]
  0006e	83 79 04 00	 cmp	 DWORD PTR [ecx+4], 0
  00072	74 0f		 je	 SHORT $LN1@Remove

; 114  : 		m_pNext->m_pPrev = m_pPrev;

  00074	8b 55 fc	 mov	 edx, DWORD PTR _this$[ebp]
  00077	8b 42 04	 mov	 eax, DWORD PTR [edx+4]
  0007a	8b 4d fc	 mov	 ecx, DWORD PTR _this$[ebp]
  0007d	8b 51 08	 mov	 edx, DWORD PTR [ecx+8]
  00080	89 50 08	 mov	 DWORD PTR [eax+8], edx
$LN1@Remove:

; 115  : 	m_pPrev = NULL;

  00083	8b 45 fc	 mov	 eax, DWORD PTR _this$[ebp]
  00086	c7 40 08 00 00
	00 00		 mov	 DWORD PTR [eax+8], 0

; 116  : 	m_pNext = NULL;

  0008d	8b 4d fc	 mov	 ecx, DWORD PTR _this$[ebp]
  00090	c7 41 04 00 00
	00 00		 mov	 DWORD PTR [ecx+4], 0

; 117  : }

  00097	5e		 pop	 esi
  00098	83 c4 04	 add	 esp, 4
  0009b	3b ec		 cmp	 ebp, esp
  0009d	e8 00 00 00 00	 call	 __RTC_CheckEsp
  000a2	8b e5		 mov	 esp, ebp
  000a4	5d		 pop	 ebp
  000a5	c3		 ret	 0
?Remove@KNode@@QAEXXZ ENDP				; KNode::Remove
_TEXT	ENDS
PUBLIC	?RemoveDoodad@KRegion@@QAEHPAVKDoodad@@@Z	; KRegion::RemoveDoodad
; Function compile flags: /Odtp /RTCsu
; File d:\code\game\sword3\source\common\so3world\src\kregion.cpp
_TEXT	SEGMENT
_this$ = -4						; size = 4
_pDoodad$ = 8						; size = 4
?RemoveDoodad@KRegion@@QAEHPAVKDoodad@@@Z PROC		; KRegion::RemoveDoodad
; _this$ = ecx

; 1827 : {

  04550	55		 push	 ebp
  04551	8b ec		 mov	 ebp, esp
  04553	51		 push	 ecx
  04554	56		 push	 esi
  04555	c7 45 fc cc cc
	cc cc		 mov	 DWORD PTR [ebp-4], -858993460 ; ccccccccH
  0455c	89 4d fc	 mov	 DWORD PTR _this$[ebp], ecx

; 1828 :     pDoodad->SetCell(NULL);

  0455f	8b f4		 mov	 esi, esp
  04561	6a 00		 push	 0
  04563	8b 45 08	 mov	 eax, DWORD PTR _pDoodad$[ebp]
  04566	8b 10		 mov	 edx, DWORD PTR [eax]
  04568	8b 4d 08	 mov	 ecx, DWORD PTR _pDoodad$[ebp]
  0456b	8b 42 04	 mov	 eax, DWORD PTR [edx+4]
  0456e	ff d0		 call	 eax
  04570	3b f4		 cmp	 esi, esp
  04572	e8 00 00 00 00	 call	 __RTC_CheckEsp

; 1829 : 
; 1830 : 	pDoodad->m_RegionObjNode.Remove();

  04577	8b 4d 08	 mov	 ecx, DWORD PTR _pDoodad$[ebp]
  0457a	83 c1 48	 add	 ecx, 72			; 00000048H
  0457d	e8 00 00 00 00	 call	 ?Remove@KNode@@QAEXXZ	; KNode::Remove

; 1831 : 	pDoodad->m_pRegion = NULL;

  04582	8b 4d 08	 mov	 ecx, DWORD PTR _pDoodad$[ebp]
  04585	c7 41 40 00 00
	00 00		 mov	 DWORD PTR [ecx+64], 0

; 1832 : 
; 1833 : 	return true;

  0458c	b8 01 00 00 00	 mov	 eax, 1

; 1834 : }

  04591	5e		 pop	 esi
  04592	83 c4 04	 add	 esp, 4
  04595	3b ec		 cmp	 ebp, esp
  04597	e8 00 00 00 00	 call	 __RTC_CheckEsp
  0459c	8b e5		 mov	 esp, ebp
  0459e	5d		 pop	 ebp
  0459f	c2 04 00	 ret	 4
?RemoveDoodad@KRegion@@QAEHPAVKDoodad@@@Z ENDP		; KRegion::RemoveDoodad
_TEXT	ENDS
PUBLIC	?RemovePlayer@KRegion@@QAEHPAVKPlayer@@@Z	; KRegion::RemovePlayer
; Function compile flags: /Odtp /RTCsu
_TEXT	SEGMENT
_this$ = -4						; size = 4
_pPlayer$ = 8						; size = 4
?RemovePlayer@KRegion@@QAEHPAVKPlayer@@@Z PROC		; KRegion::RemovePlayer
; _this$ = ecx

; 1837 : {

  045b0	55		 push	 ebp
  045b1	8b ec		 mov	 ebp, esp
  045b3	51		 push	 ecx
  045b4	56		 push	 esi
  045b5	c7 45 fc cc cc
	cc cc		 mov	 DWORD PTR [ebp-4], -858993460 ; ccccccccH
  045bc	89 4d fc	 mov	 DWORD PTR _this$[ebp], ecx

; 1838 :     pPlayer->SetCell(NULL);

  045bf	8b f4		 mov	 esi, esp
  045c1	6a 00		 push	 0
  045c3	8b 45 08	 mov	 eax, DWORD PTR _pPlayer$[ebp]
  045c6	8b 10		 mov	 edx, DWORD PTR [eax]
  045c8	8b 4d 08	 mov	 ecx, DWORD PTR _pPlayer$[ebp]
  045cb	8b 42 04	 mov	 eax, DWORD PTR [edx+4]
  045ce	ff d0		 call	 eax
  045d0	3b f4		 cmp	 esi, esp
  045d2	e8 00 00 00 00	 call	 __RTC_CheckEsp

; 1839 : 
; 1840 :     pPlayer->m_RegionObjNode.Remove();

  045d7	8b 4d 08	 mov	 ecx, DWORD PTR _pPlayer$[ebp]
  045da	83 c1 48	 add	 ecx, 72			; 00000048H
  045dd	e8 00 00 00 00	 call	 ?Remove@KNode@@QAEXXZ	; KNode::Remove

; 1841 : 	pPlayer->m_pRegion = NULL;

  045e2	8b 4d 08	 mov	 ecx, DWORD PTR _pPlayer$[ebp]
  045e5	c7 41 40 00 00
	00 00		 mov	 DWORD PTR [ecx+64], 0

; 1842 : 
; 1843 :     return true;

  045ec	b8 01 00 00 00	 mov	 eax, 1

; 1844 : }

  045f1	5e		 pop	 esi
  045f2	83 c4 04	 add	 esp, 4
  045f5	3b ec		 cmp	 ebp, esp
  045f7	e8 00 00 00 00	 call	 __RTC_CheckEsp
  045fc	8b e5		 mov	 esp, ebp
  045fe	5d		 pop	 ebp
  045ff	c2 04 00	 ret	 4
?RemovePlayer@KRegion@@QAEHPAVKPlayer@@@Z ENDP		; KRegion::RemovePlayer
_TEXT	ENDS
PUBLIC	?DeleteAllNpc@KRegion@@QAEHXZ			; KRegion::DeleteAllNpc
EXTRN	?DeleteNpc@KSO3World@@QAEHPAVKNpc@@H@Z:PROC	; KSO3World::DeleteNpc
; Function compile flags: /Odtp /RTCsu
_TEXT	SEGMENT
_pNpc$178329 = -24					; size = 4
_pNextNode$178327 = -20					; size = 4
_pNode$ = -16						; size = 4
_bRetCode$ = -12					; size = 4
_bResult$ = -8						; size = 4
_this$ = -4						; size = 4
?DeleteAllNpc@KRegion@@QAEHXZ PROC			; KRegion::DeleteAllNpc
; _this$ = ecx

; 1847 : {

  04610	55		 push	 ebp
  04611	8b ec		 mov	 ebp, esp
  04613	83 ec 18	 sub	 esp, 24			; 00000018H
  04616	56		 push	 esi
  04617	b8 cc cc cc cc	 mov	 eax, -858993460		; ccccccccH
  0461c	89 45 e8	 mov	 DWORD PTR [ebp-24], eax
  0461f	89 45 ec	 mov	 DWORD PTR [ebp-20], eax
  04622	89 45 f0	 mov	 DWORD PTR [ebp-16], eax
  04625	89 45 f4	 mov	 DWORD PTR [ebp-12], eax
  04628	89 45 f8	 mov	 DWORD PTR [ebp-8], eax
  0462b	89 45 fc	 mov	 DWORD PTR [ebp-4], eax
  0462e	89 4d fc	 mov	 DWORD PTR _this$[ebp], ecx

; 1848 :     BOOL bResult  = false;

  04631	c7 45 f8 00 00
	00 00		 mov	 DWORD PTR _bResult$[ebp], 0

; 1849 : 	BOOL bRetCode = false;

  04638	c7 45 f4 00 00
	00 00		 mov	 DWORD PTR _bRetCode$[ebp], 0

; 1850 : 
; 1851 : 	KSceneObjNode* pNode = (KSceneObjNode*)m_NpcList.GetHead();

  0463f	8b 4d fc	 mov	 ecx, DWORD PTR _this$[ebp]
  04642	83 c1 30	 add	 ecx, 48			; 00000030H
  04645	e8 00 00 00 00	 call	 ?GetHead@KList@@QAEPAVKNode@@XZ ; KList::GetHead
  0464a	89 45 f0	 mov	 DWORD PTR _pNode$[ebp], eax
$LN12@DeleteAllN:

; 1852 : 	while (pNode != NULL)

  0464d	83 7d f0 00	 cmp	 DWORD PTR _pNode$[ebp], 0
  04651	0f 84 9f 00 00
	00		 je	 $LN11@DeleteAllN

; 1853 : 	{
; 1854 : 		KSceneObjNode* pNextNode = (KSceneObjNode*)pNode->GetNext();

  04657	8b 4d f0	 mov	 ecx, DWORD PTR _pNode$[ebp]
  0465a	e8 00 00 00 00	 call	 ?GetNext@KNode@@QAEPAV1@XZ ; KNode::GetNext
  0465f	89 45 ec	 mov	 DWORD PTR _pNextNode$178327[ebp], eax

; 1855 : 
; 1856 : 		KNpc* pNpc = (KNpc*)(pNode->m_pSceneObject);

  04662	8b 45 f0	 mov	 eax, DWORD PTR _pNode$[ebp]
  04665	8b 48 0c	 mov	 ecx, DWORD PTR [eax+12]
  04668	89 4d e8	 mov	 DWORD PTR _pNpc$178329[ebp], ecx
$LN10@DeleteAllN:

; 1857 : 		KGLOG_PROCESS_ERROR(pNpc);

  0466b	83 7d e8 00	 cmp	 DWORD PTR _pNpc$178329[ebp], 0
  0466f	75 2c		 jne	 SHORT $LN9@DeleteAllN
  04671	8b f4		 mov	 esi, esp
  04673	68 00 00 00 00	 push	 OFFSET $SG178335
  04678	68 41 07 00 00	 push	 1857			; 00000741H
  0467d	68 00 00 00 00	 push	 OFFSET $SG178336
  04682	68 00 00 00 00	 push	 OFFSET $SG178337
  04687	6a 07		 push	 7
  04689	ff 15 00 00 00
	00		 call	 DWORD PTR __imp_?KGLogPrintf@@YAHW4KGLOG_PRIORITY@@QBDZZ
  0468f	83 c4 14	 add	 esp, 20			; 00000014H
  04692	3b f4		 cmp	 esi, esp
  04694	e8 00 00 00 00	 call	 __RTC_CheckEsp
  04699	eb 62		 jmp	 SHORT $Exit0$178338
  0469b	eb 60		 jmp	 SHORT $Exit0$178338
$LN9@DeleteAllN:
  0469d	33 d2		 xor	 edx, edx
  0469f	75 ca		 jne	 SHORT $LN10@DeleteAllN

; 1858 : 
; 1859 : 		bRetCode = g_pSO3World->DeleteNpc(pNpc);

  046a1	6a 00		 push	 0
  046a3	8b 45 e8	 mov	 eax, DWORD PTR _pNpc$178329[ebp]
  046a6	50		 push	 eax
  046a7	8b 0d 00 00 00
	00		 mov	 ecx, DWORD PTR ?g_pSO3World@@3PAVKSO3World@@A ; g_pSO3World
  046ad	e8 00 00 00 00	 call	 ?DeleteNpc@KSO3World@@QAEHPAVKNpc@@H@Z ; KSO3World::DeleteNpc
  046b2	89 45 f4	 mov	 DWORD PTR _bRetCode$[ebp], eax
$LN5@DeleteAllN:

; 1860 : 		KGLOG_PROCESS_ERROR(bRetCode);

  046b5	83 7d f4 00	 cmp	 DWORD PTR _bRetCode$[ebp], 0
  046b9	75 2c		 jne	 SHORT $LN4@DeleteAllN
  046bb	8b f4		 mov	 esi, esp
  046bd	68 00 00 00 00	 push	 OFFSET $SG178344
  046c2	68 44 07 00 00	 push	 1860			; 00000744H
  046c7	68 00 00 00 00	 push	 OFFSET $SG178345
  046cc	68 00 00 00 00	 push	 OFFSET $SG178346
  046d1	6a 07		 push	 7
  046d3	ff 15 00 00 00
	00		 call	 DWORD PTR __imp_?KGLogPrintf@@YAHW4KGLOG_PRIORITY@@QBDZZ
  046d9	83 c4 14	 add	 esp, 20			; 00000014H
  046dc	3b f4		 cmp	 esi, esp
  046de	e8 00 00 00 00	 call	 __RTC_CheckEsp
  046e3	eb 18		 jmp	 SHORT $Exit0$178338
  046e5	eb 16		 jmp	 SHORT $Exit0$178338
$LN4@DeleteAllN:
  046e7	33 c9		 xor	 ecx, ecx
  046e9	75 ca		 jne	 SHORT $LN5@DeleteAllN

; 1861 : 
; 1862 : 		pNode = pNextNode;

  046eb	8b 55 ec	 mov	 edx, DWORD PTR _pNextNode$178327[ebp]
  046ee	89 55 f0	 mov	 DWORD PTR _pNode$[ebp], edx

; 1863 : 	}

  046f1	e9 57 ff ff ff	 jmp	 $LN12@DeleteAllN
$LN11@DeleteAllN:

; 1864 : 
; 1865 :     bResult = true;

  046f6	c7 45 f8 01 00
	00 00		 mov	 DWORD PTR _bResult$[ebp], 1
$Exit0$178338:

; 1866 : Exit0:
; 1867 : 	return bResult;

  046fd	8b 45 f8	 mov	 eax, DWORD PTR _bResult$[ebp]

; 1868 : }

  04700	5e		 pop	 esi
  04701	83 c4 18	 add	 esp, 24			; 00000018H
  04704	3b ec		 cmp	 ebp, esp
  04706	e8 00 00 00 00	 call	 __RTC_CheckEsp
  0470b	8b e5		 mov	 esp, ebp
  0470d	5d		 pop	 ebp
  0470e	c3		 ret	 0
?DeleteAllNpc@KRegion@@QAEHXZ ENDP			; KRegion::DeleteAllNpc
_TEXT	ENDS
PUBLIC	?DeleteAllDoodad@KRegion@@QAEHXZ		; KRegion::DeleteAllDoodad
EXTRN	?DelDoodad@KSO3World@@QAEHPAVKDoodad@@@Z:PROC	; KSO3World::DelDoodad
; Function compile flags: /Odtp /RTCsu
_TEXT	SEGMENT
_pDoodad$178361 = -24					; size = 4
_pNextNode$178359 = -20					; size = 4
_pNode$ = -16						; size = 4
_bRetCode$ = -12					; size = 4
_bResult$ = -8						; size = 4
_this$ = -4						; size = 4
?DeleteAllDoodad@KRegion@@QAEHXZ PROC			; KRegion::DeleteAllDoodad
; _this$ = ecx

; 1871 : {

  04710	55		 push	 ebp
  04711	8b ec		 mov	 ebp, esp
  04713	83 ec 18	 sub	 esp, 24			; 00000018H
  04716	56		 push	 esi
  04717	b8 cc cc cc cc	 mov	 eax, -858993460		; ccccccccH
  0471c	89 45 e8	 mov	 DWORD PTR [ebp-24], eax
  0471f	89 45 ec	 mov	 DWORD PTR [ebp-20], eax
  04722	89 45 f0	 mov	 DWORD PTR [ebp-16], eax
  04725	89 45 f4	 mov	 DWORD PTR [ebp-12], eax
  04728	89 45 f8	 mov	 DWORD PTR [ebp-8], eax
  0472b	89 45 fc	 mov	 DWORD PTR [ebp-4], eax
  0472e	89 4d fc	 mov	 DWORD PTR _this$[ebp], ecx

; 1872 :     BOOL bResult  = false;

  04731	c7 45 f8 00 00
	00 00		 mov	 DWORD PTR _bResult$[ebp], 0

; 1873 : 	BOOL bRetCode = false;

  04738	c7 45 f4 00 00
	00 00		 mov	 DWORD PTR _bRetCode$[ebp], 0

; 1874 : 
; 1875 : 	KSceneObjNode* pNode = (KSceneObjNode*)m_DoodadList.GetHead();

  0473f	8b 4d fc	 mov	 ecx, DWORD PTR _this$[ebp]
  04742	83 c1 48	 add	 ecx, 72			; 00000048H
  04745	e8 00 00 00 00	 call	 ?GetHead@KList@@QAEPAVKNode@@XZ ; KList::GetHead
  0474a	89 45 f0	 mov	 DWORD PTR _pNode$[ebp], eax
$LN12@DeleteAllD:

; 1876 : 	while (pNode != NULL)

  0474d	83 7d f0 00	 cmp	 DWORD PTR _pNode$[ebp], 0
  04751	0f 84 9d 00 00
	00		 je	 $LN11@DeleteAllD

; 1877 : 	{
; 1878 : 		KSceneObjNode* pNextNode = (KSceneObjNode*)pNode->GetNext();

  04757	8b 4d f0	 mov	 ecx, DWORD PTR _pNode$[ebp]
  0475a	e8 00 00 00 00	 call	 ?GetNext@KNode@@QAEPAV1@XZ ; KNode::GetNext
  0475f	89 45 ec	 mov	 DWORD PTR _pNextNode$178359[ebp], eax

; 1879 : 
; 1880 : 		KDoodad* pDoodad = (KDoodad*)(pNode->m_pSceneObject);

  04762	8b 45 f0	 mov	 eax, DWORD PTR _pNode$[ebp]
  04765	8b 48 0c	 mov	 ecx, DWORD PTR [eax+12]
  04768	89 4d e8	 mov	 DWORD PTR _pDoodad$178361[ebp], ecx
$LN10@DeleteAllD:

; 1881 : 		KGLOG_PROCESS_ERROR(pDoodad);

  0476b	83 7d e8 00	 cmp	 DWORD PTR _pDoodad$178361[ebp], 0
  0476f	75 2c		 jne	 SHORT $LN9@DeleteAllD
  04771	8b f4		 mov	 esi, esp
  04773	68 00 00 00 00	 push	 OFFSET $SG178367
  04778	68 59 07 00 00	 push	 1881			; 00000759H
  0477d	68 00 00 00 00	 push	 OFFSET $SG178368
  04782	68 00 00 00 00	 push	 OFFSET $SG178369
  04787	6a 07		 push	 7
  04789	ff 15 00 00 00
	00		 call	 DWORD PTR __imp_?KGLogPrintf@@YAHW4KGLOG_PRIORITY@@QBDZZ
  0478f	83 c4 14	 add	 esp, 20			; 00000014H
  04792	3b f4		 cmp	 esi, esp
  04794	e8 00 00 00 00	 call	 __RTC_CheckEsp
  04799	eb 60		 jmp	 SHORT $Exit0$178370
  0479b	eb 5e		 jmp	 SHORT $Exit0$178370
$LN9@DeleteAllD:
  0479d	33 d2		 xor	 edx, edx
  0479f	75 ca		 jne	 SHORT $LN10@DeleteAllD

; 1882 : 
; 1883 : 		bRetCode = g_pSO3World->DelDoodad(pDoodad);

  047a1	8b 45 e8	 mov	 eax, DWORD PTR _pDoodad$178361[ebp]
  047a4	50		 push	 eax
  047a5	8b 0d 00 00 00
	00		 mov	 ecx, DWORD PTR ?g_pSO3World@@3PAVKSO3World@@A ; g_pSO3World
  047ab	e8 00 00 00 00	 call	 ?DelDoodad@KSO3World@@QAEHPAVKDoodad@@@Z ; KSO3World::DelDoodad
  047b0	89 45 f4	 mov	 DWORD PTR _bRetCode$[ebp], eax
$LN5@DeleteAllD:

; 1884 : 		KGLOG_PROCESS_ERROR(bRetCode);

  047b3	83 7d f4 00	 cmp	 DWORD PTR _bRetCode$[ebp], 0
  047b7	75 2c		 jne	 SHORT $LN4@DeleteAllD
  047b9	8b f4		 mov	 esi, esp
  047bb	68 00 00 00 00	 push	 OFFSET $SG178376
  047c0	68 5c 07 00 00	 push	 1884			; 0000075cH
  047c5	68 00 00 00 00	 push	 OFFSET $SG178377
  047ca	68 00 00 00 00	 push	 OFFSET $SG178378
  047cf	6a 07		 push	 7
  047d1	ff 15 00 00 00
	00		 call	 DWORD PTR __imp_?KGLogPrintf@@YAHW4KGLOG_PRIORITY@@QBDZZ
  047d7	83 c4 14	 add	 esp, 20			; 00000014H
  047da	3b f4		 cmp	 esi, esp
  047dc	e8 00 00 00 00	 call	 __RTC_CheckEsp
  047e1	eb 18		 jmp	 SHORT $Exit0$178370
  047e3	eb 16		 jmp	 SHORT $Exit0$178370
$LN4@DeleteAllD:
  047e5	33 c9		 xor	 ecx, ecx
  047e7	75 ca		 jne	 SHORT $LN5@DeleteAllD

; 1885 : 
; 1886 : 		pNode = pNextNode;

  047e9	8b 55 ec	 mov	 edx, DWORD PTR _pNextNode$178359[ebp]
  047ec	89 55 f0	 mov	 DWORD PTR _pNode$[ebp], edx

; 1887 : 	}

  047ef	e9 59 ff ff ff	 jmp	 $LN12@DeleteAllD
$LN11@DeleteAllD:

; 1888 : 
; 1889 :     bResult = true;

  047f4	c7 45 f8 01 00
	00 00		 mov	 DWORD PTR _bResult$[ebp], 1
$Exit0$178370:

; 1890 : Exit0:
; 1891 : 	return bResult;

  047fb	8b 45 f8	 mov	 eax, DWORD PTR _bResult$[ebp]

; 1892 : }

  047fe	5e		 pop	 esi
  047ff	83 c4 18	 add	 esp, 24			; 00000018H
  04802	3b ec		 cmp	 ebp, esp
  04804	e8 00 00 00 00	 call	 __RTC_CheckEsp
  04809	8b e5		 mov	 esp, ebp
  0480b	5d		 pop	 ebp
  0480c	c3		 ret	 0
?DeleteAllDoodad@KRegion@@QAEHXZ ENDP			; KRegion::DeleteAllDoodad
_TEXT	ENDS
PUBLIC	?DeleteAllPlayer@KRegion@@QAEHXZ		; KRegion::DeleteAllPlayer
EXTRN	?DelPlayer@KSO3World@@QAEHPAVKPlayer@@@Z:PROC	; KSO3World::DelPlayer
; Function compile flags: /Odtp /RTCsu
_TEXT	SEGMENT
_pPlayer$178393 = -24					; size = 4
_pNextNode$178391 = -20					; size = 4
_pNode$ = -16						; size = 4
_bRetCode$ = -12					; size = 4
_bResult$ = -8						; size = 4
_this$ = -4						; size = 4
?DeleteAllPlayer@KRegion@@QAEHXZ PROC			; KRegion::DeleteAllPlayer
; _this$ = ecx

; 1895 : {

  04810	55		 push	 ebp
  04811	8b ec		 mov	 ebp, esp
  04813	83 ec 18	 sub	 esp, 24			; 00000018H
  04816	56		 push	 esi
  04817	b8 cc cc cc cc	 mov	 eax, -858993460		; ccccccccH
  0481c	89 45 e8	 mov	 DWORD PTR [ebp-24], eax
  0481f	89 45 ec	 mov	 DWORD PTR [ebp-20], eax
  04822	89 45 f0	 mov	 DWORD PTR [ebp-16], eax
  04825	89 45 f4	 mov	 DWORD PTR [ebp-12], eax
  04828	89 45 f8	 mov	 DWORD PTR [ebp-8], eax
  0482b	89 45 fc	 mov	 DWORD PTR [ebp-4], eax
  0482e	89 4d fc	 mov	 DWORD PTR _this$[ebp], ecx

; 1896 :     BOOL bResult  = false;

  04831	c7 45 f8 00 00
	00 00		 mov	 DWORD PTR _bResult$[ebp], 0

; 1897 : 	BOOL bRetCode = false;

  04838	c7 45 f4 00 00
	00 00		 mov	 DWORD PTR _bRetCode$[ebp], 0

; 1898 : 
; 1899 : 	KSceneObjNode* pNode = (KSceneObjNode*)m_PlayerList.GetHead();

  0483f	8b 4d fc	 mov	 ecx, DWORD PTR _this$[ebp]
  04842	83 c1 60	 add	 ecx, 96			; 00000060H
  04845	e8 00 00 00 00	 call	 ?GetHead@KList@@QAEPAVKNode@@XZ ; KList::GetHead
  0484a	89 45 f0	 mov	 DWORD PTR _pNode$[ebp], eax
$LN12@DeleteAllP:

; 1900 : 	while (pNode != NULL)

  0484d	83 7d f0 00	 cmp	 DWORD PTR _pNode$[ebp], 0
  04851	0f 84 9d 00 00
	00		 je	 $LN11@DeleteAllP

; 1901 : 	{
; 1902 : 		KSceneObjNode* pNextNode = (KSceneObjNode*)pNode->GetNext();

  04857	8b 4d f0	 mov	 ecx, DWORD PTR _pNode$[ebp]
  0485a	e8 00 00 00 00	 call	 ?GetNext@KNode@@QAEPAV1@XZ ; KNode::GetNext
  0485f	89 45 ec	 mov	 DWORD PTR _pNextNode$178391[ebp], eax

; 1903 : 
; 1904 : 		KPlayer* pPlayer = (KPlayer*)(pNode->m_pSceneObject);

  04862	8b 45 f0	 mov	 eax, DWORD PTR _pNode$[ebp]
  04865	8b 48 0c	 mov	 ecx, DWORD PTR [eax+12]
  04868	89 4d e8	 mov	 DWORD PTR _pPlayer$178393[ebp], ecx
$LN10@DeleteAllP:

; 1905 : 		KGLOG_PROCESS_ERROR(pPlayer);

  0486b	83 7d e8 00	 cmp	 DWORD PTR _pPlayer$178393[ebp], 0
  0486f	75 2c		 jne	 SHORT $LN9@DeleteAllP
  04871	8b f4		 mov	 esi, esp
  04873	68 00 00 00 00	 push	 OFFSET $SG178399
  04878	68 71 07 00 00	 push	 1905			; 00000771H
  0487d	68 00 00 00 00	 push	 OFFSET $SG178400
  04882	68 00 00 00 00	 push	 OFFSET $SG178401
  04887	6a 07		 push	 7
  04889	ff 15 00 00 00
	00		 call	 DWORD PTR __imp_?KGLogPrintf@@YAHW4KGLOG_PRIORITY@@QBDZZ
  0488f	83 c4 14	 add	 esp, 20			; 00000014H
  04892	3b f4		 cmp	 esi, esp
  04894	e8 00 00 00 00	 call	 __RTC_CheckEsp
  04899	eb 60		 jmp	 SHORT $Exit0$178402
  0489b	eb 5e		 jmp	 SHORT $Exit0$178402
$LN9@DeleteAllP:
  0489d	33 d2		 xor	 edx, edx
  0489f	75 ca		 jne	 SHORT $LN10@DeleteAllP

; 1906 : 
; 1907 : 		bRetCode = g_pSO3World->DelPlayer(pPlayer);

  048a1	8b 45 e8	 mov	 eax, DWORD PTR _pPlayer$178393[ebp]
  048a4	50		 push	 eax
  048a5	8b 0d 00 00 00
	00		 mov	 ecx, DWORD PTR ?g_pSO3World@@3PAVKSO3World@@A ; g_pSO3World
  048ab	e8 00 00 00 00	 call	 ?DelPlayer@KSO3World@@QAEHPAVKPlayer@@@Z ; KSO3World::DelPlayer
  048b0	89 45 f4	 mov	 DWORD PTR _bRetCode$[ebp], eax
$LN5@DeleteAllP:

; 1908 : 		KGLOG_PROCESS_ERROR(bRetCode);

  048b3	83 7d f4 00	 cmp	 DWORD PTR _bRetCode$[ebp], 0
  048b7	75 2c		 jne	 SHORT $LN4@DeleteAllP
  048b9	8b f4		 mov	 esi, esp
  048bb	68 00 00 00 00	 push	 OFFSET $SG178408
  048c0	68 74 07 00 00	 push	 1908			; 00000774H
  048c5	68 00 00 00 00	 push	 OFFSET $SG178409
  048ca	68 00 00 00 00	 push	 OFFSET $SG178410
  048cf	6a 07		 push	 7
  048d1	ff 15 00 00 00
	00		 call	 DWORD PTR __imp_?KGLogPrintf@@YAHW4KGLOG_PRIORITY@@QBDZZ
  048d7	83 c4 14	 add	 esp, 20			; 00000014H
  048da	3b f4		 cmp	 esi, esp
  048dc	e8 00 00 00 00	 call	 __RTC_CheckEsp
  048e1	eb 18		 jmp	 SHORT $Exit0$178402
  048e3	eb 16		 jmp	 SHORT $Exit0$178402
$LN4@DeleteAllP:
  048e5	33 c9		 xor	 ecx, ecx
  048e7	75 ca		 jne	 SHORT $LN5@DeleteAllP

; 1909 : 
; 1910 : 		pNode = pNextNode;

  048e9	8b 55 ec	 mov	 edx, DWORD PTR _pNextNode$178391[ebp]
  048ec	89 55 f0	 mov	 DWORD PTR _pNode$[ebp], edx

; 1911 : 	}

  048ef	e9 59 ff ff ff	 jmp	 $LN12@DeleteAllP
$LN11@DeleteAllP:

; 1912 : 
; 1913 :     bResult = true;

  048f4	c7 45 f8 01 00
	00 00		 mov	 DWORD PTR _bResult$[ebp], 1
$Exit0$178402:

; 1914 : Exit0:
; 1915 : 	return bResult;

  048fb	8b 45 f8	 mov	 eax, DWORD PTR _bResult$[ebp]

; 1916 : }

  048fe	5e		 pop	 esi
  048ff	83 c4 18	 add	 esp, 24			; 00000018H
  04902	3b ec		 cmp	 ebp, esp
  04904	e8 00 00 00 00	 call	 __RTC_CheckEsp
  04909	8b e5		 mov	 esp, ebp
  0490b	5d		 pop	 ebp
  0490c	c3		 ret	 0
?DeleteAllPlayer@KRegion@@QAEHXZ ENDP			; KRegion::DeleteAllPlayer
_TEXT	ENDS
PUBLIC	?DeleteAllObject@KRegion@@QAEHXZ		; KRegion::DeleteAllObject
; Function compile flags: /Odtp /RTCsu
_TEXT	SEGMENT
_pNextViewPoint$178436 = -16				; size = 4
_pViewPoint$ = -12					; size = 4
_bRetCode$ = -8						; size = 4
_this$ = -4						; size = 4
?DeleteAllObject@KRegion@@QAEHXZ PROC			; KRegion::DeleteAllObject
; _this$ = ecx

; 1919 : {

  04910	55		 push	 ebp
  04911	8b ec		 mov	 ebp, esp
  04913	83 ec 10	 sub	 esp, 16			; 00000010H
  04916	56		 push	 esi
  04917	b8 cc cc cc cc	 mov	 eax, -858993460		; ccccccccH
  0491c	89 45 f0	 mov	 DWORD PTR [ebp-16], eax
  0491f	89 45 f4	 mov	 DWORD PTR [ebp-12], eax
  04922	89 45 f8	 mov	 DWORD PTR [ebp-8], eax
  04925	89 45 fc	 mov	 DWORD PTR [ebp-4], eax
  04928	89 4d fc	 mov	 DWORD PTR _this$[ebp], ecx

; 1920 : 	BOOL bRetCode = false;

  0492b	c7 45 f8 00 00
	00 00		 mov	 DWORD PTR _bRetCode$[ebp], 0

; 1921 : 
; 1922 : 	bRetCode = DeleteAllNpc();

  04932	8b 4d fc	 mov	 ecx, DWORD PTR _this$[ebp]
  04935	e8 00 00 00 00	 call	 ?DeleteAllNpc@KRegion@@QAEHXZ ; KRegion::DeleteAllNpc
  0493a	89 45 f8	 mov	 DWORD PTR _bRetCode$[ebp], eax
$LN14@DeleteAllO:

; 1923 : 	KGLOG_CHECK_ERROR(bRetCode);

  0493d	83 7d f8 00	 cmp	 DWORD PTR _bRetCode$[ebp], 0
  04941	75 28		 jne	 SHORT $LN13@DeleteAllO
  04943	8b f4		 mov	 esi, esp
  04945	68 00 00 00 00	 push	 OFFSET $SG178421
  0494a	68 83 07 00 00	 push	 1923			; 00000783H
  0494f	68 00 00 00 00	 push	 OFFSET $SG178422
  04954	68 00 00 00 00	 push	 OFFSET $SG178423
  04959	6a 07		 push	 7
  0495b	ff 15 00 00 00
	00		 call	 DWORD PTR __imp_?KGLogPrintf@@YAHW4KGLOG_PRIORITY@@QBDZZ
  04961	83 c4 14	 add	 esp, 20			; 00000014H
  04964	3b f4		 cmp	 esi, esp
  04966	e8 00 00 00 00	 call	 __RTC_CheckEsp
$LN13@DeleteAllO:
  0496b	33 c0		 xor	 eax, eax
  0496d	75 ce		 jne	 SHORT $LN14@DeleteAllO

; 1924 : 
; 1925 : 	bRetCode = DeleteAllDoodad();

  0496f	8b 4d fc	 mov	 ecx, DWORD PTR _this$[ebp]
  04972	e8 00 00 00 00	 call	 ?DeleteAllDoodad@KRegion@@QAEHXZ ; KRegion::DeleteAllDoodad
  04977	89 45 f8	 mov	 DWORD PTR _bRetCode$[ebp], eax
$LN10@DeleteAllO:

; 1926 : 	KGLOG_CHECK_ERROR(bRetCode);

  0497a	83 7d f8 00	 cmp	 DWORD PTR _bRetCode$[ebp], 0
  0497e	75 28		 jne	 SHORT $LN9@DeleteAllO
  04980	8b f4		 mov	 esi, esp
  04982	68 00 00 00 00	 push	 OFFSET $SG178428
  04987	68 86 07 00 00	 push	 1926			; 00000786H
  0498c	68 00 00 00 00	 push	 OFFSET $SG178429
  04991	68 00 00 00 00	 push	 OFFSET $SG178430
  04996	6a 07		 push	 7
  04998	ff 15 00 00 00
	00		 call	 DWORD PTR __imp_?KGLogPrintf@@YAHW4KGLOG_PRIORITY@@QBDZZ
  0499e	83 c4 14	 add	 esp, 20			; 00000014H
  049a1	3b f4		 cmp	 esi, esp
  049a3	e8 00 00 00 00	 call	 __RTC_CheckEsp
$LN9@DeleteAllO:
  049a8	33 c9		 xor	 ecx, ecx
  049aa	75 ce		 jne	 SHORT $LN10@DeleteAllO

; 1927 : 
; 1928 : #ifdef _SERVER
; 1929 :     KVIEW_POINT* pViewPoint = (KVIEW_POINT*)m_ViewPointList.GetHead();

  049ac	8b 4d fc	 mov	 ecx, DWORD PTR _this$[ebp]
  049af	83 c1 78	 add	 ecx, 120		; 00000078H
  049b2	e8 00 00 00 00	 call	 ?GetHead@KList@@QAEPAVKNode@@XZ ; KList::GetHead
  049b7	89 45 f4	 mov	 DWORD PTR _pViewPoint$[ebp], eax
$LN6@DeleteAllO:

; 1930 :     while (pViewPoint != NULL)

  049ba	83 7d f4 00	 cmp	 DWORD PTR _pViewPoint$[ebp], 0
  049be	74 2f		 je	 SHORT $LN5@DeleteAllO

; 1931 :     {
; 1932 :         KVIEW_POINT* pNextViewPoint = (KVIEW_POINT*)pViewPoint->GetNext();

  049c0	8b 4d f4	 mov	 ecx, DWORD PTR _pViewPoint$[ebp]
  049c3	e8 00 00 00 00	 call	 ?GetNext@KNode@@QAEPAV1@XZ ; KNode::GetNext
  049c8	89 45 f0	 mov	 DWORD PTR _pNextViewPoint$178436[ebp], eax

; 1933 : 
; 1934 : 		pViewPoint->Remove();

  049cb	8b 4d f4	 mov	 ecx, DWORD PTR _pViewPoint$[ebp]
  049ce	e8 00 00 00 00	 call	 ?Remove@KNode@@QAEXXZ	; KNode::Remove

; 1935 :         pViewPoint->pRegion         = NULL;

  049d3	8b 55 f4	 mov	 edx, DWORD PTR _pViewPoint$[ebp]
  049d6	c7 42 10 00 00
	00 00		 mov	 DWORD PTR [edx+16], 0

; 1936 :         pViewPoint->nDisappearFrame = 0;

  049dd	8b 45 f4	 mov	 eax, DWORD PTR _pViewPoint$[ebp]
  049e0	c7 40 14 00 00
	00 00		 mov	 DWORD PTR [eax+20], 0

; 1937 : 
; 1938 :         pViewPoint = pNextViewPoint;

  049e7	8b 4d f0	 mov	 ecx, DWORD PTR _pNextViewPoint$178436[ebp]
  049ea	89 4d f4	 mov	 DWORD PTR _pViewPoint$[ebp], ecx

; 1939 :     }

  049ed	eb cb		 jmp	 SHORT $LN6@DeleteAllO
$LN5@DeleteAllO:

; 1940 : #endif
; 1941 : 
; 1942 : 	bRetCode = DeleteAllPlayer();

  049ef	8b 4d fc	 mov	 ecx, DWORD PTR _this$[ebp]
  049f2	e8 00 00 00 00	 call	 ?DeleteAllPlayer@KRegion@@QAEHXZ ; KRegion::DeleteAllPlayer
  049f7	89 45 f8	 mov	 DWORD PTR _bRetCode$[ebp], eax
$LN4@DeleteAllO:

; 1943 : 	KGLOG_CHECK_ERROR(bRetCode);

  049fa	83 7d f8 00	 cmp	 DWORD PTR _bRetCode$[ebp], 0
  049fe	75 28		 jne	 SHORT $LN3@DeleteAllO
  04a00	8b f4		 mov	 esi, esp
  04a02	68 00 00 00 00	 push	 OFFSET $SG178442
  04a07	68 97 07 00 00	 push	 1943			; 00000797H
  04a0c	68 00 00 00 00	 push	 OFFSET $SG178443
  04a11	68 00 00 00 00	 push	 OFFSET $SG178444
  04a16	6a 07		 push	 7
  04a18	ff 15 00 00 00
	00		 call	 DWORD PTR __imp_?KGLogPrintf@@YAHW4KGLOG_PRIORITY@@QBDZZ
  04a1e	83 c4 14	 add	 esp, 20			; 00000014H
  04a21	3b f4		 cmp	 esi, esp
  04a23	e8 00 00 00 00	 call	 __RTC_CheckEsp
$LN3@DeleteAllO:
  04a28	33 d2		 xor	 edx, edx
  04a2a	75 ce		 jne	 SHORT $LN4@DeleteAllO

; 1944 : 
; 1945 : 	return true;

  04a2c	b8 01 00 00 00	 mov	 eax, 1

; 1946 : }

  04a31	5e		 pop	 esi
  04a32	83 c4 10	 add	 esp, 16			; 00000010H
  04a35	3b ec		 cmp	 ebp, esp
  04a37	e8 00 00 00 00	 call	 __RTC_CheckEsp
  04a3c	8b e5		 mov	 esp, ebp
  04a3e	5d		 pop	 ebp
  04a3f	c3		 ret	 0
?DeleteAllObject@KRegion@@QAEHXZ ENDP			; KRegion::DeleteAllObject
_TEXT	ENDS
PUBLIC	?DeleteAllCell@KRegion@@QAEHXZ			; KRegion::DeleteAllCell
; Function compile flags: /Odtp /RTCsu
_TEXT	SEGMENT
_pNext$178472 = -28					; size = 4
_pCell$178459 = -24					; size = 4
_pBaseCell$178458 = -20					; size = 4
_nYCell$178454 = -16					; size = 4
_nXCell$178450 = -12					; size = 4
_bResult$ = -8						; size = 4
_this$ = -4						; size = 4
?DeleteAllCell@KRegion@@QAEHXZ PROC			; KRegion::DeleteAllCell
; _this$ = ecx

; 1949 : {

  04a40	55		 push	 ebp
  04a41	8b ec		 mov	 ebp, esp
  04a43	83 ec 1c	 sub	 esp, 28			; 0000001cH
  04a46	56		 push	 esi
  04a47	b8 cc cc cc cc	 mov	 eax, -858993460		; ccccccccH
  04a4c	89 45 e4	 mov	 DWORD PTR [ebp-28], eax
  04a4f	89 45 e8	 mov	 DWORD PTR [ebp-24], eax
  04a52	89 45 ec	 mov	 DWORD PTR [ebp-20], eax
  04a55	89 45 f0	 mov	 DWORD PTR [ebp-16], eax
  04a58	89 45 f4	 mov	 DWORD PTR [ebp-12], eax
  04a5b	89 45 f8	 mov	 DWORD PTR [ebp-8], eax
  04a5e	89 45 fc	 mov	 DWORD PTR [ebp-4], eax
  04a61	89 4d fc	 mov	 DWORD PTR _this$[ebp], ecx

; 1950 :     BOOL bResult = false;

  04a64	c7 45 f8 00 00
	00 00		 mov	 DWORD PTR _bResult$[ebp], 0

; 1951 : 
; 1952 : 	for (int nXCell = 0; nXCell < REGION_GRID_WIDTH; nXCell++)

  04a6b	c7 45 f4 00 00
	00 00		 mov	 DWORD PTR _nXCell$178450[ebp], 0
  04a72	eb 09		 jmp	 SHORT $LN15@DeleteAllC
$LN14@DeleteAllC:
  04a74	8b 45 f4	 mov	 eax, DWORD PTR _nXCell$178450[ebp]
  04a77	83 c0 01	 add	 eax, 1
  04a7a	89 45 f4	 mov	 DWORD PTR _nXCell$178450[ebp], eax
$LN15@DeleteAllC:
  04a7d	83 7d f4 40	 cmp	 DWORD PTR _nXCell$178450[ebp], 64 ; 00000040H
  04a81	0f 8d c7 00 00
	00		 jge	 $LN13@DeleteAllC

; 1953 : 	{
; 1954 : 		for (int nYCell = 0; nYCell < REGION_GRID_HEIGHT; nYCell++)

  04a87	c7 45 f0 00 00
	00 00		 mov	 DWORD PTR _nYCell$178454[ebp], 0
  04a8e	eb 09		 jmp	 SHORT $LN12@DeleteAllC
$LN11@DeleteAllC:
  04a90	8b 4d f0	 mov	 ecx, DWORD PTR _nYCell$178454[ebp]
  04a93	83 c1 01	 add	 ecx, 1
  04a96	89 4d f0	 mov	 DWORD PTR _nYCell$178454[ebp], ecx
$LN12@DeleteAllC:
  04a99	83 7d f0 40	 cmp	 DWORD PTR _nYCell$178454[ebp], 64 ; 00000040H
  04a9d	0f 8d a6 00 00
	00		 jge	 $LN10@DeleteAllC

; 1955 : 		{
; 1956 : 			KCell* pBaseCell = GetLowestObstacle(nXCell, nYCell);

  04aa3	8b 55 f0	 mov	 edx, DWORD PTR _nYCell$178454[ebp]
  04aa6	52		 push	 edx
  04aa7	8b 45 f4	 mov	 eax, DWORD PTR _nXCell$178450[ebp]
  04aaa	50		 push	 eax
  04aab	8b 4d fc	 mov	 ecx, DWORD PTR _this$[ebp]
  04aae	e8 00 00 00 00	 call	 ?GetLowestObstacle@KRegion@@QAEPAUKCell@@HH@Z ; KRegion::GetLowestObstacle
  04ab3	89 45 ec	 mov	 DWORD PTR _pBaseCell$178458[ebp], eax

; 1957 :             KCell* pCell     = NULL;

  04ab6	c7 45 e8 00 00
	00 00		 mov	 DWORD PTR _pCell$178459[ebp], 0
$LN9@DeleteAllC:

; 1958 : 
; 1959 :             KGLOG_PROCESS_ERROR(pBaseCell);

  04abd	83 7d ec 00	 cmp	 DWORD PTR _pBaseCell$178458[ebp], 0
  04ac1	75 2c		 jne	 SHORT $LN8@DeleteAllC
  04ac3	8b f4		 mov	 esi, esp
  04ac5	68 00 00 00 00	 push	 OFFSET $SG178464
  04aca	68 a7 07 00 00	 push	 1959			; 000007a7H
  04acf	68 00 00 00 00	 push	 OFFSET $SG178465
  04ad4	68 00 00 00 00	 push	 OFFSET $SG178466
  04ad9	6a 07		 push	 7
  04adb	ff 15 00 00 00
	00		 call	 DWORD PTR __imp_?KGLogPrintf@@YAHW4KGLOG_PRIORITY@@QBDZZ
  04ae1	83 c4 14	 add	 esp, 20			; 00000014H
  04ae4	3b f4		 cmp	 esi, esp
  04ae6	e8 00 00 00 00	 call	 __RTC_CheckEsp
  04aeb	eb 68		 jmp	 SHORT $Exit0$178467
  04aed	eb 66		 jmp	 SHORT $Exit0$178467
$LN8@DeleteAllC:
  04aef	33 c9		 xor	 ecx, ecx
  04af1	75 ca		 jne	 SHORT $LN9@DeleteAllC

; 1960 : 
; 1961 :             pCell = pBaseCell->m_pNext;

  04af3	8b 55 ec	 mov	 edx, DWORD PTR _pBaseCell$178458[ebp]
  04af6	8b 42 08	 mov	 eax, DWORD PTR [edx+8]
  04af9	89 45 e8	 mov	 DWORD PTR _pCell$178459[ebp], eax
$LN4@DeleteAllC:

; 1962 : 
; 1963 : 			while (pCell)

  04afc	83 7d e8 00	 cmp	 DWORD PTR _pCell$178459[ebp], 0
  04b00	74 38		 je	 SHORT $LN3@DeleteAllC

; 1964 : 			{
; 1965 : 				KCell* pNext = pCell->m_pNext;

  04b02	8b 4d e8	 mov	 ecx, DWORD PTR _pCell$178459[ebp]
  04b05	8b 51 08	 mov	 edx, DWORD PTR [ecx+8]
  04b08	89 55 e4	 mov	 DWORD PTR _pNext$178472[ebp], edx

; 1966 : 
; 1967 :                 if (pCell->m_BaseInfo.dwDynamic)

  04b0b	8b 45 e8	 mov	 eax, DWORD PTR _pCell$178459[ebp]
  04b0e	8b 08		 mov	 ecx, DWORD PTR [eax]
  04b10	c1 e9 10	 shr	 ecx, 16			; 00000010H
  04b13	83 e1 01	 and	 ecx, 1
  04b16	74 0e		 je	 SHORT $LN2@DeleteAllC

; 1968 :                 {
; 1969 :                     KMemory::RawDelete((KDynamicCell*)pCell);

  04b18	8b 55 e8	 mov	 edx, DWORD PTR _pCell$178459[ebp]
  04b1b	52		 push	 edx
  04b1c	e8 00 00 00 00	 call	 ??$RawDelete@UKDynamicCell@@@KMemory@@YAXPAUKDynamicCell@@@Z ; KMemory::RawDelete<KDynamicCell>
  04b21	83 c4 04	 add	 esp, 4

; 1970 :                 }
; 1971 :                 else

  04b24	eb 0c		 jmp	 SHORT $LN1@DeleteAllC
$LN2@DeleteAllC:

; 1972 :                 {
; 1973 :                     KMemory::RawDelete(pCell);

  04b26	8b 45 e8	 mov	 eax, DWORD PTR _pCell$178459[ebp]
  04b29	50		 push	 eax
  04b2a	e8 00 00 00 00	 call	 ??$RawDelete@UKCell@@@KMemory@@YAXPAUKCell@@@Z ; KMemory::RawDelete<KCell>
  04b2f	83 c4 04	 add	 esp, 4
$LN1@DeleteAllC:

; 1974 :                 }
; 1975 : 
; 1976 :                 pCell = pNext;

  04b32	8b 4d e4	 mov	 ecx, DWORD PTR _pNext$178472[ebp]
  04b35	89 4d e8	 mov	 DWORD PTR _pCell$178459[ebp], ecx

; 1977 : 			}

  04b38	eb c2		 jmp	 SHORT $LN4@DeleteAllC
$LN3@DeleteAllC:

; 1978 : 
; 1979 :             pBaseCell->m_pNext = NULL;

  04b3a	8b 55 ec	 mov	 edx, DWORD PTR _pBaseCell$178458[ebp]
  04b3d	c7 42 08 00 00
	00 00		 mov	 DWORD PTR [edx+8], 0

; 1980 : 		}

  04b44	e9 47 ff ff ff	 jmp	 $LN11@DeleteAllC
$LN10@DeleteAllC:

; 1981 : 	}

  04b49	e9 26 ff ff ff	 jmp	 $LN14@DeleteAllC
$LN13@DeleteAllC:

; 1982 : 
; 1983 :     bResult = true;

  04b4e	c7 45 f8 01 00
	00 00		 mov	 DWORD PTR _bResult$[ebp], 1
$Exit0$178467:

; 1984 : Exit0:
; 1985 : 	return bResult;

  04b55	8b 45 f8	 mov	 eax, DWORD PTR _bResult$[ebp]

; 1986 : }

  04b58	5e		 pop	 esi
  04b59	83 c4 1c	 add	 esp, 28			; 0000001cH
  04b5c	3b ec		 cmp	 ebp, esp
  04b5e	e8 00 00 00 00	 call	 __RTC_CheckEsp
  04b63	8b e5		 mov	 esp, ebp
  04b65	5d		 pop	 ebp
  04b66	c3		 ret	 0
?DeleteAllCell@KRegion@@QAEHXZ ENDP			; KRegion::DeleteAllCell
_TEXT	ENDS
PUBLIC	?push_back@?$list@UKViewObject@KPlayer@@V?$KAllocator@UKViewObject@KPlayer@@@KMemory@@@std@@QAEXABUKViewObject@KPlayer@@@Z ; std::list<KPlayer::KViewObject,KMemory::KAllocator<KPlayer::KViewObject> >::push_back
PUBLIC	??0KViewObject@KPlayer@@QAE@KH@Z		; KPlayer::KViewObject::KViewObject
PUBLIC	??1?$pair@Viterator@?$_Tree@V?$_Tset_traits@KU?$less@K@std@@V?$KAllocator@K@KMemory@@$0A@@std@@@std@@_N@std@@QAE@XZ ; std::pair<std::_Tree<std::_Tset_traits<unsigned long,std::less<unsigned long>,KMemory::KAllocator<unsigned long>,0> >::iterator,bool>::~pair<std::_Tree<std::_Tset_traits<unsigned long,std::less<unsigned long>,KMemory::KAllocator<unsigned long>,0> >::iterator,bool>
PUBLIC	??4?$pair@Viterator@?$_Tree@V?$_Tset_traits@KU?$less@K@std@@V?$KAllocator@K@KMemory@@$0A@@std@@@std@@H@std@@QAEAAU01@ABU01@@Z ; std::pair<std::_Tree<std::_Tset_traits<unsigned long,std::less<unsigned long>,KMemory::KAllocator<unsigned long>,0> >::iterator,int>::operator=
PUBLIC	??$?0Viterator@?$_Tree@V?$_Tset_traits@KU?$less@K@std@@V?$KAllocator@K@KMemory@@$0A@@std@@@std@@_N@?$pair@Viterator@?$_Tree@V?$_Tset_traits@KU?$less@K@std@@V?$KAllocator@K@KMemory@@$0A@@std@@@std@@H@std@@QAE@ABU?$pair@Viterator@?$_Tree@V?$_Tset_traits@KU?$less@K@std@@V?$KAllocator@K@KMemory@@$0A@@std@@@std@@_N@1@@Z ; std::pair<std::_Tree<std::_Tset_traits<unsigned long,std::less<unsigned long>,KMemory::KAllocator<unsigned long>,0> >::iterator,int>::pair<std::_Tree<std::_Tset_traits<unsigned long,std::less<unsigned long>,KMemory::KAllocator<unsigned long>,0> >::iterator,int><std::_Tree<std::_Tset_traits<unsigned long,std::less<unsigned long>,KMemory::KAllocator<unsigned long>,0> >::iterator,bool>
PUBLIC	?insert@?$_Tree@V?$_Tset_traits@KU?$less@K@std@@V?$KAllocator@K@KMemory@@$0A@@std@@@std@@QAE?AU?$pair@Viterator@?$_Tree@V?$_Tset_traits@KU?$less@K@std@@V?$KAllocator@K@KMemory@@$0A@@std@@@std@@_N@2@ABK@Z ; std::_Tree<std::_Tset_traits<unsigned long,std::less<unsigned long>,KMemory::KAllocator<unsigned long>,0> >::insert
PUBLIC	??1?$pair@Viterator@?$_Tree@V?$_Tset_traits@KU?$less@K@std@@V?$KAllocator@K@KMemory@@$0A@@std@@@std@@H@std@@QAE@XZ ; std::pair<std::_Tree<std::_Tset_traits<unsigned long,std::less<unsigned long>,KMemory::KAllocator<unsigned long>,0> >::iterator,int>::~pair<std::_Tree<std::_Tset_traits<unsigned long,std::less<unsigned long>,KMemory::KAllocator<unsigned long>,0> >::iterator,int>
PUBLIC	??0?$pair@Viterator@?$_Tree@V?$_Tset_traits@KU?$less@K@std@@V?$KAllocator@K@KMemory@@$0A@@std@@@std@@H@std@@QAE@XZ ; std::pair<std::_Tree<std::_Tset_traits<unsigned long,std::less<unsigned long>,KMemory::KAllocator<unsigned long>,0> >::iterator,int>::pair<std::_Tree<std::_Tset_traits<unsigned long,std::less<unsigned long>,KMemory::KAllocator<unsigned long>,0> >::iterator,int>
PUBLIC	??RKRegisterNewNpcFunc@@QAEHPAVKPlayer@@@Z	; KRegisterNewNpcFunc::operator()
EXTRN	?IsInViewRangeByViewPoint@KPlayer@@QAEHPAVKRegion@@@Z:PROC ; KPlayer::IsInViewRangeByViewPoint
xdata$x	SEGMENT
__unwindtable$??RKRegisterNewNpcFunc@@QAEHPAVKPlayer@@@Z DD 0ffffffffH
	DD	FLAT:__unwindfunclet$??RKRegisterNewNpcFunc@@QAEHPAVKPlayer@@@Z$0
	DD	00H
	DD	FLAT:__unwindfunclet$??RKRegisterNewNpcFunc@@QAEHPAVKPlayer@@@Z$1
	DD	01H
	DD	FLAT:__unwindfunclet$??RKRegisterNewNpcFunc@@QAEHPAVKPlayer@@@Z$2
__ehfuncinfo$??RKRegisterNewNpcFunc@@QAEHPAVKPlayer@@@Z DD 019930522H
	DD	03H
	DD	FLAT:__unwindtable$??RKRegisterNewNpcFunc@@QAEHPAVKPlayer@@@Z
	DD	2 DUP(00H)
	DD	2 DUP(00H)
	DD	00H
	DD	01H
; Function compile flags: /Odtp /RTCsu
xdata$x	ENDS
_TEXT	SEGMENT
tv145 = -104						; size = 4
tv65 = -100						; size = 4
$T186896 = -96						; size = 4
$T186895 = -92						; size = 4
$T186894 = -88						; size = 8
$T186893 = -80						; size = 16
$T186892 = -64						; size = 16
$T186891 = -48						; size = 4
$T186890 = -44						; size = 4
_InsRet$ = -36						; size = 16
_this$ = -16						; size = 4
__$EHRec$ = -12						; size = 12
_pPlayer$ = 8						; size = 4
??RKRegisterNewNpcFunc@@QAEHPAVKPlayer@@@Z PROC		; KRegisterNewNpcFunc::operator()
; _this$ = ecx

; 1990 : {

  04b70	55		 push	 ebp
  04b71	8b ec		 mov	 ebp, esp
  04b73	6a ff		 push	 -1
  04b75	68 00 00 00 00	 push	 __ehhandler$??RKRegisterNewNpcFunc@@QAEHPAVKPlayer@@@Z
  04b7a	64 a1 00 00 00
	00		 mov	 eax, DWORD PTR fs:0
  04b80	50		 push	 eax
  04b81	83 ec 5c	 sub	 esp, 92			; 0000005cH
  04b84	57		 push	 edi
  04b85	51		 push	 ecx
  04b86	8d 7d 98	 lea	 edi, DWORD PTR [ebp-104]
  04b89	b9 17 00 00 00	 mov	 ecx, 23			; 00000017H
  04b8e	b8 cc cc cc cc	 mov	 eax, -858993460		; ccccccccH
  04b93	f3 ab		 rep stosd
  04b95	59		 pop	 ecx
  04b96	a1 00 00 00 00	 mov	 eax, DWORD PTR ___security_cookie
  04b9b	33 c5		 xor	 eax, ebp
  04b9d	50		 push	 eax
  04b9e	8d 45 f4	 lea	 eax, DWORD PTR __$EHRec$[ebp]
  04ba1	64 a3 00 00 00
	00		 mov	 DWORD PTR fs:0, eax
  04ba7	89 4d f0	 mov	 DWORD PTR _this$[ebp], ecx

; 1991 : 	std::pair<KPlayer::KVIEW_SYNC_TABLE::iterator, BOOL> InsRet;

  04baa	8d 4d dc	 lea	 ecx, DWORD PTR _InsRet$[ebp]
  04bad	e8 00 00 00 00	 call	 ??0?$pair@Viterator@?$_Tree@V?$_Tset_traits@KU?$less@K@std@@V?$KAllocator@K@KMemory@@$0A@@std@@@std@@H@std@@QAE@XZ ; std::pair<std::_Tree<std::_Tset_traits<unsigned long,std::less<unsigned long>,KMemory::KAllocator<unsigned long>,0> >::iterator,int>::pair<std::_Tree<std::_Tset_traits<unsigned long,std::less<unsigned long>,KMemory::KAllocator<unsigned long>,0> >::iterator,int>
  04bb2	c7 45 fc 00 00
	00 00		 mov	 DWORD PTR __$EHRec$[ebp+8], 0

; 1992 : 
; 1993 :     if (m_pNpc->m_dwOwner != ERROR_ID && m_pNpc->m_dwOwner != pPlayer->m_dwID)

  04bb9	8b 45 f0	 mov	 eax, DWORD PTR _this$[ebp]
  04bbc	8b 08		 mov	 ecx, DWORD PTR [eax]
  04bbe	83 b9 a0 00 00
	00 00		 cmp	 DWORD PTR [ecx+160], 0
  04bc5	74 31		 je	 SHORT $LN4@operator
  04bc7	8b 55 f0	 mov	 edx, DWORD PTR _this$[ebp]
  04bca	8b 02		 mov	 eax, DWORD PTR [edx]
  04bcc	8b 4d 08	 mov	 ecx, DWORD PTR _pPlayer$[ebp]
  04bcf	8b 90 a0 00 00
	00		 mov	 edx, DWORD PTR [eax+160]
  04bd5	3b 51 04	 cmp	 edx, DWORD PTR [ecx+4]
  04bd8	74 1e		 je	 SHORT $LN4@operator

; 1994 :         return true;

  04bda	c7 45 d4 01 00
	00 00		 mov	 DWORD PTR $T186890[ebp], 1
  04be1	c7 45 fc ff ff
	ff ff		 mov	 DWORD PTR __$EHRec$[ebp+8], -1
  04be8	8d 4d dc	 lea	 ecx, DWORD PTR _InsRet$[ebp]
  04beb	e8 00 00 00 00	 call	 ??1?$pair@Viterator@?$_Tree@V?$_Tset_traits@KU?$less@K@std@@V?$KAllocator@K@KMemory@@$0A@@std@@@std@@H@std@@QAE@XZ
  04bf0	8b 45 d4	 mov	 eax, DWORD PTR $T186890[ebp]
  04bf3	e9 16 01 00 00	 jmp	 $LN5@operator
$LN4@operator:

; 1995 : 
; 1996 :     // playerViewPoint
; 1997 :     if (m_pFromRegion && pPlayer->m_ViewPoint.pRegion && pPlayer->IsInViewRangeByViewPoint(m_pFromRegion))

  04bf8	8b 45 f0	 mov	 eax, DWORD PTR _this$[ebp]
  04bfb	83 78 04 00	 cmp	 DWORD PTR [eax+4], 0
  04bff	74 3d		 je	 SHORT $LN3@operator
  04c01	8b 4d 08	 mov	 ecx, DWORD PTR _pPlayer$[ebp]
  04c04	83 b9 1c 8a 00
	00 00		 cmp	 DWORD PTR [ecx+35356], 0
  04c0b	74 31		 je	 SHORT $LN3@operator
  04c0d	8b 55 f0	 mov	 edx, DWORD PTR _this$[ebp]
  04c10	8b 42 04	 mov	 eax, DWORD PTR [edx+4]
  04c13	50		 push	 eax
  04c14	8b 4d 08	 mov	 ecx, DWORD PTR _pPlayer$[ebp]
  04c17	e8 00 00 00 00	 call	 ?IsInViewRangeByViewPoint@KPlayer@@QAEHPAVKRegion@@@Z ; KPlayer::IsInViewRangeByViewPoint
  04c1c	85 c0		 test	 eax, eax
  04c1e	74 1e		 je	 SHORT $LN3@operator

; 1998 :         return true;

  04c20	c7 45 d0 01 00
	00 00		 mov	 DWORD PTR $T186891[ebp], 1
  04c27	c7 45 fc ff ff
	ff ff		 mov	 DWORD PTR __$EHRec$[ebp+8], -1
  04c2e	8d 4d dc	 lea	 ecx, DWORD PTR _InsRet$[ebp]
  04c31	e8 00 00 00 00	 call	 ??1?$pair@Viterator@?$_Tree@V?$_Tset_traits@KU?$less@K@std@@V?$KAllocator@K@KMemory@@$0A@@std@@@std@@H@std@@QAE@XZ
  04c36	8b 45 d0	 mov	 eax, DWORD PTR $T186891[ebp]
  04c39	e9 d0 00 00 00	 jmp	 $LN5@operator
$LN3@operator:

; 1999 : 
; 2000 :     InsRet = pPlayer->m_NpcSyncTable.insert(m_pNpc->m_dwID);

  04c3e	8b 4d f0	 mov	 ecx, DWORD PTR _this$[ebp]
  04c41	8b 11		 mov	 edx, DWORD PTR [ecx]
  04c43	83 c2 04	 add	 edx, 4
  04c46	52		 push	 edx
  04c47	8d 45 b0	 lea	 eax, DWORD PTR $T186893[ebp]
  04c4a	50		 push	 eax
  04c4b	8b 4d 08	 mov	 ecx, DWORD PTR _pPlayer$[ebp]
  04c4e	81 c1 a4 89 00
	00		 add	 ecx, 35236		; 000089a4H
  04c54	e8 00 00 00 00	 call	 ?insert@?$_Tree@V?$_Tset_traits@KU?$less@K@std@@V?$KAllocator@K@KMemory@@$0A@@std@@@std@@QAE?AU?$pair@Viterator@?$_Tree@V?$_Tset_traits@KU?$less@K@std@@V?$KAllocator@K@KMemory@@$0A@@std@@@std@@_N@2@ABK@Z ; std::_Tree<std::_Tset_traits<unsigned long,std::less<unsigned long>,KMemory::KAllocator<unsigned long>,0> >::insert
  04c59	89 45 9c	 mov	 DWORD PTR tv65[ebp], eax
  04c5c	8b 4d 9c	 mov	 ecx, DWORD PTR tv65[ebp]
  04c5f	89 4d 98	 mov	 DWORD PTR tv145[ebp], ecx
  04c62	c6 45 fc 01	 mov	 BYTE PTR __$EHRec$[ebp+8], 1
  04c66	8b 55 98	 mov	 edx, DWORD PTR tv145[ebp]
  04c69	52		 push	 edx
  04c6a	8d 4d c0	 lea	 ecx, DWORD PTR $T186892[ebp]
  04c6d	e8 00 00 00 00	 call	 ??$?0Viterator@?$_Tree@V?$_Tset_traits@KU?$less@K@std@@V?$KAllocator@K@KMemory@@$0A@@std@@@std@@_N@?$pair@Viterator@?$_Tree@V?$_Tset_traits@KU?$less@K@std@@V?$KAllocator@K@KMemory@@$0A@@std@@@std@@H@std@@QAE@ABU?$pair@Viterator@?$_Tree@V?$_Tset_traits@KU?$less@K@std@@V?$KAllocator@K@KMemory@@$0A@@std@@@std@@_N@1@@Z ; std::pair<std::_Tree<std::_Tset_traits<unsigned long,std::less<unsigned long>,KMemory::KAllocator<unsigned long>,0> >::iterator,int>::pair<std::_Tree<std::_Tset_traits<unsigned long,std::less<unsigned long>,KMemory::KAllocator<unsigned long>,0> >::iterator,int><std::_Tree<std::_Tset_traits<unsigned long,std::less<unsigned long>,KMemory::KAllocator<unsigned long>,0> >::iterator,bool>
  04c72	c6 45 fc 02	 mov	 BYTE PTR __$EHRec$[ebp+8], 2
  04c76	8d 45 c0	 lea	 eax, DWORD PTR $T186892[ebp]
  04c79	50		 push	 eax
  04c7a	8d 4d dc	 lea	 ecx, DWORD PTR _InsRet$[ebp]
  04c7d	e8 00 00 00 00	 call	 ??4?$pair@Viterator@?$_Tree@V?$_Tset_traits@KU?$less@K@std@@V?$KAllocator@K@KMemory@@$0A@@std@@@std@@H@std@@QAEAAU01@ABU01@@Z
  04c82	c6 45 fc 01	 mov	 BYTE PTR __$EHRec$[ebp+8], 1
  04c86	8d 4d c0	 lea	 ecx, DWORD PTR $T186892[ebp]
  04c89	e8 00 00 00 00	 call	 ??1?$pair@Viterator@?$_Tree@V?$_Tset_traits@KU?$less@K@std@@V?$KAllocator@K@KMemory@@$0A@@std@@@std@@H@std@@QAE@XZ
  04c8e	c6 45 fc 00	 mov	 BYTE PTR __$EHRec$[ebp+8], 0
  04c92	8d 4d b0	 lea	 ecx, DWORD PTR $T186893[ebp]
  04c95	e8 00 00 00 00	 call	 ??1?$pair@Viterator@?$_Tree@V?$_Tset_traits@KU?$less@K@std@@V?$KAllocator@K@KMemory@@$0A@@std@@@std@@_N@std@@QAE@XZ

; 2001 :     if (InsRet.second)

  04c9a	83 7d e8 00	 cmp	 DWORD PTR _InsRet$[ebp+12], 0
  04c9e	74 2c		 je	 SHORT $LN2@operator

; 2002 :     {
; 2003 :         pPlayer->m_NpcSyncQueue.push_back(KPlayer::KViewObject(m_pNpc->m_dwID, g_pSO3World->m_nGameLoop + VIEW_SYNC_DELAY));

  04ca0	8b 0d 00 00 00
	00		 mov	 ecx, DWORD PTR ?g_pSO3World@@3PAVKSO3World@@A ; g_pSO3World
  04ca6	8b 11		 mov	 edx, DWORD PTR [ecx]
  04ca8	83 c2 10	 add	 edx, 16			; 00000010H
  04cab	52		 push	 edx
  04cac	8b 45 f0	 mov	 eax, DWORD PTR _this$[ebp]
  04caf	8b 08		 mov	 ecx, DWORD PTR [eax]
  04cb1	8b 51 04	 mov	 edx, DWORD PTR [ecx+4]
  04cb4	52		 push	 edx
  04cb5	8d 4d a8	 lea	 ecx, DWORD PTR $T186894[ebp]
  04cb8	e8 00 00 00 00	 call	 ??0KViewObject@KPlayer@@QAE@KH@Z ; KPlayer::KViewObject::KViewObject
  04cbd	50		 push	 eax
  04cbe	8b 4d 08	 mov	 ecx, DWORD PTR _pPlayer$[ebp]
  04cc1	81 c1 c0 89 00
	00		 add	 ecx, 35264		; 000089c0H
  04cc7	e8 00 00 00 00	 call	 ?push_back@?$list@UKViewObject@KPlayer@@V?$KAllocator@UKViewObject@KPlayer@@@KMemory@@@std@@QAEXABUKViewObject@KPlayer@@@Z ; std::list<KPlayer::KViewObject,KMemory::KAllocator<KPlayer::KViewObject> >::push_back
$LN2@operator:

; 2004 :     }
; 2005 : 
; 2006 :     if (m_pNpc->m_dwOwner != ERROR_ID)

  04ccc	8b 45 f0	 mov	 eax, DWORD PTR _this$[ebp]
  04ccf	8b 08		 mov	 ecx, DWORD PTR [eax]
  04cd1	83 b9 a0 00 00
	00 00		 cmp	 DWORD PTR [ecx+160], 0
  04cd8	74 1b		 je	 SHORT $LN1@operator

; 2007 :     {
; 2008 :         // Owner,
; 2009 :         return false;

  04cda	c7 45 a4 00 00
	00 00		 mov	 DWORD PTR $T186895[ebp], 0
  04ce1	c7 45 fc ff ff
	ff ff		 mov	 DWORD PTR __$EHRec$[ebp+8], -1
  04ce8	8d 4d dc	 lea	 ecx, DWORD PTR _InsRet$[ebp]
  04ceb	e8 00 00 00 00	 call	 ??1?$pair@Viterator@?$_Tree@V?$_Tset_traits@KU?$less@K@std@@V?$KAllocator@K@KMemory@@$0A@@std@@@std@@H@std@@QAE@XZ
  04cf0	8b 45 a4	 mov	 eax, DWORD PTR $T186895[ebp]
  04cf3	eb 19		 jmp	 SHORT $LN5@operator
$LN1@operator:

; 2010 :     }
; 2011 : 
; 2012 :     return true;

  04cf5	c7 45 a0 01 00
	00 00		 mov	 DWORD PTR $T186896[ebp], 1
  04cfc	c7 45 fc ff ff
	ff ff		 mov	 DWORD PTR __$EHRec$[ebp+8], -1
  04d03	8d 4d dc	 lea	 ecx, DWORD PTR _InsRet$[ebp]
  04d06	e8 00 00 00 00	 call	 ??1?$pair@Viterator@?$_Tree@V?$_Tset_traits@KU?$less@K@std@@V?$KAllocator@K@KMemory@@$0A@@std@@@std@@H@std@@QAE@XZ
  04d0b	8b 45 a0	 mov	 eax, DWORD PTR $T186896[ebp]
$LN5@operator:

; 2013 : }

  04d0e	52		 push	 edx
  04d0f	8b cd		 mov	 ecx, ebp
  04d11	50		 push	 eax
  04d12	8d 15 00 00 00
	00		 lea	 edx, DWORD PTR $LN13@operator
  04d18	e8 00 00 00 00	 call	 @_RTC_CheckStackVars@8
  04d1d	58		 pop	 eax
  04d1e	5a		 pop	 edx
  04d1f	8b 4d f4	 mov	 ecx, DWORD PTR __$EHRec$[ebp]
  04d22	64 89 0d 00 00
	00 00		 mov	 DWORD PTR fs:0, ecx
  04d29	59		 pop	 ecx
  04d2a	5f		 pop	 edi
  04d2b	83 c4 68	 add	 esp, 104		; 00000068H
  04d2e	3b ec		 cmp	 ebp, esp
  04d30	e8 00 00 00 00	 call	 __RTC_CheckEsp
  04d35	8b e5		 mov	 esp, ebp
  04d37	5d		 pop	 ebp
  04d38	c2 04 00	 ret	 4
  04d3b	90		 npad	 1
$LN13@operator:
  04d3c	01 00 00 00	 DD	 1
  04d40	00 00 00 00	 DD	 $LN12@operator
$LN12@operator:
  04d44	dc ff ff ff	 DD	 -36			; ffffffdcH
  04d48	10 00 00 00	 DD	 16			; 00000010H
  04d4c	00 00 00 00	 DD	 $LN10@operator
$LN10@operator:
  04d50	49		 DB	 73			; 00000049H
  04d51	6e		 DB	 110			; 0000006eH
  04d52	73		 DB	 115			; 00000073H
  04d53	52		 DB	 82			; 00000052H
  04d54	65		 DB	 101			; 00000065H
  04d55	74		 DB	 116			; 00000074H
  04d56	00		 DB	 0
_TEXT	ENDS
text$x	SEGMENT
__unwindfunclet$??RKRegisterNewNpcFunc@@QAEHPAVKPlayer@@@Z$0:
  00078	8d 4d dc	 lea	 ecx, DWORD PTR _InsRet$[ebp]
  0007b	e9 00 00 00 00	 jmp	 ??1?$pair@Viterator@?$_Tree@V?$_Tset_traits@KU?$less@K@std@@V?$KAllocator@K@KMemory@@$0A@@std@@@std@@H@std@@QAE@XZ
__unwindfunclet$??RKRegisterNewNpcFunc@@QAEHPAVKPlayer@@@Z$1:
  00080	8d 4d b0	 lea	 ecx, DWORD PTR $T186893[ebp]
  00083	e9 00 00 00 00	 jmp	 ??1?$pair@Viterator@?$_Tree@V?$_Tset_traits@KU?$less@K@std@@V?$KAllocator@K@KMemory@@$0A@@std@@@std@@_N@std@@QAE@XZ
__unwindfunclet$??RKRegisterNewNpcFunc@@QAEHPAVKPlayer@@@Z$2:
  00088	8d 4d c0	 lea	 ecx, DWORD PTR $T186892[ebp]
  0008b	e9 00 00 00 00	 jmp	 ??1?$pair@Viterator@?$_Tree@V?$_Tset_traits@KU?$less@K@std@@V?$KAllocator@K@KMemory@@$0A@@std@@@std@@H@std@@QAE@XZ
__ehhandler$??RKRegisterNewNpcFunc@@QAEHPAVKPlayer@@@Z:
  00090	8b 54 24 08	 mov	 edx, DWORD PTR [esp+8]
  00094	8d 42 0c	 lea	 eax, DWORD PTR [edx+12]
  00097	8b 4a 9c	 mov	 ecx, DWORD PTR [edx-100]
  0009a	33 c8		 xor	 ecx, eax
  0009c	e8 00 00 00 00	 call	 @__security_check_cookie@4
  000a1	b8 00 00 00 00	 mov	 eax, OFFSET __ehfuncinfo$??RKRegisterNewNpcFunc@@QAEHPAVKPlayer@@@Z
  000a6	e9 00 00 00 00	 jmp	 ___CxxFrameHandler3
text$x	ENDS
??RKRegisterNewNpcFunc@@QAEHPAVKPlayer@@@Z ENDP		; KRegisterNewNpcFunc::operator()
; Function compile flags: /Odtp /RTCsu
; File d:\code\game\sword3\source\common\so3world\src\kplayer.h
;	COMDAT ??0KViewObject@KPlayer@@QAE@KH@Z
_TEXT	SEGMENT
_this$ = -4						; size = 4
_dwID$ = 8						; size = 4
_nFrame$ = 12						; size = 4
??0KViewObject@KPlayer@@QAE@KH@Z PROC			; KPlayer::KViewObject::KViewObject, COMDAT
; _this$ = ecx

; 447  :         KViewObject(DWORD dwID, int nFrame) : dwObjectID(dwID), nViewFrame(nFrame) {};

  00000	55		 push	 ebp
  00001	8b ec		 mov	 ebp, esp
  00003	51		 push	 ecx
  00004	c7 45 fc cc cc
	cc cc		 mov	 DWORD PTR [ebp-4], -858993460 ; ccccccccH
  0000b	89 4d fc	 mov	 DWORD PTR _this$[ebp], ecx
  0000e	8b 45 fc	 mov	 eax, DWORD PTR _this$[ebp]
  00011	8b 4d 08	 mov	 ecx, DWORD PTR _dwID$[ebp]
  00014	89 08		 mov	 DWORD PTR [eax], ecx
  00016	8b 55 fc	 mov	 edx, DWORD PTR _this$[ebp]
  00019	8b 45 0c	 mov	 eax, DWORD PTR _nFrame$[ebp]
  0001c	89 42 04	 mov	 DWORD PTR [edx+4], eax
  0001f	8b 45 fc	 mov	 eax, DWORD PTR _this$[ebp]
  00022	8b e5		 mov	 esp, ebp
  00024	5d		 pop	 ebp
  00025	c2 08 00	 ret	 8
??0KViewObject@KPlayer@@QAE@KH@Z ENDP			; KPlayer::KViewObject::KViewObject
_TEXT	ENDS
PUBLIC	??1iterator@?$_Tree@V?$_Tset_traits@KU?$less@K@std@@V?$KAllocator@K@KMemory@@$0A@@std@@@std@@QAE@XZ ; std::_Tree<std::_Tset_traits<unsigned long,std::less<unsigned long>,KMemory::KAllocator<unsigned long>,0> >::iterator::~iterator
; Function compile flags: /Odtp /RTCsu
;	COMDAT ??1?$pair@Viterator@?$_Tree@V?$_Tset_traits@KU?$less@K@std@@V?$KAllocator@K@KMemory@@$0A@@std@@@std@@H@std@@QAE@XZ
_TEXT	SEGMENT
_this$ = -4						; size = 4
??1?$pair@Viterator@?$_Tree@V?$_Tset_traits@KU?$less@K@std@@V?$KAllocator@K@KMemory@@$0A@@std@@@std@@H@std@@QAE@XZ PROC ; std::pair<std::_Tree<std::_Tset_traits<unsigned long,std::less<unsigned long>,KMemory::KAllocator<unsigned long>,0> >::iterator,int>::~pair<std::_Tree<std::_Tset_traits<unsigned long,std::less<unsigned long>,KMemory::KAllocator<unsigned long>,0> >::iterator,int>, COMDAT
; _this$ = ecx
  00000	55		 push	 ebp
  00001	8b ec		 mov	 ebp, esp
  00003	51		 push	 ecx
  00004	c7 45 fc cc cc
	cc cc		 mov	 DWORD PTR [ebp-4], -858993460 ; ccccccccH
  0000b	89 4d fc	 mov	 DWORD PTR _this$[ebp], ecx
  0000e	8b 4d fc	 mov	 ecx, DWORD PTR _this$[ebp]
  00011	e8 00 00 00 00	 call	 ??1iterator@?$_Tree@V?$_Tset_traits@KU?$less@K@std@@V?$KAllocator@K@KMemory@@$0A@@std@@@std@@QAE@XZ
  00016	83 c4 04	 add	 esp, 4
  00019	3b ec		 cmp	 ebp, esp
  0001b	e8 00 00 00 00	 call	 __RTC_CheckEsp
  00020	8b e5		 mov	 esp, ebp
  00022	5d		 pop	 ebp
  00023	c3		 ret	 0
??1?$pair@Viterator@?$_Tree@V?$_Tset_traits@KU?$less@K@std@@V?$KAllocator@K@KMemory@@$0A@@std@@@std@@H@std@@QAE@XZ ENDP ; std::pair<std::_Tree<std::_Tset_traits<unsigned long,std::less<unsigned long>,KMemory::KAllocator<unsigned long>,0> >::iterator,int>::~pair<std::_Tree<std::_Tset_traits<unsigned long,std::less<unsigned long>,KMemory::KAllocator<unsigned long>,0> >::iterator,int>
; Function compile flags: /Odtp /RTCsu
_TEXT	ENDS
;	COMDAT ??1?$pair@Viterator@?$_Tree@V?$_Tset_traits@KU?$less@K@std@@V?$KAllocator@K@KMemory@@$0A@@std@@@std@@_N@std@@QAE@XZ
_TEXT	SEGMENT
_this$ = -4						; size = 4
??1?$pair@Viterator@?$_Tree@V?$_Tset_traits@KU?$less@K@std@@V?$KAllocator@K@KMemory@@$0A@@std@@@std@@_N@std@@QAE@XZ PROC ; std::pair<std::_Tree<std::_Tset_traits<unsigned long,std::less<unsigned long>,KMemory::KAllocator<unsigned long>,0> >::iterator,bool>::~pair<std::_Tree<std::_Tset_traits<unsigned long,std::less<unsigned long>,KMemory::KAllocator<unsigned long>,0> >::iterator,bool>, COMDAT
; _this$ = ecx
  00000	55		 push	 ebp
  00001	8b ec		 mov	 ebp, esp
  00003	51		 push	 ecx
  00004	c7 45 fc cc cc
	cc cc		 mov	 DWORD PTR [ebp-4], -858993460 ; ccccccccH
  0000b	89 4d fc	 mov	 DWORD PTR _this$[ebp], ecx
  0000e	8b 4d fc	 mov	 ecx, DWORD PTR _this$[ebp]
  00011	e8 00 00 00 00	 call	 ??1iterator@?$_Tree@V?$_Tset_traits@KU?$less@K@std@@V?$KAllocator@K@KMemory@@$0A@@std@@@std@@QAE@XZ
  00016	83 c4 04	 add	 esp, 4
  00019	3b ec		 cmp	 ebp, esp
  0001b	e8 00 00 00 00	 call	 __RTC_CheckEsp
  00020	8b e5		 mov	 esp, ebp
  00022	5d		 pop	 ebp
  00023	c3		 ret	 0
??1?$pair@Viterator@?$_Tree@V?$_Tset_traits@KU?$less@K@std@@V?$KAllocator@K@KMemory@@$0A@@std@@@std@@_N@std@@QAE@XZ ENDP ; std::pair<std::_Tree<std::_Tset_traits<unsigned long,std::less<unsigned long>,KMemory::KAllocator<unsigned long>,0> >::iterator,bool>::~pair<std::_Tree<std::_Tset_traits<unsigned long,std::less<unsigned long>,KMemory::KAllocator<unsigned long>,0> >::iterator,bool>
_TEXT	ENDS
PUBLIC	??4iterator@?$_Tree@V?$_Tset_traits@KU?$less@K@std@@V?$KAllocator@K@KMemory@@$0A@@std@@@std@@QAEAAV012@ABV012@@Z ; std::_Tree<std::_Tset_traits<unsigned long,std::less<unsigned long>,KMemory::KAllocator<unsigned long>,0> >::iterator::operator=
; Function compile flags: /Odtp /RTCsu
;	COMDAT ??4?$pair@Viterator@?$_Tree@V?$_Tset_traits@KU?$less@K@std@@V?$KAllocator@K@KMemory@@$0A@@std@@@std@@H@std@@QAEAAU01@ABU01@@Z
_TEXT	SEGMENT
_this$ = -4						; size = 4
___that$ = 8						; size = 4
??4?$pair@Viterator@?$_Tree@V?$_Tset_traits@KU?$less@K@std@@V?$KAllocator@K@KMemory@@$0A@@std@@@std@@H@std@@QAEAAU01@ABU01@@Z PROC ; std::pair<std::_Tree<std::_Tset_traits<unsigned long,std::less<unsigned long>,KMemory::KAllocator<unsigned long>,0> >::iterator,int>::operator=, COMDAT
; _this$ = ecx
  00000	55		 push	 ebp
  00001	8b ec		 mov	 ebp, esp
  00003	51		 push	 ecx
  00004	c7 45 fc cc cc
	cc cc		 mov	 DWORD PTR [ebp-4], -858993460 ; ccccccccH
  0000b	89 4d fc	 mov	 DWORD PTR _this$[ebp], ecx
  0000e	8b 45 08	 mov	 eax, DWORD PTR ___that$[ebp]
  00011	50		 push	 eax
  00012	8b 4d fc	 mov	 ecx, DWORD PTR _this$[ebp]
  00015	e8 00 00 00 00	 call	 ??4iterator@?$_Tree@V?$_Tset_traits@KU?$less@K@std@@V?$KAllocator@K@KMemory@@$0A@@std@@@std@@QAEAAV012@ABV012@@Z
  0001a	8b 4d fc	 mov	 ecx, DWORD PTR _this$[ebp]
  0001d	8b 55 08	 mov	 edx, DWORD PTR ___that$[ebp]
  00020	8b 42 0c	 mov	 eax, DWORD PTR [edx+12]
  00023	89 41 0c	 mov	 DWORD PTR [ecx+12], eax
  00026	8b 45 fc	 mov	 eax, DWORD PTR _this$[ebp]
  00029	83 c4 04	 add	 esp, 4
  0002c	3b ec		 cmp	 ebp, esp
  0002e	e8 00 00 00 00	 call	 __RTC_CheckEsp
  00033	8b e5		 mov	 esp, ebp
  00035	5d		 pop	 ebp
  00036	c2 04 00	 ret	 4
??4?$pair@Viterator@?$_Tree@V?$_Tset_traits@KU?$less@K@std@@V?$KAllocator@K@KMemory@@$0A@@std@@@std@@H@std@@QAEAAU01@ABU01@@Z ENDP ; std::pair<std::_Tree<std::_Tset_traits<unsigned long,std::less<unsigned long>,KMemory::KAllocator<unsigned long>,0> >::iterator,int>::operator=
_TEXT	ENDS
PUBLIC	??1const_iterator@?$_Tree@V?$_Tset_traits@KU?$less@K@std@@V?$KAllocator@K@KMemory@@$0A@@std@@@std@@QAE@XZ ; std::_Tree<std::_Tset_traits<unsigned long,std::less<unsigned long>,KMemory::KAllocator<unsigned long>,0> >::const_iterator::~const_iterator
; Function compile flags: /Odtp /RTCsu
;	COMDAT ??1iterator@?$_Tree@V?$_Tset_traits@KU?$less@K@std@@V?$KAllocator@K@KMemory@@$0A@@std@@@std@@QAE@XZ
_TEXT	SEGMENT
_this$ = -4						; size = 4
??1iterator@?$_Tree@V?$_Tset_traits@KU?$less@K@std@@V?$KAllocator@K@KMemory@@$0A@@std@@@std@@QAE@XZ PROC ; std::_Tree<std::_Tset_traits<unsigned long,std::less<unsigned long>,KMemory::KAllocator<unsigned long>,0> >::iterator::~iterator, COMDAT
; _this$ = ecx
  00000	55		 push	 ebp
  00001	8b ec		 mov	 ebp, esp
  00003	51		 push	 ecx
  00004	c7 45 fc cc cc
	cc cc		 mov	 DWORD PTR [ebp-4], -858993460 ; ccccccccH
  0000b	89 4d fc	 mov	 DWORD PTR _this$[ebp], ecx
  0000e	8b 4d fc	 mov	 ecx, DWORD PTR _this$[ebp]
  00011	e8 00 00 00 00	 call	 ??1const_iterator@?$_Tree@V?$_Tset_traits@KU?$less@K@std@@V?$KAllocator@K@KMemory@@$0A@@std@@@std@@QAE@XZ
  00016	83 c4 04	 add	 esp, 4
  00019	3b ec		 cmp	 ebp, esp
  0001b	e8 00 00 00 00	 call	 __RTC_CheckEsp
  00020	8b e5		 mov	 esp, ebp
  00022	5d		 pop	 ebp
  00023	c3		 ret	 0
??1iterator@?$_Tree@V?$_Tset_traits@KU?$less@K@std@@V?$KAllocator@K@KMemory@@$0A@@std@@@std@@QAE@XZ ENDP ; std::_Tree<std::_Tset_traits<unsigned long,std::less<unsigned long>,KMemory::KAllocator<unsigned long>,0> >::iterator::~iterator
_TEXT	ENDS
PUBLIC	??4const_iterator@?$_Tree@V?$_Tset_traits@KU?$less@K@std@@V?$KAllocator@K@KMemory@@$0A@@std@@@std@@QAEAAV012@ABV012@@Z ; std::_Tree<std::_Tset_traits<unsigned long,std::less<unsigned long>,KMemory::KAllocator<unsigned long>,0> >::const_iterator::operator=
; Function compile flags: /Odtp /RTCsu
;	COMDAT ??4iterator@?$_Tree@V?$_Tset_traits@KU?$less@K@std@@V?$KAllocator@K@KMemory@@$0A@@std@@@std@@QAEAAV012@ABV012@@Z
_TEXT	SEGMENT
_this$ = -4						; size = 4
___that$ = 8						; size = 4
??4iterator@?$_Tree@V?$_Tset_traits@KU?$less@K@std@@V?$KAllocator@K@KMemory@@$0A@@std@@@std@@QAEAAV012@ABV012@@Z PROC ; std::_Tree<std::_Tset_traits<unsigned long,std::less<unsigned long>,KMemory::KAllocator<unsigned long>,0> >::iterator::operator=, COMDAT
; _this$ = ecx
  00000	55		 push	 ebp
  00001	8b ec		 mov	 ebp, esp
  00003	51		 push	 ecx
  00004	c7 45 fc cc cc
	cc cc		 mov	 DWORD PTR [ebp-4], -858993460 ; ccccccccH
  0000b	89 4d fc	 mov	 DWORD PTR _this$[ebp], ecx
  0000e	8b 45 08	 mov	 eax, DWORD PTR ___that$[ebp]
  00011	50		 push	 eax
  00012	8b 4d fc	 mov	 ecx, DWORD PTR _this$[ebp]
  00015	e8 00 00 00 00	 call	 ??4const_iterator@?$_Tree@V?$_Tset_traits@KU?$less@K@std@@V?$KAllocator@K@KMemory@@$0A@@std@@@std@@QAEAAV012@ABV012@@Z
  0001a	8b 45 fc	 mov	 eax, DWORD PTR _this$[ebp]
  0001d	83 c4 04	 add	 esp, 4
  00020	3b ec		 cmp	 ebp, esp
  00022	e8 00 00 00 00	 call	 __RTC_CheckEsp
  00027	8b e5		 mov	 esp, ebp
  00029	5d		 pop	 ebp
  0002a	c2 04 00	 ret	 4
??4iterator@?$_Tree@V?$_Tset_traits@KU?$less@K@std@@V?$KAllocator@K@KMemory@@$0A@@std@@@std@@QAEAAV012@ABV012@@Z ENDP ; std::_Tree<std::_Tset_traits<unsigned long,std::less<unsigned long>,KMemory::KAllocator<unsigned long>,0> >::iterator::operator=
_TEXT	ENDS
PUBLIC	??1?$_Bidit@KHPBKABK@std@@QAE@XZ		; std::_Bidit<unsigned long,int,unsigned long const *,unsigned long const &>::~_Bidit<unsigned long,int,unsigned long const *,unsigned long const &>
; Function compile flags: /Odtp /RTCsu
;	COMDAT ??1const_iterator@?$_Tree@V?$_Tset_traits@KU?$less@K@std@@V?$KAllocator@K@KMemory@@$0A@@std@@@std@@QAE@XZ
_TEXT	SEGMENT
_this$ = -4						; size = 4
??1const_iterator@?$_Tree@V?$_Tset_traits@KU?$less@K@std@@V?$KAllocator@K@KMemory@@$0A@@std@@@std@@QAE@XZ PROC ; std::_Tree<std::_Tset_traits<unsigned long,std::less<unsigned long>,KMemory::KAllocator<unsigned long>,0> >::const_iterator::~const_iterator, COMDAT
; _this$ = ecx
  00000	55		 push	 ebp
  00001	8b ec		 mov	 ebp, esp
  00003	51		 push	 ecx
  00004	c7 45 fc cc cc
	cc cc		 mov	 DWORD PTR [ebp-4], -858993460 ; ccccccccH
  0000b	89 4d fc	 mov	 DWORD PTR _this$[ebp], ecx
  0000e	8b 4d fc	 mov	 ecx, DWORD PTR _this$[ebp]
  00011	e8 00 00 00 00	 call	 ??1?$_Bidit@KHPBKABK@std@@QAE@XZ
  00016	83 c4 04	 add	 esp, 4
  00019	3b ec		 cmp	 ebp, esp
  0001b	e8 00 00 00 00	 call	 __RTC_CheckEsp
  00020	8b e5		 mov	 esp, ebp
  00022	5d		 pop	 ebp
  00023	c3		 ret	 0
??1const_iterator@?$_Tree@V?$_Tset_traits@KU?$less@K@std@@V?$KAllocator@K@KMemory@@$0A@@std@@@std@@QAE@XZ ENDP ; std::_Tree<std::_Tset_traits<unsigned long,std::less<unsigned long>,KMemory::KAllocator<unsigned long>,0> >::const_iterator::~const_iterator
_TEXT	ENDS
PUBLIC	??4?$_Bidit@KHPBKABK@std@@QAEAAU01@ABU01@@Z	; std::_Bidit<unsigned long,int,unsigned long const *,unsigned long const &>::operator=
; Function compile flags: /Odtp /RTCsu
;	COMDAT ??4const_iterator@?$_Tree@V?$_Tset_traits@KU?$less@K@std@@V?$KAllocator@K@KMemory@@$0A@@std@@@std@@QAEAAV012@ABV012@@Z
_TEXT	SEGMENT
_this$ = -4						; size = 4
___that$ = 8						; size = 4
??4const_iterator@?$_Tree@V?$_Tset_traits@KU?$less@K@std@@V?$KAllocator@K@KMemory@@$0A@@std@@@std@@QAEAAV012@ABV012@@Z PROC ; std::_Tree<std::_Tset_traits<unsigned long,std::less<unsigned long>,KMemory::KAllocator<unsigned long>,0> >::const_iterator::operator=, COMDAT
; _this$ = ecx
  00000	55		 push	 ebp
  00001	8b ec		 mov	 ebp, esp
  00003	51		 push	 ecx
  00004	c7 45 fc cc cc
	cc cc		 mov	 DWORD PTR [ebp-4], -858993460 ; ccccccccH
  0000b	89 4d fc	 mov	 DWORD PTR _this$[ebp], ecx
  0000e	8b 45 08	 mov	 eax, DWORD PTR ___that$[ebp]
  00011	50		 push	 eax
  00012	8b 4d fc	 mov	 ecx, DWORD PTR _this$[ebp]
  00015	e8 00 00 00 00	 call	 ??4?$_Bidit@KHPBKABK@std@@QAEAAU01@ABU01@@Z
  0001a	8b 4d fc	 mov	 ecx, DWORD PTR _this$[ebp]
  0001d	8b 55 08	 mov	 edx, DWORD PTR ___that$[ebp]
  00020	8b 42 08	 mov	 eax, DWORD PTR [edx+8]
  00023	89 41 08	 mov	 DWORD PTR [ecx+8], eax
  00026	8b 45 fc	 mov	 eax, DWORD PTR _this$[ebp]
  00029	83 c4 04	 add	 esp, 4
  0002c	3b ec		 cmp	 ebp, esp
  0002e	e8 00 00 00 00	 call	 __RTC_CheckEsp
  00033	8b e5		 mov	 esp, ebp
  00035	5d		 pop	 ebp
  00036	c2 04 00	 ret	 4
??4const_iterator@?$_Tree@V?$_Tset_traits@KU?$less@K@std@@V?$KAllocator@K@KMemory@@$0A@@std@@@std@@QAEAAV012@ABV012@@Z ENDP ; std::_Tree<std::_Tset_traits<unsigned long,std::less<unsigned long>,KMemory::KAllocator<unsigned long>,0> >::const_iterator::operator=
_TEXT	ENDS
PUBLIC	??1_Iterator_base@std@@QAE@XZ			; std::_Iterator_base::~_Iterator_base
; Function compile flags: /Odtp /RTCsu
;	COMDAT ??1?$_Bidit@KHPBKABK@std@@QAE@XZ
_TEXT	SEGMENT
_this$ = -4						; size = 4
??1?$_Bidit@KHPBKABK@std@@QAE@XZ PROC			; std::_Bidit<unsigned long,int,unsigned long const *,unsigned long const &>::~_Bidit<unsigned long,int,unsigned long const *,unsigned long const &>, COMDAT
; _this$ = ecx
  00000	55		 push	 ebp
  00001	8b ec		 mov	 ebp, esp
  00003	51		 push	 ecx
  00004	c7 45 fc cc cc
	cc cc		 mov	 DWORD PTR [ebp-4], -858993460 ; ccccccccH
  0000b	89 4d fc	 mov	 DWORD PTR _this$[ebp], ecx
  0000e	8b 4d fc	 mov	 ecx, DWORD PTR _this$[ebp]
  00011	e8 00 00 00 00	 call	 ??1_Iterator_base@std@@QAE@XZ ; std::_Iterator_base::~_Iterator_base
  00016	83 c4 04	 add	 esp, 4
  00019	3b ec		 cmp	 ebp, esp
  0001b	e8 00 00 00 00	 call	 __RTC_CheckEsp
  00020	8b e5		 mov	 esp, ebp
  00022	5d		 pop	 ebp
  00023	c3		 ret	 0
??1?$_Bidit@KHPBKABK@std@@QAE@XZ ENDP			; std::_Bidit<unsigned long,int,unsigned long const *,unsigned long const &>::~_Bidit<unsigned long,int,unsigned long const *,unsigned long const &>
_TEXT	ENDS
PUBLIC	?_Orphan_me@_Iterator_base@std@@QAEXXZ		; std::_Iterator_base::_Orphan_me
EXTRN	__imp_??1_Lockit@std@@QAE@XZ:PROC
EXTRN	__imp_??0_Lockit@std@@QAE@H@Z:PROC
;	COMDAT xdata$x
; File d:\program files\microsoft visual studio 8\vc\include\xutility
xdata$x	SEGMENT
__unwindtable$??1_Iterator_base@std@@QAE@XZ DD 0ffffffffH
	DD	FLAT:__unwindfunclet$??1_Iterator_base@std@@QAE@XZ$0
__ehfuncinfo$??1_Iterator_base@std@@QAE@XZ DD 019930522H
	DD	01H
	DD	FLAT:__unwindtable$??1_Iterator_base@std@@QAE@XZ
	DD	2 DUP(00H)
	DD	2 DUP(00H)
	DD	00H
	DD	01H
; Function compile flags: /Odtp /RTCsu
xdata$x	ENDS
;	COMDAT ??1_Iterator_base@std@@QAE@XZ
_TEXT	SEGMENT
__Lock$ = -24						; size = 4
_this$ = -16						; size = 4
__$EHRec$ = -12						; size = 12
??1_Iterator_base@std@@QAE@XZ PROC			; std::_Iterator_base::~_Iterator_base, COMDAT
; _this$ = ecx

; 148  : 		{	// destroy the iterator

  00000	55		 push	 ebp
  00001	8b ec		 mov	 ebp, esp
  00003	6a ff		 push	 -1
  00005	68 00 00 00 00	 push	 __ehhandler$??1_Iterator_base@std@@QAE@XZ
  0000a	64 a1 00 00 00
	00		 mov	 eax, DWORD PTR fs:0
  00010	50		 push	 eax
  00011	83 ec 10	 sub	 esp, 16			; 00000010H
  00014	56		 push	 esi
  00015	b8 cc cc cc cc	 mov	 eax, -858993460		; ccccccccH
  0001a	89 45 e4	 mov	 DWORD PTR [ebp-28], eax
  0001d	89 45 e8	 mov	 DWORD PTR [ebp-24], eax
  00020	89 45 ec	 mov	 DWORD PTR [ebp-20], eax
  00023	89 45 f0	 mov	 DWORD PTR [ebp-16], eax
  00026	a1 00 00 00 00	 mov	 eax, DWORD PTR ___security_cookie
  0002b	33 c5		 xor	 eax, ebp
  0002d	50		 push	 eax
  0002e	8d 45 f4	 lea	 eax, DWORD PTR __$EHRec$[ebp]
  00031	64 a3 00 00 00
	00		 mov	 DWORD PTR fs:0, eax
  00037	89 4d f0	 mov	 DWORD PTR _this$[ebp], ecx

; 149  : 		_Lockit _Lock(_LOCK_DEBUG);

  0003a	8b f4		 mov	 esi, esp
  0003c	6a 03		 push	 3
  0003e	8d 4d e8	 lea	 ecx, DWORD PTR __Lock$[ebp]
  00041	ff 15 00 00 00
	00		 call	 DWORD PTR __imp_??0_Lockit@std@@QAE@H@Z
  00047	3b f4		 cmp	 esi, esp
  00049	e8 00 00 00 00	 call	 __RTC_CheckEsp
  0004e	c7 45 fc 00 00
	00 00		 mov	 DWORD PTR __$EHRec$[ebp+8], 0

; 150  : 		_Orphan_me();

  00055	8b 4d f0	 mov	 ecx, DWORD PTR _this$[ebp]
  00058	e8 00 00 00 00	 call	 ?_Orphan_me@_Iterator_base@std@@QAEXXZ ; std::_Iterator_base::_Orphan_me

; 151  : 		}

  0005d	c7 45 fc ff ff
	ff ff		 mov	 DWORD PTR __$EHRec$[ebp+8], -1
  00064	8b f4		 mov	 esi, esp
  00066	8d 4d e8	 lea	 ecx, DWORD PTR __Lock$[ebp]
  00069	ff 15 00 00 00
	00		 call	 DWORD PTR __imp_??1_Lockit@std@@QAE@XZ
  0006f	3b f4		 cmp	 esi, esp
  00071	e8 00 00 00 00	 call	 __RTC_CheckEsp
  00076	52		 push	 edx
  00077	8b cd		 mov	 ecx, ebp
  00079	50		 push	 eax
  0007a	8d 15 00 00 00
	00		 lea	 edx, DWORD PTR $LN7@Iterator_b
  00080	e8 00 00 00 00	 call	 @_RTC_CheckStackVars@8
  00085	58		 pop	 eax
  00086	5a		 pop	 edx
  00087	8b 4d f4	 mov	 ecx, DWORD PTR __$EHRec$[ebp]
  0008a	64 89 0d 00 00
	00 00		 mov	 DWORD PTR fs:0, ecx
  00091	59		 pop	 ecx
  00092	5e		 pop	 esi
  00093	83 c4 1c	 add	 esp, 28			; 0000001cH
  00096	3b ec		 cmp	 ebp, esp
  00098	e8 00 00 00 00	 call	 __RTC_CheckEsp
  0009d	8b e5		 mov	 esp, ebp
  0009f	5d		 pop	 ebp
  000a0	c3		 ret	 0
  000a1	8d 49 00	 npad	 3
$LN7@Iterator_b:
  000a4	01 00 00 00	 DD	 1
  000a8	00 00 00 00	 DD	 $LN6@Iterator_b
$LN6@Iterator_b:
  000ac	e8 ff ff ff	 DD	 -24			; ffffffe8H
  000b0	04 00 00 00	 DD	 4
  000b4	00 00 00 00	 DD	 $LN4@Iterator_b
$LN4@Iterator_b:
  000b8	5f		 DB	 95			; 0000005fH
  000b9	4c		 DB	 76			; 0000004cH
  000ba	6f		 DB	 111			; 0000006fH
  000bb	63		 DB	 99			; 00000063H
  000bc	6b		 DB	 107			; 0000006bH
  000bd	00		 DB	 0
_TEXT	ENDS
;	COMDAT text$x
text$x	SEGMENT
__unwindfunclet$??1_Iterator_base@std@@QAE@XZ$0:
  00000	8b f4		 mov	 esi, esp
  00002	8d 4d e8	 lea	 ecx, DWORD PTR __Lock$[ebp]
  00005	ff 15 00 00 00
	00		 call	 DWORD PTR __imp_??1_Lockit@std@@QAE@XZ
  0000b	3b f4		 cmp	 esi, esp
  0000d	e9 00 00 00 00	 jmp	 __RTC_CheckEsp
__ehhandler$??1_Iterator_base@std@@QAE@XZ:
  00012	8b 54 24 08	 mov	 edx, DWORD PTR [esp+8]
  00016	8d 42 0c	 lea	 eax, DWORD PTR [edx+12]
  00019	8b 4a e8	 mov	 ecx, DWORD PTR [edx-24]
  0001c	33 c8		 xor	 ecx, eax
  0001e	e8 00 00 00 00	 call	 @__security_check_cookie@4
  00023	b8 00 00 00 00	 mov	 eax, OFFSET __ehfuncinfo$??1_Iterator_base@std@@QAE@XZ
  00028	e9 00 00 00 00	 jmp	 ___CxxFrameHandler3
text$x	ENDS
??1_Iterator_base@std@@QAE@XZ ENDP			; std::_Iterator_base::~_Iterator_base
PUBLIC	??_C@_1DC@POOIKBAO@?$AAI?$AAT?$AAE?$AAR?$AAA?$AAT?$AAO?$AAR?$AA?5?$AAL?$AAI?$AAS?$AAT?$AA?5?$AAC?$AAO?$AAR?$AAR?$AAU?$AAP?$AAT?$AAE?$AAD?$AA?$CB?$AA?$AA@ ; `string'
PUBLIC	??_C@_1HO@FFCCIEID@?$AAD?$AA?3?$AA?2?$AAP?$AAr?$AAo?$AAg?$AAr?$AAa?$AAm?$AA?5?$AAF?$AAi?$AAl?$AAe?$AAs?$AA?2?$AAM?$AAi?$AAc?$AAr?$AAo?$AAs?$AAo?$AAf?$AAt?$AA?5?$AAV?$AAi?$AAs?$AAu?$AAa@ ; `string'
EXTRN	__imp_?_Debug_message@std@@YAXPB_W0I@Z:PROC
;	COMDAT ??_C@_1DC@POOIKBAO@?$AAI?$AAT?$AAE?$AAR?$AAA?$AAT?$AAO?$AAR?$AA?5?$AAL?$AAI?$AAS?$AAT?$AA?5?$AAC?$AAO?$AAR?$AAR?$AAU?$AAP?$AAT?$AAE?$AAD?$AA?$CB?$AA?$AA@
CONST	SEGMENT
??_C@_1DC@POOIKBAO@?$AAI?$AAT?$AAE?$AAR?$AAA?$AAT?$AAO?$AAR?$AA?5?$AAL?$AAI?$AAS?$AAT?$AA?5?$AAC?$AAO?$AAR?$AAR?$AAU?$AAP?$AAT?$AAE?$AAD?$AA?$CB?$AA?$AA@ DB 'I'
	DB	00H, 'T', 00H, 'E', 00H, 'R', 00H, 'A', 00H, 'T', 00H, 'O', 00H
	DB	'R', 00H, ' ', 00H, 'L', 00H, 'I', 00H, 'S', 00H, 'T', 00H, ' '
	DB	00H, 'C', 00H, 'O', 00H, 'R', 00H, 'R', 00H, 'U', 00H, 'P', 00H
	DB	'T', 00H, 'E', 00H, 'D', 00H, '!', 00H, 00H, 00H ; `string'
CONST	ENDS
;	COMDAT ??_C@_1HO@FFCCIEID@?$AAD?$AA?3?$AA?2?$AAP?$AAr?$AAo?$AAg?$AAr?$AAa?$AAm?$AA?5?$AAF?$AAi?$AAl?$AAe?$AAs?$AA?2?$AAM?$AAi?$AAc?$AAr?$AAo?$AAs?$AAo?$AAf?$AAt?$AA?5?$AAV?$AAi?$AAs?$AAu?$AAa@
CONST	SEGMENT
??_C@_1HO@FFCCIEID@?$AAD?$AA?3?$AA?2?$AAP?$AAr?$AAo?$AAg?$AAr?$AAa?$AAm?$AA?5?$AAF?$AAi?$AAl?$AAe?$AAs?$AA?2?$AAM?$AAi?$AAc?$AAr?$AAo?$AAs?$AAo?$AAf?$AAt?$AA?5?$AAV?$AAi?$AAs?$AAu?$AAa@ DB 'D'
	DB	00H, ':', 00H, '\', 00H, 'P', 00H, 'r', 00H, 'o', 00H, 'g', 00H
	DB	'r', 00H, 'a', 00H, 'm', 00H, ' ', 00H, 'F', 00H, 'i', 00H, 'l'
	DB	00H, 'e', 00H, 's', 00H, '\', 00H, 'M', 00H, 'i', 00H, 'c', 00H
	DB	'r', 00H, 'o', 00H, 's', 00H, 'o', 00H, 'f', 00H, 't', 00H, ' '
	DB	00H, 'V', 00H, 'i', 00H, 's', 00H, 'u', 00H, 'a', 00H, 'l', 00H
	DB	' ', 00H, 'S', 00H, 't', 00H, 'u', 00H, 'd', 00H, 'i', 00H, 'o'
	DB	00H, ' ', 00H, '8', 00H, '\', 00H, 'V', 00H, 'C', 00H, '\', 00H
	DB	'i', 00H, 'n', 00H, 'c', 00H, 'l', 00H, 'u', 00H, 'd', 00H, 'e'
	DB	00H, '\', 00H, 'x', 00H, 'u', 00H, 't', 00H, 'i', 00H, 'l', 00H
	DB	'i', 00H, 't', 00H, 'y', 00H, 00H, 00H	; `string'
; Function compile flags: /Odtp /RTCsu
CONST	ENDS
;	COMDAT ?_Orphan_me@_Iterator_base@std@@QAEXXZ
_TEXT	SEGMENT
__Pnext$28443 = -8					; size = 4
_this$ = -4						; size = 4
?_Orphan_me@_Iterator_base@std@@QAEXXZ PROC		; std::_Iterator_base::_Orphan_me, COMDAT
; _this$ = ecx

; 169  : 		{	// cut ties with parent

  00000	55		 push	 ebp
  00001	8b ec		 mov	 ebp, esp
  00003	83 ec 08	 sub	 esp, 8
  00006	56		 push	 esi
  00007	c7 45 f8 cc cc
	cc cc		 mov	 DWORD PTR [ebp-8], -858993460 ; ccccccccH
  0000e	c7 45 fc cc cc
	cc cc		 mov	 DWORD PTR [ebp-4], -858993460 ; ccccccccH
  00015	89 4d fc	 mov	 DWORD PTR _this$[ebp], ecx

; 170  : 		if (_Mycont != 0 && _Mycont->_Myfirstiter != _IGNORE_MYITERLIST)

  00018	8b 45 fc	 mov	 eax, DWORD PTR _this$[ebp]
  0001b	83 38 00	 cmp	 DWORD PTR [eax], 0
  0001e	74 6e		 je	 SHORT $LN5@Orphan_me
  00020	8b 4d fc	 mov	 ecx, DWORD PTR _this$[ebp]
  00023	8b 11		 mov	 edx, DWORD PTR [ecx]
  00025	83 3a fd	 cmp	 DWORD PTR [edx], -3	; fffffffdH
  00028	74 64		 je	 SHORT $LN5@Orphan_me

; 171  : 			{	// adopted, remove self from list
; 172  : 			_Iterator_base **_Pnext =
; 173  : 				(_Iterator_base **)&_Mycont->_Myfirstiter;

  0002a	8b 45 fc	 mov	 eax, DWORD PTR _this$[ebp]
  0002d	8b 08		 mov	 ecx, DWORD PTR [eax]
  0002f	89 4d f8	 mov	 DWORD PTR __Pnext$28443[ebp], ecx
$LN3@Orphan_me:

; 174  : 			while (*_Pnext != 0 && *_Pnext != this)

  00032	8b 55 f8	 mov	 edx, DWORD PTR __Pnext$28443[ebp]
  00035	83 3a 00	 cmp	 DWORD PTR [edx], 0
  00038	74 17		 je	 SHORT $LN2@Orphan_me
  0003a	8b 45 f8	 mov	 eax, DWORD PTR __Pnext$28443[ebp]
  0003d	8b 08		 mov	 ecx, DWORD PTR [eax]
  0003f	3b 4d fc	 cmp	 ecx, DWORD PTR _this$[ebp]
  00042	74 0d		 je	 SHORT $LN2@Orphan_me

; 175  : 				_Pnext = &(*_Pnext)->_Mynextiter;

  00044	8b 55 f8	 mov	 edx, DWORD PTR __Pnext$28443[ebp]
  00047	8b 02		 mov	 eax, DWORD PTR [edx]
  00049	83 c0 04	 add	 eax, 4
  0004c	89 45 f8	 mov	 DWORD PTR __Pnext$28443[ebp], eax
  0004f	eb e1		 jmp	 SHORT $LN3@Orphan_me
$LN2@Orphan_me:

; 176  : 
; 177  : 			if (*_Pnext == 0)

  00051	8b 4d f8	 mov	 ecx, DWORD PTR __Pnext$28443[ebp]
  00054	83 39 00	 cmp	 DWORD PTR [ecx], 0
  00057	75 21		 jne	 SHORT $LN1@Orphan_me

; 178  : 				_DEBUG_ERROR("ITERATOR LIST CORRUPTED!");

  00059	8b f4		 mov	 esi, esp
  0005b	68 b2 00 00 00	 push	 178			; 000000b2H
  00060	68 00 00 00 00	 push	 OFFSET ??_C@_1HO@FFCCIEID@?$AAD?$AA?3?$AA?2?$AAP?$AAr?$AAo?$AAg?$AAr?$AAa?$AAm?$AA?5?$AAF?$AAi?$AAl?$AAe?$AAs?$AA?2?$AAM?$AAi?$AAc?$AAr?$AAo?$AAs?$AAo?$AAf?$AAt?$AA?5?$AAV?$AAi?$AAs?$AAu?$AAa@
  00065	68 00 00 00 00	 push	 OFFSET ??_C@_1DC@POOIKBAO@?$AAI?$AAT?$AAE?$AAR?$AAA?$AAT?$AAO?$AAR?$AA?5?$AAL?$AAI?$AAS?$AAT?$AA?5?$AAC?$AAO?$AAR?$AAR?$AAU?$AAP?$AAT?$AAE?$AAD?$AA?$CB?$AA?$AA@
  0006a	ff 15 00 00 00
	00		 call	 DWORD PTR __imp_?_Debug_message@std@@YAXPB_W0I@Z
  00070	83 c4 0c	 add	 esp, 12			; 0000000cH
  00073	3b f4		 cmp	 esi, esp
  00075	e8 00 00 00 00	 call	 __RTC_CheckEsp
$LN1@Orphan_me:

; 179  : 			*_Pnext = _Mynextiter;

  0007a	8b 55 f8	 mov	 edx, DWORD PTR __Pnext$28443[ebp]
  0007d	8b 45 fc	 mov	 eax, DWORD PTR _this$[ebp]
  00080	8b 48 04	 mov	 ecx, DWORD PTR [eax+4]
  00083	89 0a		 mov	 DWORD PTR [edx], ecx

; 180  : 			_Mycont = 0;

  00085	8b 55 fc	 mov	 edx, DWORD PTR _this$[ebp]
  00088	c7 02 00 00 00
	00		 mov	 DWORD PTR [edx], 0
$LN5@Orphan_me:

; 181  : 			}
; 182  : 		}

  0008e	5e		 pop	 esi
  0008f	83 c4 08	 add	 esp, 8
  00092	3b ec		 cmp	 ebp, esp
  00094	e8 00 00 00 00	 call	 __RTC_CheckEsp
  00099	8b e5		 mov	 esp, ebp
  0009b	5d		 pop	 ebp
  0009c	c3		 ret	 0
?_Orphan_me@_Iterator_base@std@@QAEXXZ ENDP		; std::_Iterator_base::_Orphan_me
_TEXT	ENDS
PUBLIC	??4_Iterator_base@std@@QAEAAV01@ABV01@@Z	; std::_Iterator_base::operator=
; Function compile flags: /Odtp /RTCsu
;	COMDAT ??4?$_Bidit@KHPBKABK@std@@QAEAAU01@ABU01@@Z
_TEXT	SEGMENT
_this$ = -4						; size = 4
___that$ = 8						; size = 4
??4?$_Bidit@KHPBKABK@std@@QAEAAU01@ABU01@@Z PROC	; std::_Bidit<unsigned long,int,unsigned long const *,unsigned long const &>::operator=, COMDAT
; _this$ = ecx
  00000	55		 push	 ebp
  00001	8b ec		 mov	 ebp, esp
  00003	51		 push	 ecx
  00004	c7 45 fc cc cc
	cc cc		 mov	 DWORD PTR [ebp-4], -858993460 ; ccccccccH
  0000b	89 4d fc	 mov	 DWORD PTR _this$[ebp], ecx
  0000e	8b 45 08	 mov	 eax, DWORD PTR ___that$[ebp]
  00011	50		 push	 eax
  00012	8b 4d fc	 mov	 ecx, DWORD PTR _this$[ebp]
  00015	e8 00 00 00 00	 call	 ??4_Iterator_base@std@@QAEAAV01@ABV01@@Z ; std::_Iterator_base::operator=
  0001a	8b 45 fc	 mov	 eax, DWORD PTR _this$[ebp]
  0001d	83 c4 04	 add	 esp, 4
  00020	3b ec		 cmp	 ebp, esp
  00022	e8 00 00 00 00	 call	 __RTC_CheckEsp
  00027	8b e5		 mov	 esp, ebp
  00029	5d		 pop	 ebp
  0002a	c2 04 00	 ret	 4
??4?$_Bidit@KHPBKABK@std@@QAEAAU01@ABU01@@Z ENDP	; std::_Bidit<unsigned long,int,unsigned long const *,unsigned long const &>::operator=
_TEXT	ENDS
PUBLIC	?_Adopt@_Iterator_base@std@@QAEXPBV_Container_base@2@@Z ; std::_Iterator_base::_Adopt
;	COMDAT xdata$x
xdata$x	SEGMENT
__unwindtable$??4_Iterator_base@std@@QAEAAV01@ABV01@@Z DD 0ffffffffH
	DD	FLAT:__unwindfunclet$??4_Iterator_base@std@@QAEAAV01@ABV01@@Z$0
__ehfuncinfo$??4_Iterator_base@std@@QAEAAV01@ABV01@@Z DD 019930522H
	DD	01H
	DD	FLAT:__unwindtable$??4_Iterator_base@std@@QAEAAV01@ABV01@@Z
	DD	2 DUP(00H)
	DD	2 DUP(00H)
	DD	00H
	DD	01H
; Function compile flags: /Odtp /RTCsu
xdata$x	ENDS
;	COMDAT ??4_Iterator_base@std@@QAEAAV01@ABV01@@Z
_TEXT	SEGMENT
__Lock$28428 = -24					; size = 4
_this$ = -16						; size = 4
__$EHRec$ = -12						; size = 12
__Right$ = 8						; size = 4
??4_Iterator_base@std@@QAEAAV01@ABV01@@Z PROC		; std::_Iterator_base::operator=, COMDAT
; _this$ = ecx

; 137  : 		{	// assign an iterator

  00000	55		 push	 ebp
  00001	8b ec		 mov	 ebp, esp
  00003	6a ff		 push	 -1
  00005	68 00 00 00 00	 push	 __ehhandler$??4_Iterator_base@std@@QAEAAV01@ABV01@@Z
  0000a	64 a1 00 00 00
	00		 mov	 eax, DWORD PTR fs:0
  00010	50		 push	 eax
  00011	83 ec 10	 sub	 esp, 16			; 00000010H
  00014	56		 push	 esi
  00015	b8 cc cc cc cc	 mov	 eax, -858993460		; ccccccccH
  0001a	89 45 e4	 mov	 DWORD PTR [ebp-28], eax
  0001d	89 45 e8	 mov	 DWORD PTR [ebp-24], eax
  00020	89 45 ec	 mov	 DWORD PTR [ebp-20], eax
  00023	89 45 f0	 mov	 DWORD PTR [ebp-16], eax
  00026	a1 00 00 00 00	 mov	 eax, DWORD PTR ___security_cookie
  0002b	33 c5		 xor	 eax, ebp
  0002d	50		 push	 eax
  0002e	8d 45 f4	 lea	 eax, DWORD PTR __$EHRec$[ebp]
  00031	64 a3 00 00 00
	00		 mov	 DWORD PTR fs:0, eax
  00037	89 4d f0	 mov	 DWORD PTR _this$[ebp], ecx

; 138  : 		if (_Mycont != _Right._Mycont)

  0003a	8b 45 f0	 mov	 eax, DWORD PTR _this$[ebp]
  0003d	8b 4d 08	 mov	 ecx, DWORD PTR __Right$[ebp]
  00040	8b 10		 mov	 edx, DWORD PTR [eax]
  00042	3b 11		 cmp	 edx, DWORD PTR [ecx]
  00044	74 4a		 je	 SHORT $LN1@operator@2

; 139  : 			{	// change parentage
; 140  : 			_Lockit _Lock(_LOCK_DEBUG);

  00046	8b f4		 mov	 esi, esp
  00048	6a 03		 push	 3
  0004a	8d 4d e8	 lea	 ecx, DWORD PTR __Lock$28428[ebp]
  0004d	ff 15 00 00 00
	00		 call	 DWORD PTR __imp_??0_Lockit@std@@QAE@H@Z
  00053	3b f4		 cmp	 esi, esp
  00055	e8 00 00 00 00	 call	 __RTC_CheckEsp
  0005a	c7 45 fc 00 00
	00 00		 mov	 DWORD PTR __$EHRec$[ebp+8], 0

; 141  : 			_Orphan_me();

  00061	8b 4d f0	 mov	 ecx, DWORD PTR _this$[ebp]
  00064	e8 00 00 00 00	 call	 ?_Orphan_me@_Iterator_base@std@@QAEXXZ ; std::_Iterator_base::_Orphan_me

; 142  : 			_Adopt(_Right._Mycont);

  00069	8b 45 08	 mov	 eax, DWORD PTR __Right$[ebp]
  0006c	8b 08		 mov	 ecx, DWORD PTR [eax]
  0006e	51		 push	 ecx
  0006f	8b 4d f0	 mov	 ecx, DWORD PTR _this$[ebp]
  00072	e8 00 00 00 00	 call	 ?_Adopt@_Iterator_base@std@@QAEXPBV_Container_base@2@@Z ; std::_Iterator_base::_Adopt

; 143  : 			}

  00077	c7 45 fc ff ff
	ff ff		 mov	 DWORD PTR __$EHRec$[ebp+8], -1
  0007e	8b f4		 mov	 esi, esp
  00080	8d 4d e8	 lea	 ecx, DWORD PTR __Lock$28428[ebp]
  00083	ff 15 00 00 00
	00		 call	 DWORD PTR __imp_??1_Lockit@std@@QAE@XZ
  00089	3b f4		 cmp	 esi, esp
  0008b	e8 00 00 00 00	 call	 __RTC_CheckEsp
$LN1@operator@2:

; 144  : 		return (*this);

  00090	8b 45 f0	 mov	 eax, DWORD PTR _this$[ebp]

; 145  : 		}

  00093	52		 push	 edx
  00094	8b cd		 mov	 ecx, ebp
  00096	50		 push	 eax
  00097	8d 15 00 00 00
	00		 lea	 edx, DWORD PTR $LN8@operator@2
  0009d	e8 00 00 00 00	 call	 @_RTC_CheckStackVars@8
  000a2	58		 pop	 eax
  000a3	5a		 pop	 edx
  000a4	8b 4d f4	 mov	 ecx, DWORD PTR __$EHRec$[ebp]
  000a7	64 89 0d 00 00
	00 00		 mov	 DWORD PTR fs:0, ecx
  000ae	59		 pop	 ecx
  000af	5e		 pop	 esi
  000b0	83 c4 1c	 add	 esp, 28			; 0000001cH
  000b3	3b ec		 cmp	 ebp, esp
  000b5	e8 00 00 00 00	 call	 __RTC_CheckEsp
  000ba	8b e5		 mov	 esp, ebp
  000bc	5d		 pop	 ebp
  000bd	c2 04 00	 ret	 4
$LN8@operator@2:
  000c0	01 00 00 00	 DD	 1
  000c4	00 00 00 00	 DD	 $LN7@operator@2
$LN7@operator@2:
  000c8	e8 ff ff ff	 DD	 -24			; ffffffe8H
  000cc	04 00 00 00	 DD	 4
  000d0	00 00 00 00	 DD	 $LN5@operator@2
$LN5@operator@2:
  000d4	5f		 DB	 95			; 0000005fH
  000d5	4c		 DB	 76			; 0000004cH
  000d6	6f		 DB	 111			; 0000006fH
  000d7	63		 DB	 99			; 00000063H
  000d8	6b		 DB	 107			; 0000006bH
  000d9	00		 DB	 0
_TEXT	ENDS
;	COMDAT text$x
text$x	SEGMENT
__unwindfunclet$??4_Iterator_base@std@@QAEAAV01@ABV01@@Z$0:
  00000	8b f4		 mov	 esi, esp
  00002	8d 4d e8	 lea	 ecx, DWORD PTR __Lock$28428[ebp]
  00005	ff 15 00 00 00
	00		 call	 DWORD PTR __imp_??1_Lockit@std@@QAE@XZ
  0000b	3b f4		 cmp	 esi, esp
  0000d	e9 00 00 00 00	 jmp	 __RTC_CheckEsp
__ehhandler$??4_Iterator_base@std@@QAEAAV01@ABV01@@Z:
  00012	8b 54 24 08	 mov	 edx, DWORD PTR [esp+8]
  00016	8d 42 0c	 lea	 eax, DWORD PTR [edx+12]
  00019	8b 4a e8	 mov	 ecx, DWORD PTR [edx-24]
  0001c	33 c8		 xor	 ecx, eax
  0001e	e8 00 00 00 00	 call	 @__security_check_cookie@4
  00023	b8 00 00 00 00	 mov	 eax, OFFSET __ehfuncinfo$??4_Iterator_base@std@@QAEAAV01@ABV01@@Z
  00028	e9 00 00 00 00	 jmp	 ___CxxFrameHandler3
text$x	ENDS
??4_Iterator_base@std@@QAEAAV01@ABV01@@Z ENDP		; std::_Iterator_base::operator=
;	COMDAT xdata$x
xdata$x	SEGMENT
__unwindtable$?_Adopt@_Iterator_base@std@@QAEXPBV_Container_base@2@@Z DD 0ffffffffH
	DD	FLAT:__unwindfunclet$?_Adopt@_Iterator_base@std@@QAEXPBV_Container_base@2@@Z$0
__ehfuncinfo$?_Adopt@_Iterator_base@std@@QAEXPBV_Container_base@2@@Z DD 019930522H
	DD	01H
	DD	FLAT:__unwindtable$?_Adopt@_Iterator_base@std@@QAEXPBV_Container_base@2@@Z
	DD	2 DUP(00H)
	DD	2 DUP(00H)
	DD	00H
	DD	01H
; Function compile flags: /Odtp /RTCsu
xdata$x	ENDS
;	COMDAT ?_Adopt@_Iterator_base@std@@QAEXPBV_Container_base@2@@Z
_TEXT	SEGMENT
__Lock$28435 = -24					; size = 4
_this$ = -16						; size = 4
__$EHRec$ = -12						; size = 12
__Parent$ = 8						; size = 4
?_Adopt@_Iterator_base@std@@QAEXPBV_Container_base@2@@Z PROC ; std::_Iterator_base::_Adopt, COMDAT
; _this$ = ecx

; 154  : 		{	// adopt this iterator by parent

  00000	55		 push	 ebp
  00001	8b ec		 mov	 ebp, esp
  00003	6a ff		 push	 -1
  00005	68 00 00 00 00	 push	 __ehhandler$?_Adopt@_Iterator_base@std@@QAEXPBV_Container_base@2@@Z
  0000a	64 a1 00 00 00
	00		 mov	 eax, DWORD PTR fs:0
  00010	50		 push	 eax
  00011	83 ec 10	 sub	 esp, 16			; 00000010H
  00014	56		 push	 esi
  00015	b8 cc cc cc cc	 mov	 eax, -858993460		; ccccccccH
  0001a	89 45 e4	 mov	 DWORD PTR [ebp-28], eax
  0001d	89 45 e8	 mov	 DWORD PTR [ebp-24], eax
  00020	89 45 ec	 mov	 DWORD PTR [ebp-20], eax
  00023	89 45 f0	 mov	 DWORD PTR [ebp-16], eax
  00026	a1 00 00 00 00	 mov	 eax, DWORD PTR ___security_cookie
  0002b	33 c5		 xor	 eax, ebp
  0002d	50		 push	 eax
  0002e	8d 45 f4	 lea	 eax, DWORD PTR __$EHRec$[ebp]
  00031	64 a3 00 00 00
	00		 mov	 DWORD PTR fs:0, eax
  00037	89 4d f0	 mov	 DWORD PTR _this$[ebp], ecx

; 155  : 		if (_Mycont != _Parent)

  0003a	8b 45 f0	 mov	 eax, DWORD PTR _this$[ebp]
  0003d	8b 08		 mov	 ecx, DWORD PTR [eax]
  0003f	3b 4d 08	 cmp	 ecx, DWORD PTR __Parent$[ebp]
  00042	74 65		 je	 SHORT $LN3@Adopt

; 156  : 			{	// change parentage
; 157  : 			_Lockit _Lock(_LOCK_DEBUG);

  00044	8b f4		 mov	 esi, esp
  00046	6a 03		 push	 3
  00048	8d 4d e8	 lea	 ecx, DWORD PTR __Lock$28435[ebp]
  0004b	ff 15 00 00 00
	00		 call	 DWORD PTR __imp_??0_Lockit@std@@QAE@H@Z
  00051	3b f4		 cmp	 esi, esp
  00053	e8 00 00 00 00	 call	 __RTC_CheckEsp
  00058	c7 45 fc 00 00
	00 00		 mov	 DWORD PTR __$EHRec$[ebp+8], 0

; 158  : 			_Orphan_me();

  0005f	8b 4d f0	 mov	 ecx, DWORD PTR _this$[ebp]
  00062	e8 00 00 00 00	 call	 ?_Orphan_me@_Iterator_base@std@@QAEXXZ ; std::_Iterator_base::_Orphan_me

; 159  : 			if (_Parent != 0 && _Parent->_Myfirstiter != _IGNORE_MYITERLIST)

  00067	83 7d 08 00	 cmp	 DWORD PTR __Parent$[ebp], 0
  0006b	74 1b		 je	 SHORT $LN1@Adopt
  0006d	8b 55 08	 mov	 edx, DWORD PTR __Parent$[ebp]
  00070	83 3a fd	 cmp	 DWORD PTR [edx], -3	; fffffffdH
  00073	74 13		 je	 SHORT $LN1@Adopt

; 160  : 				{	// switch to new parent
; 161  : 				_Mynextiter = _Parent->_Myfirstiter;

  00075	8b 45 f0	 mov	 eax, DWORD PTR _this$[ebp]
  00078	8b 4d 08	 mov	 ecx, DWORD PTR __Parent$[ebp]
  0007b	8b 11		 mov	 edx, DWORD PTR [ecx]
  0007d	89 50 04	 mov	 DWORD PTR [eax+4], edx

; 162  : 				((_Container_base *)_Parent)->_Myfirstiter = this;

  00080	8b 45 08	 mov	 eax, DWORD PTR __Parent$[ebp]
  00083	8b 4d f0	 mov	 ecx, DWORD PTR _this$[ebp]
  00086	89 08		 mov	 DWORD PTR [eax], ecx
$LN1@Adopt:

; 163  : 				}
; 164  : 			_Mycont = _Parent;

  00088	8b 55 f0	 mov	 edx, DWORD PTR _this$[ebp]
  0008b	8b 45 08	 mov	 eax, DWORD PTR __Parent$[ebp]
  0008e	89 02		 mov	 DWORD PTR [edx], eax

; 165  : 			}

  00090	c7 45 fc ff ff
	ff ff		 mov	 DWORD PTR __$EHRec$[ebp+8], -1
  00097	8b f4		 mov	 esi, esp
  00099	8d 4d e8	 lea	 ecx, DWORD PTR __Lock$28435[ebp]
  0009c	ff 15 00 00 00
	00		 call	 DWORD PTR __imp_??1_Lockit@std@@QAE@XZ
  000a2	3b f4		 cmp	 esi, esp
  000a4	e8 00 00 00 00	 call	 __RTC_CheckEsp
$LN3@Adopt:

; 166  : 		}

  000a9	52		 push	 edx
  000aa	8b cd		 mov	 ecx, ebp
  000ac	50		 push	 eax
  000ad	8d 15 00 00 00
	00		 lea	 edx, DWORD PTR $LN9@Adopt
  000b3	e8 00 00 00 00	 call	 @_RTC_CheckStackVars@8
  000b8	58		 pop	 eax
  000b9	5a		 pop	 edx
  000ba	8b 4d f4	 mov	 ecx, DWORD PTR __$EHRec$[ebp]
  000bd	64 89 0d 00 00
	00 00		 mov	 DWORD PTR fs:0, ecx
  000c4	59		 pop	 ecx
  000c5	5e		 pop	 esi
  000c6	83 c4 1c	 add	 esp, 28			; 0000001cH
  000c9	3b ec		 cmp	 ebp, esp
  000cb	e8 00 00 00 00	 call	 __RTC_CheckEsp
  000d0	8b e5		 mov	 esp, ebp
  000d2	5d		 pop	 ebp
  000d3	c2 04 00	 ret	 4
  000d6	8b ff		 npad	 2
$LN9@Adopt:
  000d8	01 00 00 00	 DD	 1
  000dc	00 00 00 00	 DD	 $LN8@Adopt
$LN8@Adopt:
  000e0	e8 ff ff ff	 DD	 -24			; ffffffe8H
  000e4	04 00 00 00	 DD	 4
  000e8	00 00 00 00	 DD	 $LN6@Adopt
$LN6@Adopt:
  000ec	5f		 DB	 95			; 0000005fH
  000ed	4c		 DB	 76			; 0000004cH
  000ee	6f		 DB	 111			; 0000006fH
  000ef	63		 DB	 99			; 00000063H
  000f0	6b		 DB	 107			; 0000006bH
  000f1	00		 DB	 0
_TEXT	ENDS
;	COMDAT text$x
text$x	SEGMENT
__unwindfunclet$?_Adopt@_Iterator_base@std@@QAEXPBV_Container_base@2@@Z$0:
  00000	8b f4		 mov	 esi, esp
  00002	8d 4d e8	 lea	 ecx, DWORD PTR __Lock$28435[ebp]
  00005	ff 15 00 00 00
	00		 call	 DWORD PTR __imp_??1_Lockit@std@@QAE@XZ
  0000b	3b f4		 cmp	 esi, esp
  0000d	e9 00 00 00 00	 jmp	 __RTC_CheckEsp
__ehhandler$?_Adopt@_Iterator_base@std@@QAEXPBV_Container_base@2@@Z:
  00012	8b 54 24 08	 mov	 edx, DWORD PTR [esp+8]
  00016	8d 42 0c	 lea	 eax, DWORD PTR [edx+12]
  00019	8b 4a e8	 mov	 ecx, DWORD PTR [edx-24]
  0001c	33 c8		 xor	 ecx, eax
  0001e	e8 00 00 00 00	 call	 @__security_check_cookie@4
  00023	b8 00 00 00 00	 mov	 eax, OFFSET __ehfuncinfo$?_Adopt@_Iterator_base@std@@QAEXPBV_Container_base@2@@Z
  00028	e9 00 00 00 00	 jmp	 ___CxxFrameHandler3
text$x	ENDS
?_Adopt@_Iterator_base@std@@QAEXPBV_Container_base@2@@Z ENDP ; std::_Iterator_base::_Adopt
PUBLIC	??RKRegisterNewDoodadFunc@@QAEHPAVKPlayer@@@Z	; KRegisterNewDoodadFunc::operator()
xdata$x	SEGMENT
__unwindtable$??RKRegisterNewDoodadFunc@@QAEHPAVKPlayer@@@Z DD 0ffffffffH
	DD	FLAT:__unwindfunclet$??RKRegisterNewDoodadFunc@@QAEHPAVKPlayer@@@Z$0
	DD	00H
	DD	FLAT:__unwindfunclet$??RKRegisterNewDoodadFunc@@QAEHPAVKPlayer@@@Z$1
	DD	0ffffffffH
	DD	FLAT:__unwindfunclet$??RKRegisterNewDoodadFunc@@QAEHPAVKPlayer@@@Z$1
__ehfuncinfo$??RKRegisterNewDoodadFunc@@QAEHPAVKPlayer@@@Z DD 019930522H
	DD	03H
	DD	FLAT:__unwindtable$??RKRegisterNewDoodadFunc@@QAEHPAVKPlayer@@@Z
	DD	2 DUP(00H)
	DD	2 DUP(00H)
	DD	00H
	DD	01H
; Function compile flags: /Odtp /RTCsu
; File d:\code\game\sword3\source\common\so3world\src\kregion.cpp
xdata$x	ENDS
_TEXT	SEGMENT
tv87 = -76						; size = 4
tv90 = -72						; size = 4
$T186973 = -68						; size = 4
$T186972 = -64						; size = 8
$T186971 = -56						; size = 16
_InsRet$ = -36						; size = 16
_this$ = -16						; size = 4
__$EHRec$ = -12						; size = 12
_pPlayer$ = 8						; size = 4
??RKRegisterNewDoodadFunc@@QAEHPAVKPlayer@@@Z PROC	; KRegisterNewDoodadFunc::operator()
; _this$ = ecx

; 2016 : {

  04d60	55		 push	 ebp
  04d61	8b ec		 mov	 ebp, esp
  04d63	6a ff		 push	 -1
  04d65	68 00 00 00 00	 push	 __ehhandler$??RKRegisterNewDoodadFunc@@QAEHPAVKPlayer@@@Z
  04d6a	64 a1 00 00 00
	00		 mov	 eax, DWORD PTR fs:0
  04d70	50		 push	 eax
  04d71	83 ec 40	 sub	 esp, 64			; 00000040H
  04d74	57		 push	 edi
  04d75	51		 push	 ecx
  04d76	8d 7d b4	 lea	 edi, DWORD PTR [ebp-76]
  04d79	b9 10 00 00 00	 mov	 ecx, 16			; 00000010H
  04d7e	b8 cc cc cc cc	 mov	 eax, -858993460		; ccccccccH
  04d83	f3 ab		 rep stosd
  04d85	59		 pop	 ecx
  04d86	a1 00 00 00 00	 mov	 eax, DWORD PTR ___security_cookie
  04d8b	33 c5		 xor	 eax, ebp
  04d8d	50		 push	 eax
  04d8e	8d 45 f4	 lea	 eax, DWORD PTR __$EHRec$[ebp]
  04d91	64 a3 00 00 00
	00		 mov	 DWORD PTR fs:0, eax
  04d97	89 4d f0	 mov	 DWORD PTR _this$[ebp], ecx

; 2017 :     std::pair<KPlayer::KVIEW_SYNC_TABLE::iterator, BOOL> InsRet = 
; 2018 :         pPlayer->m_DoodadSyncTable.insert(m_pDoodad->m_dwID);

  04d9a	8b 45 f0	 mov	 eax, DWORD PTR _this$[ebp]
  04d9d	8b 08		 mov	 ecx, DWORD PTR [eax]
  04d9f	83 c1 04	 add	 ecx, 4
  04da2	51		 push	 ecx
  04da3	8d 55 c8	 lea	 edx, DWORD PTR $T186971[ebp]
  04da6	52		 push	 edx
  04da7	8b 4d 08	 mov	 ecx, DWORD PTR _pPlayer$[ebp]
  04daa	81 c1 d8 89 00
	00		 add	 ecx, 35288		; 000089d8H
  04db0	e8 00 00 00 00	 call	 ?insert@?$_Tree@V?$_Tset_traits@KU?$less@K@std@@V?$KAllocator@K@KMemory@@$0A@@std@@@std@@QAE?AU?$pair@Viterator@?$_Tree@V?$_Tset_traits@KU?$less@K@std@@V?$KAllocator@K@KMemory@@$0A@@std@@@std@@_N@2@ABK@Z ; std::_Tree<std::_Tset_traits<unsigned long,std::less<unsigned long>,KMemory::KAllocator<unsigned long>,0> >::insert
  04db5	89 45 b8	 mov	 DWORD PTR tv90[ebp], eax
  04db8	8b 45 b8	 mov	 eax, DWORD PTR tv90[ebp]
  04dbb	89 45 b4	 mov	 DWORD PTR tv87[ebp], eax
  04dbe	c7 45 fc 00 00
	00 00		 mov	 DWORD PTR __$EHRec$[ebp+8], 0
  04dc5	8b 4d b4	 mov	 ecx, DWORD PTR tv87[ebp]
  04dc8	51		 push	 ecx
  04dc9	8d 4d dc	 lea	 ecx, DWORD PTR _InsRet$[ebp]
  04dcc	e8 00 00 00 00	 call	 ??$?0Viterator@?$_Tree@V?$_Tset_traits@KU?$less@K@std@@V?$KAllocator@K@KMemory@@$0A@@std@@@std@@_N@?$pair@Viterator@?$_Tree@V?$_Tset_traits@KU?$less@K@std@@V?$KAllocator@K@KMemory@@$0A@@std@@@std@@H@std@@QAE@ABU?$pair@Viterator@?$_Tree@V?$_Tset_traits@KU?$less@K@std@@V?$KAllocator@K@KMemory@@$0A@@std@@@std@@_N@1@@Z ; std::pair<std::_Tree<std::_Tset_traits<unsigned long,std::less<unsigned long>,KMemory::KAllocator<unsigned long>,0> >::iterator,int>::pair<std::_Tree<std::_Tset_traits<unsigned long,std::less<unsigned long>,KMemory::KAllocator<unsigned long>,0> >::iterator,int><std::_Tree<std::_Tset_traits<unsigned long,std::less<unsigned long>,KMemory::KAllocator<unsigned long>,0> >::iterator,bool>
  04dd1	c6 45 fc 02	 mov	 BYTE PTR __$EHRec$[ebp+8], 2
  04dd5	8d 4d c8	 lea	 ecx, DWORD PTR $T186971[ebp]
  04dd8	e8 00 00 00 00	 call	 ??1?$pair@Viterator@?$_Tree@V?$_Tset_traits@KU?$less@K@std@@V?$KAllocator@K@KMemory@@$0A@@std@@@std@@_N@std@@QAE@XZ

; 2019 :     if (InsRet.second)

  04ddd	83 7d e8 00	 cmp	 DWORD PTR _InsRet$[ebp+12], 0
  04de1	74 29		 je	 SHORT $LN1@operator@3

; 2020 :     {
; 2021 :         pPlayer->m_DoodadSyncQueue.push_back(KPlayer::KViewObject(m_pDoodad->m_dwID, g_pSO3World->m_nGameLoop));

  04de3	8b 15 00 00 00
	00		 mov	 edx, DWORD PTR ?g_pSO3World@@3PAVKSO3World@@A ; g_pSO3World
  04de9	8b 02		 mov	 eax, DWORD PTR [edx]
  04deb	50		 push	 eax
  04dec	8b 4d f0	 mov	 ecx, DWORD PTR _this$[ebp]
  04def	8b 11		 mov	 edx, DWORD PTR [ecx]
  04df1	8b 42 04	 mov	 eax, DWORD PTR [edx+4]
  04df4	50		 push	 eax
  04df5	8d 4d c0	 lea	 ecx, DWORD PTR $T186972[ebp]
  04df8	e8 00 00 00 00	 call	 ??0KViewObject@KPlayer@@QAE@KH@Z ; KPlayer::KViewObject::KViewObject
  04dfd	50		 push	 eax
  04dfe	8b 4d 08	 mov	 ecx, DWORD PTR _pPlayer$[ebp]
  04e01	81 c1 f4 89 00
	00		 add	 ecx, 35316		; 000089f4H
  04e07	e8 00 00 00 00	 call	 ?push_back@?$list@UKViewObject@KPlayer@@V?$KAllocator@UKViewObject@KPlayer@@@KMemory@@@std@@QAEXABUKViewObject@KPlayer@@@Z ; std::list<KPlayer::KViewObject,KMemory::KAllocator<KPlayer::KViewObject> >::push_back
$LN1@operator@3:

; 2022 :     }
; 2023 : 
; 2024 :     return true;

  04e0c	c7 45 bc 01 00
	00 00		 mov	 DWORD PTR $T186973[ebp], 1
  04e13	c7 45 fc ff ff
	ff ff		 mov	 DWORD PTR __$EHRec$[ebp+8], -1
  04e1a	8d 4d dc	 lea	 ecx, DWORD PTR _InsRet$[ebp]
  04e1d	e8 00 00 00 00	 call	 ??1?$pair@Viterator@?$_Tree@V?$_Tset_traits@KU?$less@K@std@@V?$KAllocator@K@KMemory@@$0A@@std@@@std@@H@std@@QAE@XZ
  04e22	8b 45 bc	 mov	 eax, DWORD PTR $T186973[ebp]

; 2025 : }

  04e25	52		 push	 edx
  04e26	8b cd		 mov	 ecx, ebp
  04e28	50		 push	 eax
  04e29	8d 15 00 00 00
	00		 lea	 edx, DWORD PTR $LN9@operator@3
  04e2f	e8 00 00 00 00	 call	 @_RTC_CheckStackVars@8
  04e34	58		 pop	 eax
  04e35	5a		 pop	 edx
  04e36	8b 4d f4	 mov	 ecx, DWORD PTR __$EHRec$[ebp]
  04e39	64 89 0d 00 00
	00 00		 mov	 DWORD PTR fs:0, ecx
  04e40	59		 pop	 ecx
  04e41	5f		 pop	 edi
  04e42	83 c4 4c	 add	 esp, 76			; 0000004cH
  04e45	3b ec		 cmp	 ebp, esp
  04e47	e8 00 00 00 00	 call	 __RTC_CheckEsp
  04e4c	8b e5		 mov	 esp, ebp
  04e4e	5d		 pop	 ebp
  04e4f	c2 04 00	 ret	 4
  04e52	8b ff		 npad	 2
$LN9@operator@3:
  04e54	01 00 00 00	 DD	 1
  04e58	00 00 00 00	 DD	 $LN8@operator@3
$LN8@operator@3:
  04e5c	dc ff ff ff	 DD	 -36			; ffffffdcH
  04e60	10 00 00 00	 DD	 16			; 00000010H
  04e64	00 00 00 00	 DD	 $LN6@operator@3
$LN6@operator@3:
  04e68	49		 DB	 73			; 00000049H
  04e69	6e		 DB	 110			; 0000006eH
  04e6a	73		 DB	 115			; 00000073H
  04e6b	52		 DB	 82			; 00000052H
  04e6c	65		 DB	 101			; 00000065H
  04e6d	74		 DB	 116			; 00000074H
  04e6e	00		 DB	 0
_TEXT	ENDS
text$x	SEGMENT
__unwindfunclet$??RKRegisterNewDoodadFunc@@QAEHPAVKPlayer@@@Z$0:
  000ab	8d 4d c8	 lea	 ecx, DWORD PTR $T186971[ebp]
  000ae	e9 00 00 00 00	 jmp	 ??1?$pair@Viterator@?$_Tree@V?$_Tset_traits@KU?$less@K@std@@V?$KAllocator@K@KMemory@@$0A@@std@@@std@@_N@std@@QAE@XZ
__unwindfunclet$??RKRegisterNewDoodadFunc@@QAEHPAVKPlayer@@@Z$1:
  000b3	8d 4d dc	 lea	 ecx, DWORD PTR _InsRet$[ebp]
  000b6	e9 00 00 00 00	 jmp	 ??1?$pair@Viterator@?$_Tree@V?$_Tset_traits@KU?$less@K@std@@V?$KAllocator@K@KMemory@@$0A@@std@@@std@@H@std@@QAE@XZ
__ehhandler$??RKRegisterNewDoodadFunc@@QAEHPAVKPlayer@@@Z:
  000bb	8b 54 24 08	 mov	 edx, DWORD PTR [esp+8]
  000bf	8d 42 0c	 lea	 eax, DWORD PTR [edx+12]
  000c2	8b 4a b8	 mov	 ecx, DWORD PTR [edx-72]
  000c5	33 c8		 xor	 ecx, eax
  000c7	e8 00 00 00 00	 call	 @__security_check_cookie@4
  000cc	b8 00 00 00 00	 mov	 eax, OFFSET __ehfuncinfo$??RKRegisterNewDoodadFunc@@QAEHPAVKPlayer@@@Z
  000d1	e9 00 00 00 00	 jmp	 ___CxxFrameHandler3
text$x	ENDS
??RKRegisterNewDoodadFunc@@QAEHPAVKPlayer@@@Z ENDP	; KRegisterNewDoodadFunc::operator()
PUBLIC	?_Mynode@const_iterator@?$_Tree@V?$_Tset_traits@KU?$less@K@std@@V?$KAllocator@K@KMemory@@$0A@@std@@@std@@QBEPAU_Node@?$_Tree_nod@V?$_Tset_traits@KU?$less@K@std@@V?$KAllocator@K@KMemory@@$0A@@std@@@3@XZ ; std::_Tree<std::_Tset_traits<unsigned long,std::less<unsigned long>,KMemory::KAllocator<unsigned long>,0> >::const_iterator::_Mynode
PUBLIC	??Fiterator@?$_Tree@V?$_Tset_traits@KU?$less@K@std@@V?$KAllocator@K@KMemory@@$0A@@std@@@std@@QAEAAV012@XZ ; std::_Tree<std::_Tset_traits<unsigned long,std::less<unsigned long>,KMemory::KAllocator<unsigned long>,0> >::iterator::operator--
PUBLIC	??8const_iterator@?$_Tree@V?$_Tset_traits@KU?$less@K@std@@V?$KAllocator@K@KMemory@@$0A@@std@@@std@@QBE_NABV012@@Z ; std::_Tree<std::_Tset_traits<unsigned long,std::less<unsigned long>,KMemory::KAllocator<unsigned long>,0> >::const_iterator::operator==
PUBLIC	?begin@?$_Tree@V?$_Tset_traits@KU?$less@K@std@@V?$KAllocator@K@KMemory@@$0A@@std@@@std@@QAE?AViterator@12@XZ ; std::_Tree<std::_Tset_traits<unsigned long,std::less<unsigned long>,KMemory::KAllocator<unsigned long>,0> >::begin
PUBLIC	??0iterator@?$_Tree@V?$_Tset_traits@KU?$less@K@std@@V?$KAllocator@K@KMemory@@$0A@@std@@@std@@QAE@PAU_Node@?$_Tree_nod@V?$_Tset_traits@KU?$less@K@std@@V?$KAllocator@K@KMemory@@$0A@@std@@@2@PBV12@@Z ; std::_Tree<std::_Tset_traits<unsigned long,std::less<unsigned long>,KMemory::KAllocator<unsigned long>,0> >::iterator::iterator
PUBLIC	??0?$pair@Viterator@?$_Tree@V?$_Tset_traits@KU?$less@K@std@@V?$KAllocator@K@KMemory@@$0A@@std@@@std@@_N@std@@QAE@ABViterator@?$_Tree@V?$_Tset_traits@KU?$less@K@std@@V?$KAllocator@K@KMemory@@$0A@@std@@@1@AB_N@Z ; std::pair<std::_Tree<std::_Tset_traits<unsigned long,std::less<unsigned long>,KMemory::KAllocator<unsigned long>,0> >::iterator,bool>::pair<std::_Tree<std::_Tset_traits<unsigned long,std::less<unsigned long>,KMemory::KAllocator<unsigned long>,0> >::iterator,bool>
PUBLIC	?_Insert@?$_Tree@V?$_Tset_traits@KU?$less@K@std@@V?$KAllocator@K@KMemory@@$0A@@std@@@std@@IAE?AViterator@12@_NPAU_Node@?$_Tree_nod@V?$_Tset_traits@KU?$less@K@std@@V?$KAllocator@K@KMemory@@$0A@@std@@@2@ABK@Z ; std::_Tree<std::_Tset_traits<unsigned long,std::less<unsigned long>,KMemory::KAllocator<unsigned long>,0> >::_Insert
PUBLIC	?_Right@?$_Tree@V?$_Tset_traits@KU?$less@K@std@@V?$KAllocator@K@KMemory@@$0A@@std@@@std@@KAAAPAU_Node@?$_Tree_nod@V?$_Tset_traits@KU?$less@K@std@@V?$KAllocator@K@KMemory@@$0A@@std@@@2@PAU342@@Z ; std::_Tree<std::_Tset_traits<unsigned long,std::less<unsigned long>,KMemory::KAllocator<unsigned long>,0> >::_Right
PUBLIC	?_Left@?$_Tree@V?$_Tset_traits@KU?$less@K@std@@V?$KAllocator@K@KMemory@@$0A@@std@@@std@@KAAAPAU_Node@?$_Tree_nod@V?$_Tset_traits@KU?$less@K@std@@V?$KAllocator@K@KMemory@@$0A@@std@@@2@PAU342@@Z ; std::_Tree<std::_Tset_traits<unsigned long,std::less<unsigned long>,KMemory::KAllocator<unsigned long>,0> >::_Left
PUBLIC	??$_Debug_lt_pred@U?$less@K@std@@KK@std@@YA_NU?$less@K@0@ABK1PB_WI@Z ; std::_Debug_lt_pred<std::less<unsigned long>,unsigned long,unsigned long>
PUBLIC	?_Kfn@?$_Tset_traits@KU?$less@K@std@@V?$KAllocator@K@KMemory@@$0A@@std@@SAABKABK@Z ; std::_Tset_traits<unsigned long,std::less<unsigned long>,KMemory::KAllocator<unsigned long>,0>::_Kfn
PUBLIC	?_Key@?$_Tree@V?$_Tset_traits@KU?$less@K@std@@V?$KAllocator@K@KMemory@@$0A@@std@@@std@@KAABKPAU_Node@?$_Tree_nod@V?$_Tset_traits@KU?$less@K@std@@V?$KAllocator@K@KMemory@@$0A@@std@@@2@@Z ; std::_Tree<std::_Tset_traits<unsigned long,std::less<unsigned long>,KMemory::KAllocator<unsigned long>,0> >::_Key
PUBLIC	??_C@_1HI@LGPIFNJI@?$AAD?$AA?3?$AA?2?$AAP?$AAr?$AAo?$AAg?$AAr?$AAa?$AAm?$AA?5?$AAF?$AAi?$AAl?$AAe?$AAs?$AA?2?$AAM?$AAi?$AAc?$AAr?$AAo?$AAs?$AAo?$AAf?$AAt?$AA?5?$AAV?$AAi?$AAs?$AAu?$AAa@ ; `string'
PUBLIC	?_Isnil@?$_Tree@V?$_Tset_traits@KU?$less@K@std@@V?$KAllocator@K@KMemory@@$0A@@std@@@std@@KAAADPAU_Node@?$_Tree_nod@V?$_Tset_traits@KU?$less@K@std@@V?$KAllocator@K@KMemory@@$0A@@std@@@2@@Z ; std::_Tree<std::_Tset_traits<unsigned long,std::less<unsigned long>,KMemory::KAllocator<unsigned long>,0> >::_Isnil
PUBLIC	?_Root@?$_Tree@V?$_Tset_traits@KU?$less@K@std@@V?$KAllocator@K@KMemory@@$0A@@std@@@std@@IBEAAPAU_Node@?$_Tree_nod@V?$_Tset_traits@KU?$less@K@std@@V?$KAllocator@K@KMemory@@$0A@@std@@@2@XZ ; std::_Tree<std::_Tset_traits<unsigned long,std::less<unsigned long>,KMemory::KAllocator<unsigned long>,0> >::_Root
;	COMDAT ??_C@_1HI@LGPIFNJI@?$AAD?$AA?3?$AA?2?$AAP?$AAr?$AAo?$AAg?$AAr?$AAa?$AAm?$AA?5?$AAF?$AAi?$AAl?$AAe?$AAs?$AA?2?$AAM?$AAi?$AAc?$AAr?$AAo?$AAs?$AAo?$AAf?$AAt?$AA?5?$AAV?$AAi?$AAs?$AAu?$AAa@
; File d:\program files\microsoft visual studio 8\vc\include\xtree
CONST	SEGMENT
??_C@_1HI@LGPIFNJI@?$AAD?$AA?3?$AA?2?$AAP?$AAr?$AAo?$AAg?$AAr?$AAa?$AAm?$AA?5?$AAF?$AAi?$AAl?$AAe?$AAs?$AA?2?$AAM?$AAi?$AAc?$AAr?$AAo?$AAs?$AAo?$AAf?$AAt?$AA?5?$AAV?$AAi?$AAs?$AAu?$AAa@ DB 'D'
	DB	00H, ':', 00H, '\', 00H, 'P', 00H, 'r', 00H, 'o', 00H, 'g', 00H
	DB	'r', 00H, 'a', 00H, 'm', 00H, ' ', 00H, 'F', 00H, 'i', 00H, 'l'
	DB	00H, 'e', 00H, 's', 00H, '\', 00H, 'M', 00H, 'i', 00H, 'c', 00H
	DB	'r', 00H, 'o', 00H, 's', 00H, 'o', 00H, 'f', 00H, 't', 00H, ' '
	DB	00H, 'V', 00H, 'i', 00H, 's', 00H, 'u', 00H, 'a', 00H, 'l', 00H
	DB	' ', 00H, 'S', 00H, 't', 00H, 'u', 00H, 'd', 00H, 'i', 00H, 'o'
	DB	00H, ' ', 00H, '8', 00H, '\', 00H, 'V', 00H, 'C', 00H, '\', 00H
	DB	'i', 00H, 'n', 00H, 'c', 00H, 'l', 00H, 'u', 00H, 'd', 00H, 'e'
	DB	00H, '\', 00H, 'x', 00H, 't', 00H, 'r', 00H, 'e', 00H, 'e', 00H
	DB	00H, 00H					; `string'
CONST	ENDS
;	COMDAT xdata$x
xdata$x	SEGMENT
__ehfuncinfo$?insert@?$_Tree@V?$_Tset_traits@KU?$less@K@std@@V?$KAllocator@K@KMemory@@$0A@@std@@@std@@QAE?AU?$pair@Viterator@?$_Tree@V?$_Tset_traits@KU?$less@K@std@@V?$KAllocator@K@KMemory@@$0A@@std@@@std@@_N@2@ABK@Z DD 019930522H
	DD	06H
	DD	FLAT:__unwindtable$?insert@?$_Tree@V?$_Tset_traits@KU?$less@K@std@@V?$KAllocator@K@KMemory@@$0A@@std@@@std@@QAE?AU?$pair@Viterator@?$_Tree@V?$_Tset_traits@KU?$less@K@std@@V?$KAllocator@K@KMemory@@$0A@@std@@@std@@_N@2@ABK@Z
	DD	2 DUP(00H)
	DD	2 DUP(00H)
	DD	00H
	DD	01H
__unwindtable$?insert@?$_Tree@V?$_Tset_traits@KU?$less@K@std@@V?$KAllocator@K@KMemory@@$0A@@std@@@std@@QAE?AU?$pair@Viterator@?$_Tree@V?$_Tset_traits@KU?$less@K@std@@V?$KAllocator@K@KMemory@@$0A@@std@@@std@@_N@2@ABK@Z DD 0ffffffffH
	DD	FLAT:__unwindfunclet$?insert@?$_Tree@V?$_Tset_traits@KU?$less@K@std@@V?$KAllocator@K@KMemory@@$0A@@std@@@std@@QAE?AU?$pair@Viterator@?$_Tree@V?$_Tset_traits@KU?$less@K@std@@V?$KAllocator@K@KMemory@@$0A@@std@@@std@@_N@2@ABK@Z$1
	DD	00H
	DD	FLAT:__unwindfunclet$?insert@?$_Tree@V?$_Tset_traits@KU?$less@K@std@@V?$KAllocator@K@KMemory@@$0A@@std@@@std@@QAE?AU?$pair@Viterator@?$_Tree@V?$_Tset_traits@KU?$less@K@std@@V?$KAllocator@K@KMemory@@$0A@@std@@@std@@_N@2@ABK@Z$0
	DD	00H
	DD	FLAT:__unwindfunclet$?insert@?$_Tree@V?$_Tset_traits@KU?$less@K@std@@V?$KAllocator@K@KMemory@@$0A@@std@@@std@@QAE?AU?$pair@Viterator@?$_Tree@V?$_Tset_traits@KU?$less@K@std@@V?$KAllocator@K@KMemory@@$0A@@std@@@std@@_N@2@ABK@Z$2
	DD	02H
	DD	FLAT:__unwindfunclet$?insert@?$_Tree@V?$_Tset_traits@KU?$less@K@std@@V?$KAllocator@K@KMemory@@$0A@@std@@@std@@QAE?AU?$pair@Viterator@?$_Tree@V?$_Tset_traits@KU?$less@K@std@@V?$KAllocator@K@KMemory@@$0A@@std@@@std@@_N@2@ABK@Z$3
	DD	02H
	DD	FLAT:__unwindfunclet$?insert@?$_Tree@V?$_Tset_traits@KU?$less@K@std@@V?$KAllocator@K@KMemory@@$0A@@std@@@std@@QAE?AU?$pair@Viterator@?$_Tree@V?$_Tset_traits@KU?$less@K@std@@V?$KAllocator@K@KMemory@@$0A@@std@@@std@@_N@2@ABK@Z$4
	DD	02H
	DD	FLAT:__unwindfunclet$?insert@?$_Tree@V?$_Tset_traits@KU?$less@K@std@@V?$KAllocator@K@KMemory@@$0A@@std@@@std@@QAE?AU?$pair@Viterator@?$_Tree@V?$_Tset_traits@KU?$less@K@std@@V?$KAllocator@K@KMemory@@$0A@@std@@@std@@_N@2@ABK@Z$5
; Function compile flags: /Odtp /RTCsu
xdata$x	ENDS
;	COMDAT ?insert@?$_Tree@V?$_Tset_traits@KU?$less@K@std@@V?$KAllocator@K@KMemory@@$0A@@std@@@std@@QAE?AU?$pair@Viterator@?$_Tree@V?$_Tset_traits@KU?$less@K@std@@V?$KAllocator@K@KMemory@@$0A@@std@@@std@@_N@2@ABK@Z
_TEXT	SEGMENT
tv213 = -156						; size = 4
tv153 = -152						; size = 4
tv209 = -148						; size = 4
tv219 = -144						; size = 4
tv207 = -140						; size = 4
tv136 = -136						; size = 4
tv200 = -132						; size = 4
tv218 = -128						; size = 4
tv88 = -124						; size = 4
$T186997 = -120						; size = 4
$T186994 = -113						; size = 1
$T186993 = -112						; size = 12
$T186992 = -97						; size = 1
$T186991 = -96						; size = 12
$T186990 = -81						; size = 1
$T186989 = -80						; size = 12
$T186988 = -65						; size = 1
$T186987 = -64						; size = 12
$T186986 = -49						; size = 1
__Where$179142 = -44					; size = 12
__Addleft$ = -25					; size = 1
__Wherenode$ = -24					; size = 4
__Trynode$ = -20					; size = 4
_this$ = -16						; size = 4
__$EHRec$ = -12						; size = 12
___$ReturnUdt$ = 8					; size = 4
__Val$ = 12						; size = 4
?insert@?$_Tree@V?$_Tset_traits@KU?$less@K@std@@V?$KAllocator@K@KMemory@@$0A@@std@@@std@@QAE?AU?$pair@Viterator@?$_Tree@V?$_Tset_traits@KU?$less@K@std@@V?$KAllocator@K@KMemory@@$0A@@std@@@std@@_N@2@ABK@Z PROC ; std::_Tree<std::_Tset_traits<unsigned long,std::less<unsigned long>,KMemory::KAllocator<unsigned long>,0> >::insert, COMDAT
; _this$ = ecx

; 611  : 		{	// try to insert node with value _Val

  00000	55		 push	 ebp
  00001	8b ec		 mov	 ebp, esp
  00003	6a ff		 push	 -1
  00005	68 00 00 00 00	 push	 __ehhandler$?insert@?$_Tree@V?$_Tset_traits@KU?$less@K@std@@V?$KAllocator@K@KMemory@@$0A@@std@@@std@@QAE?AU?$pair@Viterator@?$_Tree@V?$_Tset_traits@KU?$less@K@std@@V?$KAllocator@K@KMemory@@$0A@@std@@@std@@_N@2@ABK@Z
  0000a	64 a1 00 00 00
	00		 mov	 eax, DWORD PTR fs:0
  00010	50		 push	 eax
  00011	81 ec 90 00 00
	00		 sub	 esp, 144		; 00000090H
  00017	57		 push	 edi
  00018	51		 push	 ecx
  00019	8d bd 64 ff ff
	ff		 lea	 edi, DWORD PTR [ebp-156]
  0001f	b9 24 00 00 00	 mov	 ecx, 36			; 00000024H
  00024	b8 cc cc cc cc	 mov	 eax, -858993460		; ccccccccH
  00029	f3 ab		 rep stosd
  0002b	59		 pop	 ecx
  0002c	a1 00 00 00 00	 mov	 eax, DWORD PTR ___security_cookie
  00031	33 c5		 xor	 eax, ebp
  00033	50		 push	 eax
  00034	8d 45 f4	 lea	 eax, DWORD PTR __$EHRec$[ebp]
  00037	64 a3 00 00 00
	00		 mov	 DWORD PTR fs:0, eax
  0003d	89 4d f0	 mov	 DWORD PTR _this$[ebp], ecx
  00040	c7 45 88 00 00
	00 00		 mov	 DWORD PTR $T186997[ebp], 0

; 612  : 		_Nodeptr _Trynode = _Root();

  00047	8b 4d f0	 mov	 ecx, DWORD PTR _this$[ebp]
  0004a	e8 00 00 00 00	 call	 ?_Root@?$_Tree@V?$_Tset_traits@KU?$less@K@std@@V?$KAllocator@K@KMemory@@$0A@@std@@@std@@IBEAAPAU_Node@?$_Tree_nod@V?$_Tset_traits@KU?$less@K@std@@V?$KAllocator@K@KMemory@@$0A@@std@@@2@XZ ; std::_Tree<std::_Tset_traits<unsigned long,std::less<unsigned long>,KMemory::KAllocator<unsigned long>,0> >::_Root
  0004f	8b 00		 mov	 eax, DWORD PTR [eax]
  00051	89 45 ec	 mov	 DWORD PTR __Trynode$[ebp], eax

; 613  : 		_Nodeptr _Wherenode = _Myhead;

  00054	8b 4d f0	 mov	 ecx, DWORD PTR _this$[ebp]
  00057	8b 51 14	 mov	 edx, DWORD PTR [ecx+20]
  0005a	89 55 e8	 mov	 DWORD PTR __Wherenode$[ebp], edx

; 614  : 		bool _Addleft = true;	// add to left of head if tree empty

  0005d	c6 45 e7 01	 mov	 BYTE PTR __Addleft$[ebp], 1
$LN10@insert:

; 615  : 		while (!_Isnil(_Trynode))

  00061	8b 45 ec	 mov	 eax, DWORD PTR __Trynode$[ebp]
  00064	50		 push	 eax
  00065	e8 00 00 00 00	 call	 ?_Isnil@?$_Tree@V?$_Tset_traits@KU?$less@K@std@@V?$KAllocator@K@KMemory@@$0A@@std@@@std@@KAAADPAU_Node@?$_Tree_nod@V?$_Tset_traits@KU?$less@K@std@@V?$KAllocator@K@KMemory@@$0A@@std@@@2@@Z ; std::_Tree<std::_Tset_traits<unsigned long,std::less<unsigned long>,KMemory::KAllocator<unsigned long>,0> >::_Isnil
  0006a	83 c4 04	 add	 esp, 4
  0006d	0f be 08	 movsx	 ecx, BYTE PTR [eax]
  00070	85 c9		 test	 ecx, ecx
  00072	75 73		 jne	 SHORT $LN9@insert

; 616  : 			{	// look for leaf to insert before (_Addleft) or after
; 617  : 			_Wherenode = _Trynode;

  00074	8b 55 ec	 mov	 edx, DWORD PTR __Trynode$[ebp]
  00077	89 55 e8	 mov	 DWORD PTR __Wherenode$[ebp], edx

; 618  : 			_Addleft = _DEBUG_LT_PRED(this->comp,

  0007a	68 6b 02 00 00	 push	 619			; 0000026bH
  0007f	68 00 00 00 00	 push	 OFFSET ??_C@_1HI@LGPIFNJI@?$AAD?$AA?3?$AA?2?$AAP?$AAr?$AAo?$AAg?$AAr?$AAa?$AAm?$AA?5?$AAF?$AAi?$AAl?$AAe?$AAs?$AA?2?$AAM?$AAi?$AAc?$AAr?$AAo?$AAs?$AAo?$AAf?$AAt?$AA?5?$AAV?$AAi?$AAs?$AAu?$AAa@
  00084	8b 45 ec	 mov	 eax, DWORD PTR __Trynode$[ebp]
  00087	50		 push	 eax
  00088	e8 00 00 00 00	 call	 ?_Key@?$_Tree@V?$_Tset_traits@KU?$less@K@std@@V?$KAllocator@K@KMemory@@$0A@@std@@@std@@KAABKPAU_Node@?$_Tree_nod@V?$_Tset_traits@KU?$less@K@std@@V?$KAllocator@K@KMemory@@$0A@@std@@@2@@Z ; std::_Tree<std::_Tset_traits<unsigned long,std::less<unsigned long>,KMemory::KAllocator<unsigned long>,0> >::_Key
  0008d	83 c4 04	 add	 esp, 4
  00090	50		 push	 eax
  00091	8b 4d 0c	 mov	 ecx, DWORD PTR __Val$[ebp]
  00094	51		 push	 ecx
  00095	e8 00 00 00 00	 call	 ?_Kfn@?$_Tset_traits@KU?$less@K@std@@V?$KAllocator@K@KMemory@@$0A@@std@@SAABKABK@Z ; std::_Tset_traits<unsigned long,std::less<unsigned long>,KMemory::KAllocator<unsigned long>,0>::_Kfn
  0009a	83 c4 04	 add	 esp, 4
  0009d	50		 push	 eax
  0009e	8b 55 f0	 mov	 edx, DWORD PTR _this$[ebp]
  000a1	8a 42 04	 mov	 al, BYTE PTR [edx+4]
  000a4	50		 push	 eax
  000a5	e8 00 00 00 00	 call	 ??$_Debug_lt_pred@U?$less@K@std@@KK@std@@YA_NU?$less@K@0@ABK1PB_WI@Z ; std::_Debug_lt_pred<std::less<unsigned long>,unsigned long,unsigned long>
  000aa	83 c4 14	 add	 esp, 20			; 00000014H
  000ad	88 45 e7	 mov	 BYTE PTR __Addleft$[ebp], al

; 619  : 				this->_Kfn(_Val), _Key(_Trynode));
; 620  : 			_Trynode = _Addleft ? _Left(_Trynode) : _Right(_Trynode);

  000b0	0f b6 4d e7	 movzx	 ecx, BYTE PTR __Addleft$[ebp]
  000b4	85 c9		 test	 ecx, ecx
  000b6	74 13		 je	 SHORT $LN13@insert
  000b8	8b 55 ec	 mov	 edx, DWORD PTR __Trynode$[ebp]
  000bb	52		 push	 edx
  000bc	e8 00 00 00 00	 call	 ?_Left@?$_Tree@V?$_Tset_traits@KU?$less@K@std@@V?$KAllocator@K@KMemory@@$0A@@std@@@std@@KAAAPAU_Node@?$_Tree_nod@V?$_Tset_traits@KU?$less@K@std@@V?$KAllocator@K@KMemory@@$0A@@std@@@2@PAU342@@Z ; std::_Tree<std::_Tset_traits<unsigned long,std::less<unsigned long>,KMemory::KAllocator<unsigned long>,0> >::_Left
  000c1	83 c4 04	 add	 esp, 4
  000c4	8b 00		 mov	 eax, DWORD PTR [eax]
  000c6	89 45 84	 mov	 DWORD PTR tv88[ebp], eax
  000c9	eb 11		 jmp	 SHORT $LN14@insert
$LN13@insert:
  000cb	8b 4d ec	 mov	 ecx, DWORD PTR __Trynode$[ebp]
  000ce	51		 push	 ecx
  000cf	e8 00 00 00 00	 call	 ?_Right@?$_Tree@V?$_Tset_traits@KU?$less@K@std@@V?$KAllocator@K@KMemory@@$0A@@std@@@std@@KAAAPAU_Node@?$_Tree_nod@V?$_Tset_traits@KU?$less@K@std@@V?$KAllocator@K@KMemory@@$0A@@std@@@2@PAU342@@Z ; std::_Tree<std::_Tset_traits<unsigned long,std::less<unsigned long>,KMemory::KAllocator<unsigned long>,0> >::_Right
  000d4	83 c4 04	 add	 esp, 4
  000d7	8b 10		 mov	 edx, DWORD PTR [eax]
  000d9	89 55 84	 mov	 DWORD PTR tv88[ebp], edx
$LN14@insert:
  000dc	8b 45 84	 mov	 eax, DWORD PTR tv88[ebp]
  000df	89 45 ec	 mov	 DWORD PTR __Trynode$[ebp], eax

; 621  : 			}

  000e2	e9 7a ff ff ff	 jmp	 $LN10@insert
$LN9@insert:

; 622  : 
; 623  : 		if (this->_Multi)

  000e7	33 c9		 xor	 ecx, ecx
  000e9	74 64		 je	 SHORT $LN8@insert

; 624  : 			return (_Pairib(_Insert(_Addleft, _Wherenode, _Val), true));

  000eb	c6 45 cf 01	 mov	 BYTE PTR $T186986[ebp], 1
  000ef	8d 55 cf	 lea	 edx, DWORD PTR $T186986[ebp]
  000f2	52		 push	 edx
  000f3	8b 45 0c	 mov	 eax, DWORD PTR __Val$[ebp]
  000f6	50		 push	 eax
  000f7	8b 4d e8	 mov	 ecx, DWORD PTR __Wherenode$[ebp]
  000fa	51		 push	 ecx
  000fb	8a 55 e7	 mov	 dl, BYTE PTR __Addleft$[ebp]
  000fe	52		 push	 edx
  000ff	8d 45 c0	 lea	 eax, DWORD PTR $T186987[ebp]
  00102	50		 push	 eax
  00103	8b 4d f0	 mov	 ecx, DWORD PTR _this$[ebp]
  00106	e8 00 00 00 00	 call	 ?_Insert@?$_Tree@V?$_Tset_traits@KU?$less@K@std@@V?$KAllocator@K@KMemory@@$0A@@std@@@std@@IAE?AViterator@12@_NPAU_Node@?$_Tree_nod@V?$_Tset_traits@KU?$less@K@std@@V?$KAllocator@K@KMemory@@$0A@@std@@@2@ABK@Z ; std::_Tree<std::_Tset_traits<unsigned long,std::less<unsigned long>,KMemory::KAllocator<unsigned long>,0> >::_Insert
  0010b	89 45 80	 mov	 DWORD PTR tv218[ebp], eax
  0010e	8b 4d 80	 mov	 ecx, DWORD PTR tv218[ebp]
  00111	89 8d 7c ff ff
	ff		 mov	 DWORD PTR tv200[ebp], ecx
  00117	c7 45 fc 01 00
	00 00		 mov	 DWORD PTR __$EHRec$[ebp+8], 1
  0011e	8b 95 7c ff ff
	ff		 mov	 edx, DWORD PTR tv200[ebp]
  00124	52		 push	 edx
  00125	8b 4d 08	 mov	 ecx, DWORD PTR ___$ReturnUdt$[ebp]
  00128	e8 00 00 00 00	 call	 ??0?$pair@Viterator@?$_Tree@V?$_Tset_traits@KU?$less@K@std@@V?$KAllocator@K@KMemory@@$0A@@std@@@std@@_N@std@@QAE@ABViterator@?$_Tree@V?$_Tset_traits@KU?$less@K@std@@V?$KAllocator@K@KMemory@@$0A@@std@@@1@AB_N@Z ; std::pair<std::_Tree<std::_Tset_traits<unsigned long,std::less<unsigned long>,KMemory::KAllocator<unsigned long>,0> >::iterator,bool>::pair<std::_Tree<std::_Tset_traits<unsigned long,std::less<unsigned long>,KMemory::KAllocator<unsigned long>,0> >::iterator,bool>
  0012d	8b 45 88	 mov	 eax, DWORD PTR $T186997[ebp]
  00130	83 c8 01	 or	 eax, 1
  00133	89 45 88	 mov	 DWORD PTR $T186997[ebp], eax
  00136	c6 45 fc 00	 mov	 BYTE PTR __$EHRec$[ebp+8], 0
  0013a	8d 4d c0	 lea	 ecx, DWORD PTR $T186987[ebp]
  0013d	e8 00 00 00 00	 call	 ??1iterator@?$_Tree@V?$_Tset_traits@KU?$less@K@std@@V?$KAllocator@K@KMemory@@$0A@@std@@@std@@QAE@XZ
  00142	8b 45 08	 mov	 eax, DWORD PTR ___$ReturnUdt$[ebp]
  00145	e9 cd 01 00 00	 jmp	 $LN11@insert

; 625  : 		else

  0014a	e9 c8 01 00 00	 jmp	 $LN11@insert
$LN8@insert:

; 626  : 			{	// insert only if unique
; 627  : 			iterator _Where = _TREE_ITERATOR(_Wherenode);

  0014f	8b 4d f0	 mov	 ecx, DWORD PTR _this$[ebp]
  00152	51		 push	 ecx
  00153	8b 55 e8	 mov	 edx, DWORD PTR __Wherenode$[ebp]
  00156	52		 push	 edx
  00157	8d 4d d4	 lea	 ecx, DWORD PTR __Where$179142[ebp]
  0015a	e8 00 00 00 00	 call	 ??0iterator@?$_Tree@V?$_Tset_traits@KU?$less@K@std@@V?$KAllocator@K@KMemory@@$0A@@std@@@std@@QAE@PAU_Node@?$_Tree_nod@V?$_Tset_traits@KU?$less@K@std@@V?$KAllocator@K@KMemory@@$0A@@std@@@2@PBV12@@Z ; std::_Tree<std::_Tset_traits<unsigned long,std::less<unsigned long>,KMemory::KAllocator<unsigned long>,0> >::iterator::iterator
  0015f	c7 45 fc 02 00
	00 00		 mov	 DWORD PTR __$EHRec$[ebp+8], 2

; 628  : 			if (!_Addleft)

  00166	0f b6 45 e7	 movzx	 eax, BYTE PTR __Addleft$[ebp]
  0016a	85 c0		 test	 eax, eax
  0016c	75 05		 jne	 SHORT $LN6@insert
  0016e	e9 be 00 00 00	 jmp	 $LN5@insert
$LN6@insert:

; 629  : 				;	// need to test if insert after is okay
; 630  : 			else if (_Where == begin())

  00173	8d 4d b0	 lea	 ecx, DWORD PTR $T186989[ebp]
  00176	51		 push	 ecx
  00177	8b 4d f0	 mov	 ecx, DWORD PTR _this$[ebp]
  0017a	e8 00 00 00 00	 call	 ?begin@?$_Tree@V?$_Tset_traits@KU?$less@K@std@@V?$KAllocator@K@KMemory@@$0A@@std@@@std@@QAE?AViterator@12@XZ ; std::_Tree<std::_Tset_traits<unsigned long,std::less<unsigned long>,KMemory::KAllocator<unsigned long>,0> >::begin
  0017f	89 85 78 ff ff
	ff		 mov	 DWORD PTR tv136[ebp], eax
  00185	8b 95 78 ff ff
	ff		 mov	 edx, DWORD PTR tv136[ebp]
  0018b	89 95 74 ff ff
	ff		 mov	 DWORD PTR tv207[ebp], edx
  00191	c6 45 fc 03	 mov	 BYTE PTR __$EHRec$[ebp+8], 3
  00195	8b 85 74 ff ff
	ff		 mov	 eax, DWORD PTR tv207[ebp]
  0019b	50		 push	 eax
  0019c	8d 4d d4	 lea	 ecx, DWORD PTR __Where$179142[ebp]
  0019f	e8 00 00 00 00	 call	 ??8const_iterator@?$_Tree@V?$_Tset_traits@KU?$less@K@std@@V?$KAllocator@K@KMemory@@$0A@@std@@@std@@QBE_NABV012@@Z ; std::_Tree<std::_Tset_traits<unsigned long,std::less<unsigned long>,KMemory::KAllocator<unsigned long>,0> >::const_iterator::operator==
  001a4	88 45 bf	 mov	 BYTE PTR $T186988[ebp], al
  001a7	c6 45 fc 02	 mov	 BYTE PTR __$EHRec$[ebp+8], 2
  001ab	8d 4d b0	 lea	 ecx, DWORD PTR $T186989[ebp]
  001ae	e8 00 00 00 00	 call	 ??1iterator@?$_Tree@V?$_Tset_traits@KU?$less@K@std@@V?$KAllocator@K@KMemory@@$0A@@std@@@std@@QAE@XZ
  001b3	0f b6 4d bf	 movzx	 ecx, BYTE PTR $T186988[ebp]
  001b7	85 c9		 test	 ecx, ecx
  001b9	74 6e		 je	 SHORT $LN4@insert

; 631  : 				return (_Pairib(_Insert(true, _Wherenode, _Val), true));

  001bb	c6 45 af 01	 mov	 BYTE PTR $T186990[ebp], 1
  001bf	8d 55 af	 lea	 edx, DWORD PTR $T186990[ebp]
  001c2	52		 push	 edx
  001c3	8b 45 0c	 mov	 eax, DWORD PTR __Val$[ebp]
  001c6	50		 push	 eax
  001c7	8b 4d e8	 mov	 ecx, DWORD PTR __Wherenode$[ebp]
  001ca	51		 push	 ecx
  001cb	6a 01		 push	 1
  001cd	8d 55 a0	 lea	 edx, DWORD PTR $T186991[ebp]
  001d0	52		 push	 edx
  001d1	8b 4d f0	 mov	 ecx, DWORD PTR _this$[ebp]
  001d4	e8 00 00 00 00	 call	 ?_Insert@?$_Tree@V?$_Tset_traits@KU?$less@K@std@@V?$KAllocator@K@KMemory@@$0A@@std@@@std@@IAE?AViterator@12@_NPAU_Node@?$_Tree_nod@V?$_Tset_traits@KU?$less@K@std@@V?$KAllocator@K@KMemory@@$0A@@std@@@2@ABK@Z ; std::_Tree<std::_Tset_traits<unsigned long,std::less<unsigned long>,KMemory::KAllocator<unsigned long>,0> >::_Insert
  001d9	89 85 70 ff ff
	ff		 mov	 DWORD PTR tv219[ebp], eax
  001df	8b 85 70 ff ff
	ff		 mov	 eax, DWORD PTR tv219[ebp]
  001e5	89 85 6c ff ff
	ff		 mov	 DWORD PTR tv209[ebp], eax
  001eb	c6 45 fc 04	 mov	 BYTE PTR __$EHRec$[ebp+8], 4
  001ef	8b 8d 6c ff ff
	ff		 mov	 ecx, DWORD PTR tv209[ebp]
  001f5	51		 push	 ecx
  001f6	8b 4d 08	 mov	 ecx, DWORD PTR ___$ReturnUdt$[ebp]
  001f9	e8 00 00 00 00	 call	 ??0?$pair@Viterator@?$_Tree@V?$_Tset_traits@KU?$less@K@std@@V?$KAllocator@K@KMemory@@$0A@@std@@@std@@_N@std@@QAE@ABViterator@?$_Tree@V?$_Tset_traits@KU?$less@K@std@@V?$KAllocator@K@KMemory@@$0A@@std@@@1@AB_N@Z ; std::pair<std::_Tree<std::_Tset_traits<unsigned long,std::less<unsigned long>,KMemory::KAllocator<unsigned long>,0> >::iterator,bool>::pair<std::_Tree<std::_Tset_traits<unsigned long,std::less<unsigned long>,KMemory::KAllocator<unsigned long>,0> >::iterator,bool>
  001fe	8b 55 88	 mov	 edx, DWORD PTR $T186997[ebp]
  00201	83 ca 01	 or	 edx, 1
  00204	89 55 88	 mov	 DWORD PTR $T186997[ebp], edx
  00207	c6 45 fc 02	 mov	 BYTE PTR __$EHRec$[ebp+8], 2
  0020b	8d 4d a0	 lea	 ecx, DWORD PTR $T186991[ebp]
  0020e	e8 00 00 00 00	 call	 ??1iterator@?$_Tree@V?$_Tset_traits@KU?$less@K@std@@V?$KAllocator@K@KMemory@@$0A@@std@@@std@@QAE@XZ
  00213	c6 45 fc 00	 mov	 BYTE PTR __$EHRec$[ebp+8], 0
  00217	8d 4d d4	 lea	 ecx, DWORD PTR __Where$179142[ebp]
  0021a	e8 00 00 00 00	 call	 ??1iterator@?$_Tree@V?$_Tset_traits@KU?$less@K@std@@V?$KAllocator@K@KMemory@@$0A@@std@@@std@@QAE@XZ
  0021f	8b 45 08	 mov	 eax, DWORD PTR ___$ReturnUdt$[ebp]
  00222	e9 f0 00 00 00	 jmp	 $LN11@insert

; 632  : 			else

  00227	eb 08		 jmp	 SHORT $LN5@insert
$LN4@insert:

; 633  : 				--_Where;	// need to test if insert before is okay

  00229	8d 4d d4	 lea	 ecx, DWORD PTR __Where$179142[ebp]
  0022c	e8 00 00 00 00	 call	 ??Fiterator@?$_Tree@V?$_Tset_traits@KU?$less@K@std@@V?$KAllocator@K@KMemory@@$0A@@std@@@std@@QAEAAV012@XZ ; std::_Tree<std::_Tset_traits<unsigned long,std::less<unsigned long>,KMemory::KAllocator<unsigned long>,0> >::iterator::operator--
$LN5@insert:

; 634  : 
; 635  : 			if (_DEBUG_LT_PRED(this->comp,

  00231	68 7c 02 00 00	 push	 636			; 0000027cH
  00236	68 00 00 00 00	 push	 OFFSET ??_C@_1HI@LGPIFNJI@?$AAD?$AA?3?$AA?2?$AAP?$AAr?$AAo?$AAg?$AAr?$AAa?$AAm?$AA?5?$AAF?$AAi?$AAl?$AAe?$AAs?$AA?2?$AAM?$AAi?$AAc?$AAr?$AAo?$AAs?$AAo?$AAf?$AAt?$AA?5?$AAV?$AAi?$AAs?$AAu?$AAa@
  0023b	8b 45 0c	 mov	 eax, DWORD PTR __Val$[ebp]
  0023e	50		 push	 eax
  0023f	e8 00 00 00 00	 call	 ?_Kfn@?$_Tset_traits@KU?$less@K@std@@V?$KAllocator@K@KMemory@@$0A@@std@@SAABKABK@Z ; std::_Tset_traits<unsigned long,std::less<unsigned long>,KMemory::KAllocator<unsigned long>,0>::_Kfn
  00244	83 c4 04	 add	 esp, 4
  00247	50		 push	 eax
  00248	8d 4d d4	 lea	 ecx, DWORD PTR __Where$179142[ebp]
  0024b	e8 00 00 00 00	 call	 ?_Mynode@const_iterator@?$_Tree@V?$_Tset_traits@KU?$less@K@std@@V?$KAllocator@K@KMemory@@$0A@@std@@@std@@QBEPAU_Node@?$_Tree_nod@V?$_Tset_traits@KU?$less@K@std@@V?$KAllocator@K@KMemory@@$0A@@std@@@3@XZ ; std::_Tree<std::_Tset_traits<unsigned long,std::less<unsigned long>,KMemory::KAllocator<unsigned long>,0> >::const_iterator::_Mynode
  00250	50		 push	 eax
  00251	e8 00 00 00 00	 call	 ?_Key@?$_Tree@V?$_Tset_traits@KU?$less@K@std@@V?$KAllocator@K@KMemory@@$0A@@std@@@std@@KAABKPAU_Node@?$_Tree_nod@V?$_Tset_traits@KU?$less@K@std@@V?$KAllocator@K@KMemory@@$0A@@std@@@2@@Z ; std::_Tree<std::_Tset_traits<unsigned long,std::less<unsigned long>,KMemory::KAllocator<unsigned long>,0> >::_Key
  00256	83 c4 04	 add	 esp, 4
  00259	50		 push	 eax
  0025a	8b 4d f0	 mov	 ecx, DWORD PTR _this$[ebp]
  0025d	8a 51 04	 mov	 dl, BYTE PTR [ecx+4]
  00260	52		 push	 edx
  00261	e8 00 00 00 00	 call	 ??$_Debug_lt_pred@U?$less@K@std@@KK@std@@YA_NU?$less@K@0@ABK1PB_WI@Z ; std::_Debug_lt_pred<std::less<unsigned long>,unsigned long,unsigned long>
  00266	83 c4 14	 add	 esp, 20			; 00000014H
  00269	0f b6 c0	 movzx	 eax, al
  0026c	85 c0		 test	 eax, eax
  0026e	74 6d		 je	 SHORT $LN2@insert

; 636  : 				_Key(_Where._Mynode()), this->_Kfn(_Val)))
; 637  : 				return (_Pairib(_Insert(_Addleft, _Wherenode, _Val), true));

  00270	c6 45 9f 01	 mov	 BYTE PTR $T186992[ebp], 1
  00274	8d 4d 9f	 lea	 ecx, DWORD PTR $T186992[ebp]
  00277	51		 push	 ecx
  00278	8b 55 0c	 mov	 edx, DWORD PTR __Val$[ebp]
  0027b	52		 push	 edx
  0027c	8b 45 e8	 mov	 eax, DWORD PTR __Wherenode$[ebp]
  0027f	50		 push	 eax
  00280	8a 4d e7	 mov	 cl, BYTE PTR __Addleft$[ebp]
  00283	51		 push	 ecx
  00284	8d 55 90	 lea	 edx, DWORD PTR $T186993[ebp]
  00287	52		 push	 edx
  00288	8b 4d f0	 mov	 ecx, DWORD PTR _this$[ebp]
  0028b	e8 00 00 00 00	 call	 ?_Insert@?$_Tree@V?$_Tset_traits@KU?$less@K@std@@V?$KAllocator@K@KMemory@@$0A@@std@@@std@@IAE?AViterator@12@_NPAU_Node@?$_Tree_nod@V?$_Tset_traits@KU?$less@K@std@@V?$KAllocator@K@KMemory@@$0A@@std@@@2@ABK@Z ; std::_Tree<std::_Tset_traits<unsigned long,std::less<unsigned long>,KMemory::KAllocator<unsigned long>,0> >::_Insert
  00290	89 85 68 ff ff
	ff		 mov	 DWORD PTR tv153[ebp], eax
  00296	8b 85 68 ff ff
	ff		 mov	 eax, DWORD PTR tv153[ebp]
  0029c	89 85 64 ff ff
	ff		 mov	 DWORD PTR tv213[ebp], eax
  002a2	c6 45 fc 05	 mov	 BYTE PTR __$EHRec$[ebp+8], 5
  002a6	8b 8d 64 ff ff
	ff		 mov	 ecx, DWORD PTR tv213[ebp]
  002ac	51		 push	 ecx
  002ad	8b 4d 08	 mov	 ecx, DWORD PTR ___$ReturnUdt$[ebp]
  002b0	e8 00 00 00 00	 call	 ??0?$pair@Viterator@?$_Tree@V?$_Tset_traits@KU?$less@K@std@@V?$KAllocator@K@KMemory@@$0A@@std@@@std@@_N@std@@QAE@ABViterator@?$_Tree@V?$_Tset_traits@KU?$less@K@std@@V?$KAllocator@K@KMemory@@$0A@@std@@@1@AB_N@Z ; std::pair<std::_Tree<std::_Tset_traits<unsigned long,std::less<unsigned long>,KMemory::KAllocator<unsigned long>,0> >::iterator,bool>::pair<std::_Tree<std::_Tset_traits<unsigned long,std::less<unsigned long>,KMemory::KAllocator<unsigned long>,0> >::iterator,bool>
  002b5	8b 55 88	 mov	 edx, DWORD PTR $T186997[ebp]
  002b8	83 ca 01	 or	 edx, 1
  002bb	89 55 88	 mov	 DWORD PTR $T186997[ebp], edx
  002be	c6 45 fc 02	 mov	 BYTE PTR __$EHRec$[ebp+8], 2
  002c2	8d 4d 90	 lea	 ecx, DWORD PTR $T186993[ebp]
  002c5	e8 00 00 00 00	 call	 ??1iterator@?$_Tree@V?$_Tset_traits@KU?$less@K@std@@V?$KAllocator@K@KMemory@@$0A@@std@@@std@@QAE@XZ
  002ca	c6 45 fc 00	 mov	 BYTE PTR __$EHRec$[ebp+8], 0
  002ce	8d 4d d4	 lea	 ecx, DWORD PTR __Where$179142[ebp]
  002d1	e8 00 00 00 00	 call	 ??1iterator@?$_Tree@V?$_Tset_traits@KU?$less@K@std@@V?$KAllocator@K@KMemory@@$0A@@std@@@std@@QAE@XZ
  002d6	8b 45 08	 mov	 eax, DWORD PTR ___$ReturnUdt$[ebp]
  002d9	eb 3c		 jmp	 SHORT $LN11@insert

; 638  : 			else

  002db	eb 2e		 jmp	 SHORT $LN1@insert
$LN2@insert:

; 639  : 				return (_Pairib(_Where, false));

  002dd	c6 45 8f 00	 mov	 BYTE PTR $T186994[ebp], 0
  002e1	8d 45 8f	 lea	 eax, DWORD PTR $T186994[ebp]
  002e4	50		 push	 eax
  002e5	8d 4d d4	 lea	 ecx, DWORD PTR __Where$179142[ebp]
  002e8	51		 push	 ecx
  002e9	8b 4d 08	 mov	 ecx, DWORD PTR ___$ReturnUdt$[ebp]
  002ec	e8 00 00 00 00	 call	 ??0?$pair@Viterator@?$_Tree@V?$_Tset_traits@KU?$less@K@std@@V?$KAllocator@K@KMemory@@$0A@@std@@@std@@_N@std@@QAE@ABViterator@?$_Tree@V?$_Tset_traits@KU?$less@K@std@@V?$KAllocator@K@KMemory@@$0A@@std@@@1@AB_N@Z ; std::pair<std::_Tree<std::_Tset_traits<unsigned long,std::less<unsigned long>,KMemory::KAllocator<unsigned long>,0> >::iterator,bool>::pair<std::_Tree<std::_Tset_traits<unsigned long,std::less<unsigned long>,KMemory::KAllocator<unsigned long>,0> >::iterator,bool>
  002f1	8b 55 88	 mov	 edx, DWORD PTR $T186997[ebp]
  002f4	83 ca 01	 or	 edx, 1
  002f7	89 55 88	 mov	 DWORD PTR $T186997[ebp], edx
  002fa	c6 45 fc 00	 mov	 BYTE PTR __$EHRec$[ebp+8], 0
  002fe	8d 4d d4	 lea	 ecx, DWORD PTR __Where$179142[ebp]
  00301	e8 00 00 00 00	 call	 ??1iterator@?$_Tree@V?$_Tset_traits@KU?$less@K@std@@V?$KAllocator@K@KMemory@@$0A@@std@@@std@@QAE@XZ
  00306	8b 45 08	 mov	 eax, DWORD PTR ___$ReturnUdt$[ebp]
  00309	eb 0c		 jmp	 SHORT $LN11@insert
$LN1@insert:

; 640  : 			}

  0030b	c6 45 fc 00	 mov	 BYTE PTR __$EHRec$[ebp+8], 0
  0030f	8d 4d d4	 lea	 ecx, DWORD PTR __Where$179142[ebp]
  00312	e8 00 00 00 00	 call	 ??1iterator@?$_Tree@V?$_Tset_traits@KU?$less@K@std@@V?$KAllocator@K@KMemory@@$0A@@std@@@std@@QAE@XZ
$LN11@insert:

; 641  : 		}

  00317	52		 push	 edx
  00318	8b cd		 mov	 ecx, ebp
  0031a	50		 push	 eax
  0031b	8d 15 00 00 00
	00		 lea	 edx, DWORD PTR $LN25@insert
  00321	e8 00 00 00 00	 call	 @_RTC_CheckStackVars@8
  00326	58		 pop	 eax
  00327	5a		 pop	 edx
  00328	8b 4d f4	 mov	 ecx, DWORD PTR __$EHRec$[ebp]
  0032b	64 89 0d 00 00
	00 00		 mov	 DWORD PTR fs:0, ecx
  00332	59		 pop	 ecx
  00333	5f		 pop	 edi
  00334	81 c4 9c 00 00
	00		 add	 esp, 156		; 0000009cH
  0033a	3b ec		 cmp	 ebp, esp
  0033c	e8 00 00 00 00	 call	 __RTC_CheckEsp
  00341	8b e5		 mov	 esp, ebp
  00343	5d		 pop	 ebp
  00344	c2 08 00	 ret	 8
  00347	90		 npad	 1
$LN25@insert:
  00348	01 00 00 00	 DD	 1
  0034c	00 00 00 00	 DD	 $LN24@insert
$LN24@insert:
  00350	d4 ff ff ff	 DD	 -44			; ffffffd4H
  00354	0c 00 00 00	 DD	 12			; 0000000cH
  00358	00 00 00 00	 DD	 $LN22@insert
$LN22@insert:
  0035c	5f		 DB	 95			; 0000005fH
  0035d	57		 DB	 87			; 00000057H
  0035e	68		 DB	 104			; 00000068H
  0035f	65		 DB	 101			; 00000065H
  00360	72		 DB	 114			; 00000072H
  00361	65		 DB	 101			; 00000065H
  00362	00		 DB	 0
_TEXT	ENDS
;	COMDAT text$x
text$x	SEGMENT
__unwindfunclet$?insert@?$_Tree@V?$_Tset_traits@KU?$less@K@std@@V?$KAllocator@K@KMemory@@$0A@@std@@@std@@QAE?AU?$pair@Viterator@?$_Tree@V?$_Tset_traits@KU?$less@K@std@@V?$KAllocator@K@KMemory@@$0A@@std@@@std@@_N@2@ABK@Z$0:
  00000	8d 4d c0	 lea	 ecx, DWORD PTR $T186987[ebp]
  00003	e9 00 00 00 00	 jmp	 ??1iterator@?$_Tree@V?$_Tset_traits@KU?$less@K@std@@V?$KAllocator@K@KMemory@@$0A@@std@@@std@@QAE@XZ
__unwindfunclet$?insert@?$_Tree@V?$_Tset_traits@KU?$less@K@std@@V?$KAllocator@K@KMemory@@$0A@@std@@@std@@QAE?AU?$pair@Viterator@?$_Tree@V?$_Tset_traits@KU?$less@K@std@@V?$KAllocator@K@KMemory@@$0A@@std@@@std@@_N@2@ABK@Z$1:
  00008	8b 45 88	 mov	 eax, DWORD PTR $T186997[ebp]
  0000b	83 e0 01	 and	 eax, 1
  0000e	0f 84 0c 00 00
	00		 je	 $LN17@insert
  00014	83 65 88 fe	 and	 DWORD PTR $T186997[ebp], -2 ; fffffffeH
  00018	8b 4d 08	 mov	 ecx, DWORD PTR ___$ReturnUdt$[ebp]
  0001b	e9 00 00 00 00	 jmp	 ??1?$pair@Viterator@?$_Tree@V?$_Tset_traits@KU?$less@K@std@@V?$KAllocator@K@KMemory@@$0A@@std@@@std@@_N@std@@QAE@XZ
$LN17@insert:
  00020	c3		 ret	 0
__unwindfunclet$?insert@?$_Tree@V?$_Tset_traits@KU?$less@K@std@@V?$KAllocator@K@KMemory@@$0A@@std@@@std@@QAE?AU?$pair@Viterator@?$_Tree@V?$_Tset_traits@KU?$less@K@std@@V?$KAllocator@K@KMemory@@$0A@@std@@@std@@_N@2@ABK@Z$2:
  00021	8d 4d d4	 lea	 ecx, DWORD PTR __Where$179142[ebp]
  00024	e9 00 00 00 00	 jmp	 ??1iterator@?$_Tree@V?$_Tset_traits@KU?$less@K@std@@V?$KAllocator@K@KMemory@@$0A@@std@@@std@@QAE@XZ
__unwindfunclet$?insert@?$_Tree@V?$_Tset_traits@KU?$less@K@std@@V?$KAllocator@K@KMemory@@$0A@@std@@@std@@QAE?AU?$pair@Viterator@?$_Tree@V?$_Tset_traits@KU?$less@K@std@@V?$KAllocator@K@KMemory@@$0A@@std@@@std@@_N@2@ABK@Z$3:
  00029	8d 4d b0	 lea	 ecx, DWORD PTR $T186989[ebp]
  0002c	e9 00 00 00 00	 jmp	 ??1iterator@?$_Tree@V?$_Tset_traits@KU?$less@K@std@@V?$KAllocator@K@KMemory@@$0A@@std@@@std@@QAE@XZ
__unwindfunclet$?insert@?$_Tree@V?$_Tset_traits@KU?$less@K@std@@V?$KAllocator@K@KMemory@@$0A@@std@@@std@@QAE?AU?$pair@Viterator@?$_Tree@V?$_Tset_traits@KU?$less@K@std@@V?$KAllocator@K@KMemory@@$0A@@std@@@std@@_N@2@ABK@Z$4:
  00031	8d 4d a0	 lea	 ecx, DWORD PTR $T186991[ebp]
  00034	e9 00 00 00 00	 jmp	 ??1iterator@?$_Tree@V?$_Tset_traits@KU?$less@K@std@@V?$KAllocator@K@KMemory@@$0A@@std@@@std@@QAE@XZ
__unwindfunclet$?insert@?$_Tree@V?$_Tset_traits@KU?$less@K@std@@V?$KAllocator@K@KMemory@@$0A@@std@@@std@@QAE?AU?$pair@Viterator@?$_Tree@V?$_Tset_traits@KU?$less@K@std@@V?$KAllocator@K@KMemory@@$0A@@std@@@std@@_N@2@ABK@Z$5:
  00039	8d 4d 90	 lea	 ecx, DWORD PTR $T186993[ebp]
  0003c	e9 00 00 00 00	 jmp	 ??1iterator@?$_Tree@V?$_Tset_traits@KU?$less@K@std@@V?$KAllocator@K@KMemory@@$0A@@std@@@std@@QAE@XZ
__ehhandler$?insert@?$_Tree@V?$_Tset_traits@KU?$less@K@std@@V?$KAllocator@K@KMemory@@$0A@@std@@@std@@QAE?AU?$pair@Viterator@?$_Tree@V?$_Tset_traits@KU?$less@K@std@@V?$KAllocator@K@KMemory@@$0A@@std@@@std@@_N@2@ABK@Z:
  00041	8b 54 24 08	 mov	 edx, DWORD PTR [esp+8]
  00045	8d 42 0c	 lea	 eax, DWORD PTR [edx+12]
  00048	8b 8a 68 ff ff
	ff		 mov	 ecx, DWORD PTR [edx-152]
  0004e	33 c8		 xor	 ecx, eax
  00050	e8 00 00 00 00	 call	 @__security_check_cookie@4
  00055	b8 00 00 00 00	 mov	 eax, OFFSET __ehfuncinfo$?insert@?$_Tree@V?$_Tset_traits@KU?$less@K@std@@V?$KAllocator@K@KMemory@@$0A@@std@@@std@@QAE?AU?$pair@Viterator@?$_Tree@V?$_Tset_traits@KU?$less@K@std@@V?$KAllocator@K@KMemory@@$0A@@std@@@std@@_N@2@ABK@Z
  0005a	e9 00 00 00 00	 jmp	 ___CxxFrameHandler3
text$x	ENDS
?insert@?$_Tree@V?$_Tset_traits@KU?$less@K@std@@V?$KAllocator@K@KMemory@@$0A@@std@@@std@@QAE?AU?$pair@Viterator@?$_Tree@V?$_Tset_traits@KU?$less@K@std@@V?$KAllocator@K@KMemory@@$0A@@std@@@std@@_N@2@ABK@Z ENDP ; std::_Tree<std::_Tset_traits<unsigned long,std::less<unsigned long>,KMemory::KAllocator<unsigned long>,0> >::insert
PUBLIC	?_Insert@?$list@UKViewObject@KPlayer@@V?$KAllocator@UKViewObject@KPlayer@@@KMemory@@@std@@QAEXV?$_Iterator@$00@12@ABUKViewObject@KPlayer@@@Z ; std::list<KPlayer::KViewObject,KMemory::KAllocator<KPlayer::KViewObject> >::_Insert
PUBLIC	?end@?$list@UKViewObject@KPlayer@@V?$KAllocator@UKViewObject@KPlayer@@@KMemory@@@std@@QAE?AV?$_Iterator@$00@12@XZ ; std::list<KPlayer::KViewObject,KMemory::KAllocator<KPlayer::KViewObject> >::end
; Function compile flags: /Odtp /RTCsu
; File d:\program files\microsoft visual studio 8\vc\include\list
;	COMDAT ?push_back@?$list@UKViewObject@KPlayer@@V?$KAllocator@UKViewObject@KPlayer@@@KMemory@@@std@@QAEXABUKViewObject@KPlayer@@@Z
_TEXT	SEGMENT
tv82 = -12						; size = 4
$T187014 = -8						; size = 4
_this$ = -4						; size = 4
__Val$ = 8						; size = 4
?push_back@?$list@UKViewObject@KPlayer@@V?$KAllocator@UKViewObject@KPlayer@@@KMemory@@@std@@QAEXABUKViewObject@KPlayer@@@Z PROC ; std::list<KPlayer::KViewObject,KMemory::KAllocator<KPlayer::KViewObject> >::push_back, COMDAT
; _this$ = ecx

; 653  : 		{	// insert element at end

  00000	55		 push	 ebp
  00001	8b ec		 mov	 ebp, esp
  00003	83 ec 0c	 sub	 esp, 12			; 0000000cH
  00006	c7 45 f4 cc cc
	cc cc		 mov	 DWORD PTR [ebp-12], -858993460 ; ccccccccH
  0000d	c7 45 f8 cc cc
	cc cc		 mov	 DWORD PTR [ebp-8], -858993460 ; ccccccccH
  00014	c7 45 fc cc cc
	cc cc		 mov	 DWORD PTR [ebp-4], -858993460 ; ccccccccH
  0001b	89 4d fc	 mov	 DWORD PTR _this$[ebp], ecx

; 654  : 		_Insert(end(), _Val);

  0001e	8b 45 08	 mov	 eax, DWORD PTR __Val$[ebp]
  00021	50		 push	 eax
  00022	83 ec 0c	 sub	 esp, 12			; 0000000cH
  00025	8b cc		 mov	 ecx, esp
  00027	89 65 f8	 mov	 DWORD PTR $T187014[ebp], esp
  0002a	51		 push	 ecx
  0002b	8b 4d fc	 mov	 ecx, DWORD PTR _this$[ebp]
  0002e	e8 00 00 00 00	 call	 ?end@?$list@UKViewObject@KPlayer@@V?$KAllocator@UKViewObject@KPlayer@@@KMemory@@@std@@QAE?AV?$_Iterator@$00@12@XZ ; std::list<KPlayer::KViewObject,KMemory::KAllocator<KPlayer::KViewObject> >::end
  00033	89 45 f4	 mov	 DWORD PTR tv82[ebp], eax
  00036	8b 4d fc	 mov	 ecx, DWORD PTR _this$[ebp]
  00039	e8 00 00 00 00	 call	 ?_Insert@?$list@UKViewObject@KPlayer@@V?$KAllocator@UKViewObject@KPlayer@@@KMemory@@@std@@QAEXV?$_Iterator@$00@12@ABUKViewObject@KPlayer@@@Z ; std::list<KPlayer::KViewObject,KMemory::KAllocator<KPlayer::KViewObject> >::_Insert

; 655  : 		}

  0003e	83 c4 0c	 add	 esp, 12			; 0000000cH
  00041	3b ec		 cmp	 ebp, esp
  00043	e8 00 00 00 00	 call	 __RTC_CheckEsp
  00048	8b e5		 mov	 esp, ebp
  0004a	5d		 pop	 ebp
  0004b	c2 04 00	 ret	 4
?push_back@?$list@UKViewObject@KPlayer@@V?$KAllocator@UKViewObject@KPlayer@@@KMemory@@@std@@QAEXABUKViewObject@KPlayer@@@Z ENDP ; std::list<KPlayer::KViewObject,KMemory::KAllocator<KPlayer::KViewObject> >::push_back
_TEXT	ENDS
PUBLIC	??0iterator@?$_Tree@V?$_Tset_traits@KU?$less@K@std@@V?$KAllocator@K@KMemory@@$0A@@std@@@std@@QAE@XZ ; std::_Tree<std::_Tset_traits<unsigned long,std::less<unsigned long>,KMemory::KAllocator<unsigned long>,0> >::iterator::iterator
; Function compile flags: /Odtp /RTCsu
; File d:\program files\microsoft visual studio 8\vc\include\utility
;	COMDAT ??0?$pair@Viterator@?$_Tree@V?$_Tset_traits@KU?$less@K@std@@V?$KAllocator@K@KMemory@@$0A@@std@@@std@@H@std@@QAE@XZ
_TEXT	SEGMENT
_this$ = -4						; size = 4
??0?$pair@Viterator@?$_Tree@V?$_Tset_traits@KU?$less@K@std@@V?$KAllocator@K@KMemory@@$0A@@std@@@std@@H@std@@QAE@XZ PROC ; std::pair<std::_Tree<std::_Tset_traits<unsigned long,std::less<unsigned long>,KMemory::KAllocator<unsigned long>,0> >::iterator,int>::pair<std::_Tree<std::_Tset_traits<unsigned long,std::less<unsigned long>,KMemory::KAllocator<unsigned long>,0> >::iterator,int>, COMDAT
; _this$ = ecx

; 32   : 		{	// construct from defaults

  00000	55		 push	 ebp
  00001	8b ec		 mov	 ebp, esp
  00003	51		 push	 ecx
  00004	c7 45 fc cc cc
	cc cc		 mov	 DWORD PTR [ebp-4], -858993460 ; ccccccccH
  0000b	89 4d fc	 mov	 DWORD PTR _this$[ebp], ecx
  0000e	8b 4d fc	 mov	 ecx, DWORD PTR _this$[ebp]
  00011	e8 00 00 00 00	 call	 ??0iterator@?$_Tree@V?$_Tset_traits@KU?$less@K@std@@V?$KAllocator@K@KMemory@@$0A@@std@@@std@@QAE@XZ ; std::_Tree<std::_Tset_traits<unsigned long,std::less<unsigned long>,KMemory::KAllocator<unsigned long>,0> >::iterator::iterator
  00016	8b 45 fc	 mov	 eax, DWORD PTR _this$[ebp]
  00019	c7 40 0c 00 00
	00 00		 mov	 DWORD PTR [eax+12], 0

; 33   : 		}

  00020	8b 45 fc	 mov	 eax, DWORD PTR _this$[ebp]
  00023	83 c4 04	 add	 esp, 4
  00026	3b ec		 cmp	 ebp, esp
  00028	e8 00 00 00 00	 call	 __RTC_CheckEsp
  0002d	8b e5		 mov	 esp, ebp
  0002f	5d		 pop	 ebp
  00030	c3		 ret	 0
??0?$pair@Viterator@?$_Tree@V?$_Tset_traits@KU?$less@K@std@@V?$KAllocator@K@KMemory@@$0A@@std@@@std@@H@std@@QAE@XZ ENDP ; std::pair<std::_Tree<std::_Tset_traits<unsigned long,std::less<unsigned long>,KMemory::KAllocator<unsigned long>,0> >::iterator,int>::pair<std::_Tree<std::_Tset_traits<unsigned long,std::less<unsigned long>,KMemory::KAllocator<unsigned long>,0> >::iterator,int>
; Function compile flags: /Odtp /RTCsu
; File d:\program files\microsoft visual studio 8\vc\include\xtree
_TEXT	ENDS
;	COMDAT ?_Isnil@?$_Tree@V?$_Tset_traits@KU?$less@K@std@@V?$KAllocator@K@KMemory@@$0A@@std@@@std@@KAAADPAU_Node@?$_Tree_nod@V?$_Tset_traits@KU?$less@K@std@@V?$KAllocator@K@KMemory@@$0A@@std@@@2@@Z
_TEXT	SEGMENT
__Pnode$ = 8						; size = 4
?_Isnil@?$_Tree@V?$_Tset_traits@KU?$less@K@std@@V?$KAllocator@K@KMemory@@$0A@@std@@@std@@KAAADPAU_Node@?$_Tree_nod@V?$_Tset_traits@KU?$less@K@std@@V?$KAllocator@K@KMemory@@$0A@@std@@@2@@Z PROC ; std::_Tree<std::_Tset_traits<unsigned long,std::less<unsigned long>,KMemory::KAllocator<unsigned long>,0> >::_Isnil, COMDAT

; 145  : 		{	// return reference to nil flag in node

  00000	55		 push	 ebp
  00001	8b ec		 mov	 ebp, esp

; 146  : 		return ((_Charref)(*_Pnode)._Isnil);

  00003	8b 45 08	 mov	 eax, DWORD PTR __Pnode$[ebp]
  00006	83 c0 11	 add	 eax, 17			; 00000011H

; 147  : 		}

  00009	5d		 pop	 ebp
  0000a	c3		 ret	 0
?_Isnil@?$_Tree@V?$_Tset_traits@KU?$less@K@std@@V?$KAllocator@K@KMemory@@$0A@@std@@@std@@KAAADPAU_Node@?$_Tree_nod@V?$_Tset_traits@KU?$less@K@std@@V?$KAllocator@K@KMemory@@$0A@@std@@@2@@Z ENDP ; std::_Tree<std::_Tset_traits<unsigned long,std::less<unsigned long>,KMemory::KAllocator<unsigned long>,0> >::_Isnil
_TEXT	ENDS
PUBLIC	?_Myval@?$_Tree@V?$_Tset_traits@KU?$less@K@std@@V?$KAllocator@K@KMemory@@$0A@@std@@@std@@KAAAKPAU_Node@?$_Tree_nod@V?$_Tset_traits@KU?$less@K@std@@V?$KAllocator@K@KMemory@@$0A@@std@@@2@@Z ; std::_Tree<std::_Tset_traits<unsigned long,std::less<unsigned long>,KMemory::KAllocator<unsigned long>,0> >::_Myval
; Function compile flags: /Odtp /RTCsu
;	COMDAT ?_Key@?$_Tree@V?$_Tset_traits@KU?$less@K@std@@V?$KAllocator@K@KMemory@@$0A@@std@@@std@@KAABKPAU_Node@?$_Tree_nod@V?$_Tset_traits@KU?$less@K@std@@V?$KAllocator@K@KMemory@@$0A@@std@@@2@@Z
_TEXT	SEGMENT
__Pnode$ = 8						; size = 4
?_Key@?$_Tree@V?$_Tset_traits@KU?$less@K@std@@V?$KAllocator@K@KMemory@@$0A@@std@@@std@@KAABKPAU_Node@?$_Tree_nod@V?$_Tset_traits@KU?$less@K@std@@V?$KAllocator@K@KMemory@@$0A@@std@@@2@@Z PROC ; std::_Tree<std::_Tset_traits<unsigned long,std::less<unsigned long>,KMemory::KAllocator<unsigned long>,0> >::_Key, COMDAT

; 150  : 		{	// return reference to key in node

  00000	55		 push	 ebp
  00001	8b ec		 mov	 ebp, esp

; 151  : 		return (_Mybase::_Kfn(_Myval(_Pnode)));

  00003	8b 45 08	 mov	 eax, DWORD PTR __Pnode$[ebp]
  00006	50		 push	 eax
  00007	e8 00 00 00 00	 call	 ?_Myval@?$_Tree@V?$_Tset_traits@KU?$less@K@std@@V?$KAllocator@K@KMemory@@$0A@@std@@@std@@KAAAKPAU_Node@?$_Tree_nod@V?$_Tset_traits@KU?$less@K@std@@V?$KAllocator@K@KMemory@@$0A@@std@@@2@@Z ; std::_Tree<std::_Tset_traits<unsigned long,std::less<unsigned long>,KMemory::KAllocator<unsigned long>,0> >::_Myval
  0000c	83 c4 04	 add	 esp, 4
  0000f	50		 push	 eax
  00010	e8 00 00 00 00	 call	 ?_Kfn@?$_Tset_traits@KU?$less@K@std@@V?$KAllocator@K@KMemory@@$0A@@std@@SAABKABK@Z ; std::_Tset_traits<unsigned long,std::less<unsigned long>,KMemory::KAllocator<unsigned long>,0>::_Kfn
  00015	83 c4 04	 add	 esp, 4

; 152  : 		}

  00018	3b ec		 cmp	 ebp, esp
  0001a	e8 00 00 00 00	 call	 __RTC_CheckEsp
  0001f	5d		 pop	 ebp
  00020	c3		 ret	 0
?_Key@?$_Tree@V?$_Tset_traits@KU?$less@K@std@@V?$KAllocator@K@KMemory@@$0A@@std@@@std@@KAABKPAU_Node@?$_Tree_nod@V?$_Tset_traits@KU?$less@K@std@@V?$KAllocator@K@KMemory@@$0A@@std@@@2@@Z ENDP ; std::_Tree<std::_Tset_traits<unsigned long,std::less<unsigned long>,KMemory::KAllocator<unsigned long>,0> >::_Key
; Function compile flags: /Odtp /RTCsu
_TEXT	ENDS
;	COMDAT ?_Left@?$_Tree@V?$_Tset_traits@KU?$less@K@std@@V?$KAllocator@K@KMemory@@$0A@@std@@@std@@KAAAPAU_Node@?$_Tree_nod@V?$_Tset_traits@KU?$less@K@std@@V?$KAllocator@K@KMemory@@$0A@@std@@@2@PAU342@@Z
_TEXT	SEGMENT
__Pnode$ = 8						; size = 4
?_Left@?$_Tree@V?$_Tset_traits@KU?$less@K@std@@V?$KAllocator@K@KMemory@@$0A@@std@@@std@@KAAAPAU_Node@?$_Tree_nod@V?$_Tset_traits@KU?$less@K@std@@V?$KAllocator@K@KMemory@@$0A@@std@@@2@PAU342@@Z PROC ; std::_Tree<std::_Tset_traits<unsigned long,std::less<unsigned long>,KMemory::KAllocator<unsigned long>,0> >::_Left, COMDAT

; 155  : 		{	// return reference to left pointer in node

  00000	55		 push	 ebp
  00001	8b ec		 mov	 ebp, esp

; 156  : 		return ((_Nodepref)(*_Pnode)._Left);

  00003	8b 45 08	 mov	 eax, DWORD PTR __Pnode$[ebp]

; 157  : 		}

  00006	5d		 pop	 ebp
  00007	c3		 ret	 0
?_Left@?$_Tree@V?$_Tset_traits@KU?$less@K@std@@V?$KAllocator@K@KMemory@@$0A@@std@@@std@@KAAAPAU_Node@?$_Tree_nod@V?$_Tset_traits@KU?$less@K@std@@V?$KAllocator@K@KMemory@@$0A@@std@@@2@PAU342@@Z ENDP ; std::_Tree<std::_Tset_traits<unsigned long,std::less<unsigned long>,KMemory::KAllocator<unsigned long>,0> >::_Left
; Function compile flags: /Odtp /RTCsu
_TEXT	ENDS
;	COMDAT ?_Right@?$_Tree@V?$_Tset_traits@KU?$less@K@std@@V?$KAllocator@K@KMemory@@$0A@@std@@@std@@KAAAPAU_Node@?$_Tree_nod@V?$_Tset_traits@KU?$less@K@std@@V?$KAllocator@K@KMemory@@$0A@@std@@@2@PAU342@@Z
_TEXT	SEGMENT
__Pnode$ = 8						; size = 4
?_Right@?$_Tree@V?$_Tset_traits@KU?$less@K@std@@V?$KAllocator@K@KMemory@@$0A@@std@@@std@@KAAAPAU_Node@?$_Tree_nod@V?$_Tset_traits@KU?$less@K@std@@V?$KAllocator@K@KMemory@@$0A@@std@@@2@PAU342@@Z PROC ; std::_Tree<std::_Tset_traits<unsigned long,std::less<unsigned long>,KMemory::KAllocator<unsigned long>,0> >::_Right, COMDAT

; 165  : 		{	// return reference to right pointer in node

  00000	55		 push	 ebp
  00001	8b ec		 mov	 ebp, esp

; 166  : 		return ((_Nodepref)(*_Pnode)._Right);

  00003	8b 45 08	 mov	 eax, DWORD PTR __Pnode$[ebp]
  00006	83 c0 08	 add	 eax, 8

; 167  : 		}

  00009	5d		 pop	 ebp
  0000a	c3		 ret	 0
?_Right@?$_Tree@V?$_Tset_traits@KU?$less@K@std@@V?$KAllocator@K@KMemory@@$0A@@std@@@std@@KAAAPAU_Node@?$_Tree_nod@V?$_Tset_traits@KU?$less@K@std@@V?$KAllocator@K@KMemory@@$0A@@std@@@2@PAU342@@Z ENDP ; std::_Tree<std::_Tset_traits<unsigned long,std::less<unsigned long>,KMemory::KAllocator<unsigned long>,0> >::_Right
_TEXT	ENDS
PUBLIC	?_Lmost@?$_Tree@V?$_Tset_traits@KU?$less@K@std@@V?$KAllocator@K@KMemory@@$0A@@std@@@std@@IBEAAPAU_Node@?$_Tree_nod@V?$_Tset_traits@KU?$less@K@std@@V?$KAllocator@K@KMemory@@$0A@@std@@@2@XZ ; std::_Tree<std::_Tset_traits<unsigned long,std::less<unsigned long>,KMemory::KAllocator<unsigned long>,0> >::_Lmost
; Function compile flags: /Odtp /RTCsu
;	COMDAT ?begin@?$_Tree@V?$_Tset_traits@KU?$less@K@std@@V?$KAllocator@K@KMemory@@$0A@@std@@@std@@QAE?AViterator@12@XZ
_TEXT	SEGMENT
$T187030 = -8						; size = 4
_this$ = -4						; size = 4
___$ReturnUdt$ = 8					; size = 4
?begin@?$_Tree@V?$_Tset_traits@KU?$less@K@std@@V?$KAllocator@K@KMemory@@$0A@@std@@@std@@QAE?AViterator@12@XZ PROC ; std::_Tree<std::_Tset_traits<unsigned long,std::less<unsigned long>,KMemory::KAllocator<unsigned long>,0> >::begin, COMDAT
; _this$ = ecx

; 541  : 		{	// return iterator for beginning of mutable sequence

  00000	55		 push	 ebp
  00001	8b ec		 mov	 ebp, esp
  00003	83 ec 08	 sub	 esp, 8
  00006	c7 45 f8 cc cc
	cc cc		 mov	 DWORD PTR [ebp-8], -858993460 ; ccccccccH
  0000d	c7 45 fc cc cc
	cc cc		 mov	 DWORD PTR [ebp-4], -858993460 ; ccccccccH
  00014	89 4d fc	 mov	 DWORD PTR _this$[ebp], ecx
  00017	c7 45 f8 00 00
	00 00		 mov	 DWORD PTR $T187030[ebp], 0

; 542  : 		return (_TREE_ITERATOR(_Lmost()));

  0001e	8b 45 fc	 mov	 eax, DWORD PTR _this$[ebp]
  00021	50		 push	 eax
  00022	8b 4d fc	 mov	 ecx, DWORD PTR _this$[ebp]
  00025	e8 00 00 00 00	 call	 ?_Lmost@?$_Tree@V?$_Tset_traits@KU?$less@K@std@@V?$KAllocator@K@KMemory@@$0A@@std@@@std@@IBEAAPAU_Node@?$_Tree_nod@V?$_Tset_traits@KU?$less@K@std@@V?$KAllocator@K@KMemory@@$0A@@std@@@2@XZ ; std::_Tree<std::_Tset_traits<unsigned long,std::less<unsigned long>,KMemory::KAllocator<unsigned long>,0> >::_Lmost
  0002a	8b 08		 mov	 ecx, DWORD PTR [eax]
  0002c	51		 push	 ecx
  0002d	8b 4d 08	 mov	 ecx, DWORD PTR ___$ReturnUdt$[ebp]
  00030	e8 00 00 00 00	 call	 ??0iterator@?$_Tree@V?$_Tset_traits@KU?$less@K@std@@V?$KAllocator@K@KMemory@@$0A@@std@@@std@@QAE@PAU_Node@?$_Tree_nod@V?$_Tset_traits@KU?$less@K@std@@V?$KAllocator@K@KMemory@@$0A@@std@@@2@PBV12@@Z ; std::_Tree<std::_Tset_traits<unsigned long,std::less<unsigned long>,KMemory::KAllocator<unsigned long>,0> >::iterator::iterator
  00035	8b 55 f8	 mov	 edx, DWORD PTR $T187030[ebp]
  00038	83 ca 01	 or	 edx, 1
  0003b	89 55 f8	 mov	 DWORD PTR $T187030[ebp], edx
  0003e	8b 45 08	 mov	 eax, DWORD PTR ___$ReturnUdt$[ebp]

; 543  : 		}

  00041	83 c4 08	 add	 esp, 8
  00044	3b ec		 cmp	 ebp, esp
  00046	e8 00 00 00 00	 call	 __RTC_CheckEsp
  0004b	8b e5		 mov	 esp, ebp
  0004d	5d		 pop	 ebp
  0004e	c2 04 00	 ret	 4
?begin@?$_Tree@V?$_Tset_traits@KU?$less@K@std@@V?$KAllocator@K@KMemory@@$0A@@std@@@std@@QAE?AViterator@12@XZ ENDP ; std::_Tree<std::_Tset_traits<unsigned long,std::less<unsigned long>,KMemory::KAllocator<unsigned long>,0> >::begin
_TEXT	ENDS
PUBLIC	?_Rrotate@?$_Tree@V?$_Tset_traits@KU?$less@K@std@@V?$KAllocator@K@KMemory@@$0A@@std@@@std@@IAEXPAU_Node@?$_Tree_nod@V?$_Tset_traits@KU?$less@K@std@@V?$KAllocator@K@KMemory@@$0A@@std@@@2@@Z ; std::_Tree<std::_Tset_traits<unsigned long,std::less<unsigned long>,KMemory::KAllocator<unsigned long>,0> >::_Rrotate
PUBLIC	?_Lrotate@?$_Tree@V?$_Tset_traits@KU?$less@K@std@@V?$KAllocator@K@KMemory@@$0A@@std@@@std@@IAEXPAU_Node@?$_Tree_nod@V?$_Tset_traits@KU?$less@K@std@@V?$KAllocator@K@KMemory@@$0A@@std@@@2@@Z ; std::_Tree<std::_Tset_traits<unsigned long,std::less<unsigned long>,KMemory::KAllocator<unsigned long>,0> >::_Lrotate
PUBLIC	?_Color@?$_Tree@V?$_Tset_traits@KU?$less@K@std@@V?$KAllocator@K@KMemory@@$0A@@std@@@std@@KAAADPAU_Node@?$_Tree_nod@V?$_Tset_traits@KU?$less@K@std@@V?$KAllocator@K@KMemory@@$0A@@std@@@2@@Z ; std::_Tree<std::_Tset_traits<unsigned long,std::less<unsigned long>,KMemory::KAllocator<unsigned long>,0> >::_Color
PUBLIC	?_Parent@?$_Tree@V?$_Tset_traits@KU?$less@K@std@@V?$KAllocator@K@KMemory@@$0A@@std@@@std@@KAAAPAU_Node@?$_Tree_nod@V?$_Tset_traits@KU?$less@K@std@@V?$KAllocator@K@KMemory@@$0A@@std@@@2@PAU342@@Z ; std::_Tree<std::_Tset_traits<unsigned long,std::less<unsigned long>,KMemory::KAllocator<unsigned long>,0> >::_Parent
PUBLIC	?_Rmost@?$_Tree@V?$_Tset_traits@KU?$less@K@std@@V?$KAllocator@K@KMemory@@$0A@@std@@@std@@IBEAAPAU_Node@?$_Tree_nod@V?$_Tset_traits@KU?$less@K@std@@V?$KAllocator@K@KMemory@@$0A@@std@@@2@XZ ; std::_Tree<std::_Tset_traits<unsigned long,std::less<unsigned long>,KMemory::KAllocator<unsigned long>,0> >::_Rmost
PUBLIC	?_Buynode@?$_Tree@V?$_Tset_traits@KU?$less@K@std@@V?$KAllocator@K@KMemory@@$0A@@std@@@std@@IAEPAU_Node@?$_Tree_nod@V?$_Tset_traits@KU?$less@K@std@@V?$KAllocator@K@KMemory@@$0A@@std@@@2@PAU342@00ABKD@Z ; std::_Tree<std::_Tset_traits<unsigned long,std::less<unsigned long>,KMemory::KAllocator<unsigned long>,0> >::_Buynode
PUBLIC	__TI3?AVlength_error@std@@
PUBLIC	??0length_error@std@@QAE@ABV?$basic_string@DU?$char_traits@D@std@@V?$allocator@D@2@@1@@Z ; std::length_error::length_error
PUBLIC	??_C@_0BE@JONHPENG@map?1set?$DMT?$DO?5too?5long?$AA@ ; `string'
PUBLIC	?max_size@?$_Tree@V?$_Tset_traits@KU?$less@K@std@@V?$KAllocator@K@KMemory@@$0A@@std@@@std@@QBEIXZ ; std::_Tree<std::_Tset_traits<unsigned long,std::less<unsigned long>,KMemory::KAllocator<unsigned long>,0> >::max_size
PUBLIC	??1length_error@std@@UAE@XZ			; std::length_error::~length_error
PUBLIC	__CTA3?AVlength_error@std@@
PUBLIC	__CT??_R0?AVlength_error@std@@@8??0length_error@std@@QAE@ABV01@@Z44
PUBLIC	??_R0?AVlength_error@std@@@8			; std::length_error `RTTI Type Descriptor'
PUBLIC	??0length_error@std@@QAE@ABV01@@Z		; std::length_error::length_error
PUBLIC	__CT??_R0?AVlogic_error@std@@@8??0logic_error@std@@QAE@ABV01@@Z44
PUBLIC	??_R0?AVlogic_error@std@@@8			; std::logic_error `RTTI Type Descriptor'
PUBLIC	??0logic_error@std@@QAE@ABV01@@Z		; std::logic_error::logic_error
PUBLIC	__CT??_R0?AVexception@std@@@8??0exception@std@@QAE@ABV01@@Z12
PUBLIC	??_R0?AVexception@std@@@8			; std::exception `RTTI Type Descriptor'
EXTRN	__imp_??1?$basic_string@DU?$char_traits@D@std@@V?$allocator@D@2@@std@@QAE@XZ:PROC
EXTRN	__imp_??0?$basic_string@DU?$char_traits@D@std@@V?$allocator@D@2@@std@@QAE@PBD@Z:PROC
EXTRN	__CxxThrowException@8:PROC
EXTRN	??0exception@std@@QAE@ABV01@@Z:PROC		; std::exception::exception
;	COMDAT ??_R0?AVexception@std@@@8
_DATA	SEGMENT
??_R0?AVexception@std@@@8 DD FLAT:??_7type_info@@6B@	; std::exception `RTTI Type Descriptor'
	DD	00H
	DB	'.?AVexception@std@@', 00H
_DATA	ENDS
;	COMDAT __CT??_R0?AVexception@std@@@8??0exception@std@@QAE@ABV01@@Z12
xdata$x	SEGMENT
__CT??_R0?AVexception@std@@@8??0exception@std@@QAE@ABV01@@Z12 DD 00H
	DD	FLAT:??_R0?AVexception@std@@@8
	DD	00H
	DD	0ffffffffH
	ORG $+4
	DD	0cH
	DD	FLAT:??0exception@std@@QAE@ABV01@@Z
xdata$x	ENDS
;	COMDAT ??_R0?AVlogic_error@std@@@8
_DATA	SEGMENT
??_R0?AVlogic_error@std@@@8 DD FLAT:??_7type_info@@6B@	; std::logic_error `RTTI Type Descriptor'
	DD	00H
	DB	'.?AVlogic_error@std@@', 00H
_DATA	ENDS
;	COMDAT __CT??_R0?AVlogic_error@std@@@8??0logic_error@std@@QAE@ABV01@@Z44
xdata$x	SEGMENT
__CT??_R0?AVlogic_error@std@@@8??0logic_error@std@@QAE@ABV01@@Z44 DD 00H
	DD	FLAT:??_R0?AVlogic_error@std@@@8
	DD	00H
	DD	0ffffffffH
	ORG $+4
	DD	02cH
	DD	FLAT:??0logic_error@std@@QAE@ABV01@@Z
xdata$x	ENDS
;	COMDAT ??_R0?AVlength_error@std@@@8
_DATA	SEGMENT
??_R0?AVlength_error@std@@@8 DD FLAT:??_7type_info@@6B@	; std::length_error `RTTI Type Descriptor'
	DD	00H
	DB	'.?AVlength_error@std@@', 00H
_DATA	ENDS
;	COMDAT __CT??_R0?AVlength_error@std@@@8??0length_error@std@@QAE@ABV01@@Z44
xdata$x	SEGMENT
__CT??_R0?AVlength_error@std@@@8??0length_error@std@@QAE@ABV01@@Z44 DD 00H
	DD	FLAT:??_R0?AVlength_error@std@@@8
	DD	00H
	DD	0ffffffffH
	ORG $+4
	DD	02cH
	DD	FLAT:??0length_error@std@@QAE@ABV01@@Z
xdata$x	ENDS
;	COMDAT __CTA3?AVlength_error@std@@
xdata$x	SEGMENT
__CTA3?AVlength_error@std@@ DD 03H
	DD	FLAT:__CT??_R0?AVlength_error@std@@@8??0length_error@std@@QAE@ABV01@@Z44
	DD	FLAT:__CT??_R0?AVlogic_error@std@@@8??0logic_error@std@@QAE@ABV01@@Z44
	DD	FLAT:__CT??_R0?AVexception@std@@@8??0exception@std@@QAE@ABV01@@Z12
xdata$x	ENDS
;	COMDAT __TI3?AVlength_error@std@@
xdata$x	SEGMENT
__TI3?AVlength_error@std@@ DD 00H
	DD	FLAT:??1length_error@std@@UAE@XZ
	DD	00H
	DD	FLAT:__CTA3?AVlength_error@std@@
xdata$x	ENDS
;	COMDAT ??_C@_0BE@JONHPENG@map?1set?$DMT?$DO?5too?5long?$AA@
CONST	SEGMENT
??_C@_0BE@JONHPENG@map?1set?$DMT?$DO?5too?5long?$AA@ DB 'map/set<T> too l'
	DB	'ong', 00H					; `string'
CONST	ENDS
;	COMDAT xdata$x
xdata$x	SEGMENT
__unwindtable$?_Insert@?$_Tree@V?$_Tset_traits@KU?$less@K@std@@V?$KAllocator@K@KMemory@@$0A@@std@@@std@@IAE?AViterator@12@_NPAU_Node@?$_Tree_nod@V?$_Tset_traits@KU?$less@K@std@@V?$KAllocator@K@KMemory@@$0A@@std@@@2@ABK@Z DD 0ffffffffH
	DD	FLAT:__unwindfunclet$?_Insert@?$_Tree@V?$_Tset_traits@KU?$less@K@std@@V?$KAllocator@K@KMemory@@$0A@@std@@@std@@IAE?AViterator@12@_NPAU_Node@?$_Tree_nod@V?$_Tset_traits@KU?$less@K@std@@V?$KAllocator@K@KMemory@@$0A@@std@@@2@ABK@Z$0
__ehfuncinfo$?_Insert@?$_Tree@V?$_Tset_traits@KU?$less@K@std@@V?$KAllocator@K@KMemory@@$0A@@std@@@std@@IAE?AViterator@12@_NPAU_Node@?$_Tree_nod@V?$_Tset_traits@KU?$less@K@std@@V?$KAllocator@K@KMemory@@$0A@@std@@@2@ABK@Z DD 019930522H
	DD	01H
	DD	FLAT:__unwindtable$?_Insert@?$_Tree@V?$_Tset_traits@KU?$less@K@std@@V?$KAllocator@K@KMemory@@$0A@@std@@@std@@IAE?AViterator@12@_NPAU_Node@?$_Tree_nod@V?$_Tset_traits@KU?$less@K@std@@V?$KAllocator@K@KMemory@@$0A@@std@@@2@ABK@Z
	DD	2 DUP(00H)
	DD	2 DUP(00H)
	DD	00H
	DD	01H
; Function compile flags: /Odtp /RTCsu
xdata$x	ENDS
;	COMDAT ?_Insert@?$_Tree@V?$_Tset_traits@KU?$less@K@std@@V?$KAllocator@K@KMemory@@$0A@@std@@@std@@IAE?AViterator@12@_NPAU_Node@?$_Tree_nod@V?$_Tset_traits@KU?$less@K@std@@V?$KAllocator@K@KMemory@@$0A@@std@@@2@ABK@Z
_TEXT	SEGMENT
$T187039 = -104						; size = 4
$T187035 = -100						; size = 32
$T187034 = -68						; size = 44
__Pnode$180565 = -24					; size = 4
__Newnode$ = -20					; size = 4
_this$ = -16						; size = 4
__$EHRec$ = -12						; size = 12
___$ReturnUdt$ = 8					; size = 4
__Addleft$ = 12						; size = 1
__Wherenode$ = 16					; size = 4
__Val$ = 20						; size = 4
?_Insert@?$_Tree@V?$_Tset_traits@KU?$less@K@std@@V?$KAllocator@K@KMemory@@$0A@@std@@@std@@IAE?AViterator@12@_NPAU_Node@?$_Tree_nod@V?$_Tset_traits@KU?$less@K@std@@V?$KAllocator@K@KMemory@@$0A@@std@@@2@ABK@Z PROC ; std::_Tree<std::_Tset_traits<unsigned long,std::less<unsigned long>,KMemory::KAllocator<unsigned long>,0> >::_Insert, COMDAT
; _this$ = ecx

; 1093 : 		{	// add node with value next to _Wherenode, to left if _Addnode

  00000	55		 push	 ebp
  00001	8b ec		 mov	 ebp, esp
  00003	6a ff		 push	 -1
  00005	68 00 00 00 00	 push	 __ehhandler$?_Insert@?$_Tree@V?$_Tset_traits@KU?$less@K@std@@V?$KAllocator@K@KMemory@@$0A@@std@@@std@@IAE?AViterator@12@_NPAU_Node@?$_Tree_nod@V?$_Tset_traits@KU?$less@K@std@@V?$KAllocator@K@KMemory@@$0A@@std@@@2@ABK@Z
  0000a	64 a1 00 00 00
	00		 mov	 eax, DWORD PTR fs:0
  00010	50		 push	 eax
  00011	83 ec 5c	 sub	 esp, 92			; 0000005cH
  00014	56		 push	 esi
  00015	57		 push	 edi
  00016	51		 push	 ecx
  00017	8d 7d 98	 lea	 edi, DWORD PTR [ebp-104]
  0001a	b9 17 00 00 00	 mov	 ecx, 23			; 00000017H
  0001f	b8 cc cc cc cc	 mov	 eax, -858993460		; ccccccccH
  00024	f3 ab		 rep stosd
  00026	59		 pop	 ecx
  00027	a1 00 00 00 00	 mov	 eax, DWORD PTR ___security_cookie
  0002c	33 c5		 xor	 eax, ebp
  0002e	50		 push	 eax
  0002f	8d 45 f4	 lea	 eax, DWORD PTR __$EHRec$[ebp]
  00032	64 a3 00 00 00
	00		 mov	 DWORD PTR fs:0, eax
  00038	89 4d f0	 mov	 DWORD PTR _this$[ebp], ecx
  0003b	c7 45 98 00 00
	00 00		 mov	 DWORD PTR $T187039[ebp], 0

; 1094 : 		if (max_size() - 1 <= _Mysize)

  00042	8b 4d f0	 mov	 ecx, DWORD PTR _this$[ebp]
  00045	e8 00 00 00 00	 call	 ?max_size@?$_Tree@V?$_Tset_traits@KU?$less@K@std@@V?$KAllocator@K@KMemory@@$0A@@std@@@std@@QBEIXZ ; std::_Tree<std::_Tset_traits<unsigned long,std::less<unsigned long>,KMemory::KAllocator<unsigned long>,0> >::max_size
  0004a	83 e8 01	 sub	 eax, 1
  0004d	8b 4d f0	 mov	 ecx, DWORD PTR _this$[ebp]
  00050	3b 41 18	 cmp	 eax, DWORD PTR [ecx+24]
  00053	77 51		 ja	 SHORT $LN17@Insert

; 1095 : 			_THROW(length_error, "map/set<T> too long");

  00055	8b f4		 mov	 esi, esp
  00057	68 00 00 00 00	 push	 OFFSET ??_C@_0BE@JONHPENG@map?1set?$DMT?$DO?5too?5long?$AA@
  0005c	8d 4d 9c	 lea	 ecx, DWORD PTR $T187035[ebp]
  0005f	ff 15 00 00 00
	00		 call	 DWORD PTR __imp_??0?$basic_string@DU?$char_traits@D@std@@V?$allocator@D@2@@std@@QAE@PBD@Z
  00065	3b f4		 cmp	 esi, esp
  00067	e8 00 00 00 00	 call	 __RTC_CheckEsp
  0006c	c7 45 fc 00 00
	00 00		 mov	 DWORD PTR __$EHRec$[ebp+8], 0
  00073	8d 55 9c	 lea	 edx, DWORD PTR $T187035[ebp]
  00076	52		 push	 edx
  00077	8d 4d bc	 lea	 ecx, DWORD PTR $T187034[ebp]
  0007a	e8 00 00 00 00	 call	 ??0length_error@std@@QAE@ABV?$basic_string@DU?$char_traits@D@std@@V?$allocator@D@2@@1@@Z ; std::length_error::length_error
  0007f	68 00 00 00 00	 push	 OFFSET __TI3?AVlength_error@std@@
  00084	8d 45 bc	 lea	 eax, DWORD PTR $T187034[ebp]
  00087	50		 push	 eax
  00088	e8 00 00 00 00	 call	 __CxxThrowException@8
  0008d	c7 45 fc ff ff
	ff ff		 mov	 DWORD PTR __$EHRec$[ebp+8], -1
  00094	8b f4		 mov	 esi, esp
  00096	8d 4d 9c	 lea	 ecx, DWORD PTR $T187035[ebp]
  00099	ff 15 00 00 00
	00		 call	 DWORD PTR __imp_??1?$basic_string@DU?$char_traits@D@std@@V?$allocator@D@2@@std@@QAE@XZ
  0009f	3b f4		 cmp	 esi, esp
  000a1	e8 00 00 00 00	 call	 __RTC_CheckEsp
$LN17@Insert:

; 1096 : 		_Nodeptr _Newnode = _Buynode(_Myhead, _Wherenode, _Myhead,
; 1097 : 			_Val, _Red);

  000a6	6a 00		 push	 0
  000a8	8b 4d 14	 mov	 ecx, DWORD PTR __Val$[ebp]
  000ab	51		 push	 ecx
  000ac	8b 55 f0	 mov	 edx, DWORD PTR _this$[ebp]
  000af	8b 42 14	 mov	 eax, DWORD PTR [edx+20]
  000b2	50		 push	 eax
  000b3	8b 4d 10	 mov	 ecx, DWORD PTR __Wherenode$[ebp]
  000b6	51		 push	 ecx
  000b7	8b 55 f0	 mov	 edx, DWORD PTR _this$[ebp]
  000ba	8b 42 14	 mov	 eax, DWORD PTR [edx+20]
  000bd	50		 push	 eax
  000be	8b 4d f0	 mov	 ecx, DWORD PTR _this$[ebp]
  000c1	e8 00 00 00 00	 call	 ?_Buynode@?$_Tree@V?$_Tset_traits@KU?$less@K@std@@V?$KAllocator@K@KMemory@@$0A@@std@@@std@@IAEPAU_Node@?$_Tree_nod@V?$_Tset_traits@KU?$less@K@std@@V?$KAllocator@K@KMemory@@$0A@@std@@@2@PAU342@00ABKD@Z ; std::_Tree<std::_Tset_traits<unsigned long,std::less<unsigned long>,KMemory::KAllocator<unsigned long>,0> >::_Buynode
  000c6	89 45 ec	 mov	 DWORD PTR __Newnode$[ebp], eax

; 1098 : 
; 1099 : 		++_Mysize;

  000c9	8b 4d f0	 mov	 ecx, DWORD PTR _this$[ebp]
  000cc	8b 51 18	 mov	 edx, DWORD PTR [ecx+24]
  000cf	83 c2 01	 add	 edx, 1
  000d2	8b 45 f0	 mov	 eax, DWORD PTR _this$[ebp]
  000d5	89 50 18	 mov	 DWORD PTR [eax+24], edx

; 1100 : 		if (_Wherenode == _Myhead)

  000d8	8b 4d f0	 mov	 ecx, DWORD PTR _this$[ebp]
  000db	8b 55 10	 mov	 edx, DWORD PTR __Wherenode$[ebp]
  000de	3b 51 14	 cmp	 edx, DWORD PTR [ecx+20]
  000e1	75 29		 jne	 SHORT $LN16@Insert

; 1101 : 			{	// first node in tree, just set head values
; 1102 : 			_Root() = _Newnode;

  000e3	8b 4d f0	 mov	 ecx, DWORD PTR _this$[ebp]
  000e6	e8 00 00 00 00	 call	 ?_Root@?$_Tree@V?$_Tset_traits@KU?$less@K@std@@V?$KAllocator@K@KMemory@@$0A@@std@@@std@@IBEAAPAU_Node@?$_Tree_nod@V?$_Tset_traits@KU?$less@K@std@@V?$KAllocator@K@KMemory@@$0A@@std@@@2@XZ ; std::_Tree<std::_Tset_traits<unsigned long,std::less<unsigned long>,KMemory::KAllocator<unsigned long>,0> >::_Root
  000eb	8b 4d ec	 mov	 ecx, DWORD PTR __Newnode$[ebp]
  000ee	89 08		 mov	 DWORD PTR [eax], ecx

; 1103 : 			_Lmost() = _Newnode, _Rmost() = _Newnode;

  000f0	8b 4d f0	 mov	 ecx, DWORD PTR _this$[ebp]
  000f3	e8 00 00 00 00	 call	 ?_Lmost@?$_Tree@V?$_Tset_traits@KU?$less@K@std@@V?$KAllocator@K@KMemory@@$0A@@std@@@std@@IBEAAPAU_Node@?$_Tree_nod@V?$_Tset_traits@KU?$less@K@std@@V?$KAllocator@K@KMemory@@$0A@@std@@@2@XZ ; std::_Tree<std::_Tset_traits<unsigned long,std::less<unsigned long>,KMemory::KAllocator<unsigned long>,0> >::_Lmost
  000f8	8b 55 ec	 mov	 edx, DWORD PTR __Newnode$[ebp]
  000fb	89 10		 mov	 DWORD PTR [eax], edx
  000fd	8b 4d f0	 mov	 ecx, DWORD PTR _this$[ebp]
  00100	e8 00 00 00 00	 call	 ?_Rmost@?$_Tree@V?$_Tset_traits@KU?$less@K@std@@V?$KAllocator@K@KMemory@@$0A@@std@@@std@@IBEAAPAU_Node@?$_Tree_nod@V?$_Tset_traits@KU?$less@K@std@@V?$KAllocator@K@KMemory@@$0A@@std@@@2@XZ ; std::_Tree<std::_Tset_traits<unsigned long,std::less<unsigned long>,KMemory::KAllocator<unsigned long>,0> >::_Rmost
  00105	8b 4d ec	 mov	 ecx, DWORD PTR __Newnode$[ebp]
  00108	89 08		 mov	 DWORD PTR [eax], ecx
  0010a	eb 64		 jmp	 SHORT $LN15@Insert
$LN16@Insert:

; 1104 : 			}
; 1105 : 		else if (_Addleft)

  0010c	0f b6 55 0c	 movzx	 edx, BYTE PTR __Addleft$[ebp]
  00110	85 d2		 test	 edx, edx
  00112	74 2f		 je	 SHORT $LN14@Insert

; 1106 : 			{	// add to left of _Wherenode
; 1107 : 			_Left(_Wherenode) = _Newnode;

  00114	8b 45 10	 mov	 eax, DWORD PTR __Wherenode$[ebp]
  00117	50		 push	 eax
  00118	e8 00 00 00 00	 call	 ?_Left@?$_Tree@V?$_Tset_traits@KU?$less@K@std@@V?$KAllocator@K@KMemory@@$0A@@std@@@std@@KAAAPAU_Node@?$_Tree_nod@V?$_Tset_traits@KU?$less@K@std@@V?$KAllocator@K@KMemory@@$0A@@std@@@2@PAU342@@Z ; std::_Tree<std::_Tset_traits<unsigned long,std::less<unsigned long>,KMemory::KAllocator<unsigned long>,0> >::_Left
  0011d	83 c4 04	 add	 esp, 4
  00120	8b 4d ec	 mov	 ecx, DWORD PTR __Newnode$[ebp]
  00123	89 08		 mov	 DWORD PTR [eax], ecx

; 1108 : 			if (_Wherenode == _Lmost())

  00125	8b 4d f0	 mov	 ecx, DWORD PTR _this$[ebp]
  00128	e8 00 00 00 00	 call	 ?_Lmost@?$_Tree@V?$_Tset_traits@KU?$less@K@std@@V?$KAllocator@K@KMemory@@$0A@@std@@@std@@IBEAAPAU_Node@?$_Tree_nod@V?$_Tset_traits@KU?$less@K@std@@V?$KAllocator@K@KMemory@@$0A@@std@@@2@XZ ; std::_Tree<std::_Tset_traits<unsigned long,std::less<unsigned long>,KMemory::KAllocator<unsigned long>,0> >::_Lmost
  0012d	8b 55 10	 mov	 edx, DWORD PTR __Wherenode$[ebp]
  00130	3b 10		 cmp	 edx, DWORD PTR [eax]
  00132	75 0d		 jne	 SHORT $LN13@Insert

; 1109 : 				_Lmost() = _Newnode;

  00134	8b 4d f0	 mov	 ecx, DWORD PTR _this$[ebp]
  00137	e8 00 00 00 00	 call	 ?_Lmost@?$_Tree@V?$_Tset_traits@KU?$less@K@std@@V?$KAllocator@K@KMemory@@$0A@@std@@@std@@IBEAAPAU_Node@?$_Tree_nod@V?$_Tset_traits@KU?$less@K@std@@V?$KAllocator@K@KMemory@@$0A@@std@@@2@XZ ; std::_Tree<std::_Tset_traits<unsigned long,std::less<unsigned long>,KMemory::KAllocator<unsigned long>,0> >::_Lmost
  0013c	8b 4d ec	 mov	 ecx, DWORD PTR __Newnode$[ebp]
  0013f	89 08		 mov	 DWORD PTR [eax], ecx
$LN13@Insert:

; 1110 : 			}
; 1111 : 		else

  00141	eb 2d		 jmp	 SHORT $LN15@Insert
$LN14@Insert:

; 1112 : 			{	// add to right of _Wherenode
; 1113 : 			_Right(_Wherenode) = _Newnode;

  00143	8b 55 10	 mov	 edx, DWORD PTR __Wherenode$[ebp]
  00146	52		 push	 edx
  00147	e8 00 00 00 00	 call	 ?_Right@?$_Tree@V?$_Tset_traits@KU?$less@K@std@@V?$KAllocator@K@KMemory@@$0A@@std@@@std@@KAAAPAU_Node@?$_Tree_nod@V?$_Tset_traits@KU?$less@K@std@@V?$KAllocator@K@KMemory@@$0A@@std@@@2@PAU342@@Z ; std::_Tree<std::_Tset_traits<unsigned long,std::less<unsigned long>,KMemory::KAllocator<unsigned long>,0> >::_Right
  0014c	83 c4 04	 add	 esp, 4
  0014f	8b 4d ec	 mov	 ecx, DWORD PTR __Newnode$[ebp]
  00152	89 08		 mov	 DWORD PTR [eax], ecx

; 1114 : 			if (_Wherenode == _Rmost())

  00154	8b 4d f0	 mov	 ecx, DWORD PTR _this$[ebp]
  00157	e8 00 00 00 00	 call	 ?_Rmost@?$_Tree@V?$_Tset_traits@KU?$less@K@std@@V?$KAllocator@K@KMemory@@$0A@@std@@@std@@IBEAAPAU_Node@?$_Tree_nod@V?$_Tset_traits@KU?$less@K@std@@V?$KAllocator@K@KMemory@@$0A@@std@@@2@XZ ; std::_Tree<std::_Tset_traits<unsigned long,std::less<unsigned long>,KMemory::KAllocator<unsigned long>,0> >::_Rmost
  0015c	8b 55 10	 mov	 edx, DWORD PTR __Wherenode$[ebp]
  0015f	3b 10		 cmp	 edx, DWORD PTR [eax]
  00161	75 0d		 jne	 SHORT $LN15@Insert

; 1115 : 				_Rmost() = _Newnode;

  00163	8b 4d f0	 mov	 ecx, DWORD PTR _this$[ebp]
  00166	e8 00 00 00 00	 call	 ?_Rmost@?$_Tree@V?$_Tset_traits@KU?$less@K@std@@V?$KAllocator@K@KMemory@@$0A@@std@@@std@@IBEAAPAU_Node@?$_Tree_nod@V?$_Tset_traits@KU?$less@K@std@@V?$KAllocator@K@KMemory@@$0A@@std@@@2@XZ ; std::_Tree<std::_Tset_traits<unsigned long,std::less<unsigned long>,KMemory::KAllocator<unsigned long>,0> >::_Rmost
  0016b	8b 4d ec	 mov	 ecx, DWORD PTR __Newnode$[ebp]
  0016e	89 08		 mov	 DWORD PTR [eax], ecx
$LN15@Insert:

; 1116 : 			}
; 1117 : 
; 1118 : 		for (_Nodeptr _Pnode = _Newnode; _Color(_Parent(_Pnode)) == _Red; )

  00170	8b 55 ec	 mov	 edx, DWORD PTR __Newnode$[ebp]
  00173	89 55 e8	 mov	 DWORD PTR __Pnode$180565[ebp], edx
$LN10@Insert:
  00176	8b 45 e8	 mov	 eax, DWORD PTR __Pnode$180565[ebp]
  00179	50		 push	 eax
  0017a	e8 00 00 00 00	 call	 ?_Parent@?$_Tree@V?$_Tset_traits@KU?$less@K@std@@V?$KAllocator@K@KMemory@@$0A@@std@@@std@@KAAAPAU_Node@?$_Tree_nod@V?$_Tset_traits@KU?$less@K@std@@V?$KAllocator@K@KMemory@@$0A@@std@@@2@PAU342@@Z ; std::_Tree<std::_Tset_traits<unsigned long,std::less<unsigned long>,KMemory::KAllocator<unsigned long>,0> >::_Parent
  0017f	83 c4 04	 add	 esp, 4
  00182	8b 08		 mov	 ecx, DWORD PTR [eax]
  00184	51		 push	 ecx
  00185	e8 00 00 00 00	 call	 ?_Color@?$_Tree@V?$_Tset_traits@KU?$less@K@std@@V?$KAllocator@K@KMemory@@$0A@@std@@@std@@KAAADPAU_Node@?$_Tree_nod@V?$_Tset_traits@KU?$less@K@std@@V?$KAllocator@K@KMemory@@$0A@@std@@@2@@Z ; std::_Tree<std::_Tset_traits<unsigned long,std::less<unsigned long>,KMemory::KAllocator<unsigned long>,0> >::_Color
  0018a	83 c4 04	 add	 esp, 4
  0018d	0f be 10	 movsx	 edx, BYTE PTR [eax]
  00190	85 d2		 test	 edx, edx
  00192	0f 85 ce 02 00
	00		 jne	 $LN9@Insert

; 1119 : 			if (_Parent(_Pnode) == _Left(_Parent(_Parent(_Pnode))))

  00198	8b 45 e8	 mov	 eax, DWORD PTR __Pnode$180565[ebp]
  0019b	50		 push	 eax
  0019c	e8 00 00 00 00	 call	 ?_Parent@?$_Tree@V?$_Tset_traits@KU?$less@K@std@@V?$KAllocator@K@KMemory@@$0A@@std@@@std@@KAAAPAU_Node@?$_Tree_nod@V?$_Tset_traits@KU?$less@K@std@@V?$KAllocator@K@KMemory@@$0A@@std@@@2@PAU342@@Z ; std::_Tree<std::_Tset_traits<unsigned long,std::less<unsigned long>,KMemory::KAllocator<unsigned long>,0> >::_Parent
  001a1	83 c4 04	 add	 esp, 4
  001a4	8b f0		 mov	 esi, eax
  001a6	8b 4d e8	 mov	 ecx, DWORD PTR __Pnode$180565[ebp]
  001a9	51		 push	 ecx
  001aa	e8 00 00 00 00	 call	 ?_Parent@?$_Tree@V?$_Tset_traits@KU?$less@K@std@@V?$KAllocator@K@KMemory@@$0A@@std@@@std@@KAAAPAU_Node@?$_Tree_nod@V?$_Tset_traits@KU?$less@K@std@@V?$KAllocator@K@KMemory@@$0A@@std@@@2@PAU342@@Z ; std::_Tree<std::_Tset_traits<unsigned long,std::less<unsigned long>,KMemory::KAllocator<unsigned long>,0> >::_Parent
  001af	83 c4 04	 add	 esp, 4
  001b2	8b 10		 mov	 edx, DWORD PTR [eax]
  001b4	52		 push	 edx
  001b5	e8 00 00 00 00	 call	 ?_Parent@?$_Tree@V?$_Tset_traits@KU?$less@K@std@@V?$KAllocator@K@KMemory@@$0A@@std@@@std@@KAAAPAU_Node@?$_Tree_nod@V?$_Tset_traits@KU?$less@K@std@@V?$KAllocator@K@KMemory@@$0A@@std@@@2@PAU342@@Z ; std::_Tree<std::_Tset_traits<unsigned long,std::less<unsigned long>,KMemory::KAllocator<unsigned long>,0> >::_Parent
  001ba	83 c4 04	 add	 esp, 4
  001bd	8b 00		 mov	 eax, DWORD PTR [eax]
  001bf	50		 push	 eax
  001c0	e8 00 00 00 00	 call	 ?_Left@?$_Tree@V?$_Tset_traits@KU?$less@K@std@@V?$KAllocator@K@KMemory@@$0A@@std@@@std@@KAAAPAU_Node@?$_Tree_nod@V?$_Tset_traits@KU?$less@K@std@@V?$KAllocator@K@KMemory@@$0A@@std@@@2@PAU342@@Z ; std::_Tree<std::_Tset_traits<unsigned long,std::less<unsigned long>,KMemory::KAllocator<unsigned long>,0> >::_Left
  001c5	83 c4 04	 add	 esp, 4
  001c8	8b 0e		 mov	 ecx, DWORD PTR [esi]
  001ca	3b 08		 cmp	 ecx, DWORD PTR [eax]
  001cc	0f 85 4a 01 00
	00		 jne	 $LN8@Insert

; 1120 : 				{	// fixup red-red in left subtree
; 1121 : 				_Wherenode = _Right(_Parent(_Parent(_Pnode)));

  001d2	8b 55 e8	 mov	 edx, DWORD PTR __Pnode$180565[ebp]
  001d5	52		 push	 edx
  001d6	e8 00 00 00 00	 call	 ?_Parent@?$_Tree@V?$_Tset_traits@KU?$less@K@std@@V?$KAllocator@K@KMemory@@$0A@@std@@@std@@KAAAPAU_Node@?$_Tree_nod@V?$_Tset_traits@KU?$less@K@std@@V?$KAllocator@K@KMemory@@$0A@@std@@@2@PAU342@@Z ; std::_Tree<std::_Tset_traits<unsigned long,std::less<unsigned long>,KMemory::KAllocator<unsigned long>,0> >::_Parent
  001db	83 c4 04	 add	 esp, 4
  001de	8b 00		 mov	 eax, DWORD PTR [eax]
  001e0	50		 push	 eax
  001e1	e8 00 00 00 00	 call	 ?_Parent@?$_Tree@V?$_Tset_traits@KU?$less@K@std@@V?$KAllocator@K@KMemory@@$0A@@std@@@std@@KAAAPAU_Node@?$_Tree_nod@V?$_Tset_traits@KU?$less@K@std@@V?$KAllocator@K@KMemory@@$0A@@std@@@2@PAU342@@Z ; std::_Tree<std::_Tset_traits<unsigned long,std::less<unsigned long>,KMemory::KAllocator<unsigned long>,0> >::_Parent
  001e6	83 c4 04	 add	 esp, 4
  001e9	8b 08		 mov	 ecx, DWORD PTR [eax]
  001eb	51		 push	 ecx
  001ec	e8 00 00 00 00	 call	 ?_Right@?$_Tree@V?$_Tset_traits@KU?$less@K@std@@V?$KAllocator@K@KMemory@@$0A@@std@@@std@@KAAAPAU_Node@?$_Tree_nod@V?$_Tset_traits@KU?$less@K@std@@V?$KAllocator@K@KMemory@@$0A@@std@@@2@PAU342@@Z ; std::_Tree<std::_Tset_traits<unsigned long,std::less<unsigned long>,KMemory::KAllocator<unsigned long>,0> >::_Right
  001f1	83 c4 04	 add	 esp, 4
  001f4	8b 10		 mov	 edx, DWORD PTR [eax]
  001f6	89 55 10	 mov	 DWORD PTR __Wherenode$[ebp], edx

; 1122 : 				if (_Color(_Wherenode) == _Red)

  001f9	8b 45 10	 mov	 eax, DWORD PTR __Wherenode$[ebp]
  001fc	50		 push	 eax
  001fd	e8 00 00 00 00	 call	 ?_Color@?$_Tree@V?$_Tset_traits@KU?$less@K@std@@V?$KAllocator@K@KMemory@@$0A@@std@@@std@@KAAADPAU_Node@?$_Tree_nod@V?$_Tset_traits@KU?$less@K@std@@V?$KAllocator@K@KMemory@@$0A@@std@@@2@@Z ; std::_Tree<std::_Tset_traits<unsigned long,std::less<unsigned long>,KMemory::KAllocator<unsigned long>,0> >::_Color
  00202	83 c4 04	 add	 esp, 4
  00205	0f be 08	 movsx	 ecx, BYTE PTR [eax]
  00208	85 c9		 test	 ecx, ecx
  0020a	75 6f		 jne	 SHORT $LN7@Insert

; 1123 : 					{	// parent has two red children, blacken both
; 1124 : 					_Color(_Parent(_Pnode)) = _Black;

  0020c	8b 55 e8	 mov	 edx, DWORD PTR __Pnode$180565[ebp]
  0020f	52		 push	 edx
  00210	e8 00 00 00 00	 call	 ?_Parent@?$_Tree@V?$_Tset_traits@KU?$less@K@std@@V?$KAllocator@K@KMemory@@$0A@@std@@@std@@KAAAPAU_Node@?$_Tree_nod@V?$_Tset_traits@KU?$less@K@std@@V?$KAllocator@K@KMemory@@$0A@@std@@@2@PAU342@@Z ; std::_Tree<std::_Tset_traits<unsigned long,std::less<unsigned long>,KMemory::KAllocator<unsigned long>,0> >::_Parent
  00215	83 c4 04	 add	 esp, 4
  00218	8b 00		 mov	 eax, DWORD PTR [eax]
  0021a	50		 push	 eax
  0021b	e8 00 00 00 00	 call	 ?_Color@?$_Tree@V?$_Tset_traits@KU?$less@K@std@@V?$KAllocator@K@KMemory@@$0A@@std@@@std@@KAAADPAU_Node@?$_Tree_nod@V?$_Tset_traits@KU?$less@K@std@@V?$KAllocator@K@KMemory@@$0A@@std@@@2@@Z ; std::_Tree<std::_Tset_traits<unsigned long,std::less<unsigned long>,KMemory::KAllocator<unsigned long>,0> >::_Color
  00220	83 c4 04	 add	 esp, 4
  00223	c6 00 01	 mov	 BYTE PTR [eax], 1

; 1125 : 					_Color(_Wherenode) = _Black;

  00226	8b 4d 10	 mov	 ecx, DWORD PTR __Wherenode$[ebp]
  00229	51		 push	 ecx
  0022a	e8 00 00 00 00	 call	 ?_Color@?$_Tree@V?$_Tset_traits@KU?$less@K@std@@V?$KAllocator@K@KMemory@@$0A@@std@@@std@@KAAADPAU_Node@?$_Tree_nod@V?$_Tset_traits@KU?$less@K@std@@V?$KAllocator@K@KMemory@@$0A@@std@@@2@@Z ; std::_Tree<std::_Tset_traits<unsigned long,std::less<unsigned long>,KMemory::KAllocator<unsigned long>,0> >::_Color
  0022f	83 c4 04	 add	 esp, 4
  00232	c6 00 01	 mov	 BYTE PTR [eax], 1

; 1126 : 					_Color(_Parent(_Parent(_Pnode))) = _Red;

  00235	8b 55 e8	 mov	 edx, DWORD PTR __Pnode$180565[ebp]
  00238	52		 push	 edx
  00239	e8 00 00 00 00	 call	 ?_Parent@?$_Tree@V?$_Tset_traits@KU?$less@K@std@@V?$KAllocator@K@KMemory@@$0A@@std@@@std@@KAAAPAU_Node@?$_Tree_nod@V?$_Tset_traits@KU?$less@K@std@@V?$KAllocator@K@KMemory@@$0A@@std@@@2@PAU342@@Z ; std::_Tree<std::_Tset_traits<unsigned long,std::less<unsigned long>,KMemory::KAllocator<unsigned long>,0> >::_Parent
  0023e	83 c4 04	 add	 esp, 4
  00241	8b 00		 mov	 eax, DWORD PTR [eax]
  00243	50		 push	 eax
  00244	e8 00 00 00 00	 call	 ?_Parent@?$_Tree@V?$_Tset_traits@KU?$less@K@std@@V?$KAllocator@K@KMemory@@$0A@@std@@@std@@KAAAPAU_Node@?$_Tree_nod@V?$_Tset_traits@KU?$less@K@std@@V?$KAllocator@K@KMemory@@$0A@@std@@@2@PAU342@@Z ; std::_Tree<std::_Tset_traits<unsigned long,std::less<unsigned long>,KMemory::KAllocator<unsigned long>,0> >::_Parent
  00249	83 c4 04	 add	 esp, 4
  0024c	8b 08		 mov	 ecx, DWORD PTR [eax]
  0024e	51		 push	 ecx
  0024f	e8 00 00 00 00	 call	 ?_Color@?$_Tree@V?$_Tset_traits@KU?$less@K@std@@V?$KAllocator@K@KMemory@@$0A@@std@@@std@@KAAADPAU_Node@?$_Tree_nod@V?$_Tset_traits@KU?$less@K@std@@V?$KAllocator@K@KMemory@@$0A@@std@@@2@@Z ; std::_Tree<std::_Tset_traits<unsigned long,std::less<unsigned long>,KMemory::KAllocator<unsigned long>,0> >::_Color
  00254	83 c4 04	 add	 esp, 4
  00257	c6 00 00	 mov	 BYTE PTR [eax], 0

; 1127 : 					_Pnode = _Parent(_Parent(_Pnode));

  0025a	8b 55 e8	 mov	 edx, DWORD PTR __Pnode$180565[ebp]
  0025d	52		 push	 edx
  0025e	e8 00 00 00 00	 call	 ?_Parent@?$_Tree@V?$_Tset_traits@KU?$less@K@std@@V?$KAllocator@K@KMemory@@$0A@@std@@@std@@KAAAPAU_Node@?$_Tree_nod@V?$_Tset_traits@KU?$less@K@std@@V?$KAllocator@K@KMemory@@$0A@@std@@@2@PAU342@@Z ; std::_Tree<std::_Tset_traits<unsigned long,std::less<unsigned long>,KMemory::KAllocator<unsigned long>,0> >::_Parent
  00263	83 c4 04	 add	 esp, 4
  00266	8b 00		 mov	 eax, DWORD PTR [eax]
  00268	50		 push	 eax
  00269	e8 00 00 00 00	 call	 ?_Parent@?$_Tree@V?$_Tset_traits@KU?$less@K@std@@V?$KAllocator@K@KMemory@@$0A@@std@@@std@@KAAAPAU_Node@?$_Tree_nod@V?$_Tset_traits@KU?$less@K@std@@V?$KAllocator@K@KMemory@@$0A@@std@@@2@PAU342@@Z ; std::_Tree<std::_Tset_traits<unsigned long,std::less<unsigned long>,KMemory::KAllocator<unsigned long>,0> >::_Parent
  0026e	83 c4 04	 add	 esp, 4
  00271	8b 08		 mov	 ecx, DWORD PTR [eax]
  00273	89 4d e8	 mov	 DWORD PTR __Pnode$180565[ebp], ecx

; 1128 : 					}
; 1129 : 				else

  00276	e9 9c 00 00 00	 jmp	 $LN6@Insert
$LN7@Insert:

; 1130 : 					{	// parent has red and black children
; 1131 : 					if (_Pnode == _Right(_Parent(_Pnode)))

  0027b	8b 55 e8	 mov	 edx, DWORD PTR __Pnode$180565[ebp]
  0027e	52		 push	 edx
  0027f	e8 00 00 00 00	 call	 ?_Parent@?$_Tree@V?$_Tset_traits@KU?$less@K@std@@V?$KAllocator@K@KMemory@@$0A@@std@@@std@@KAAAPAU_Node@?$_Tree_nod@V?$_Tset_traits@KU?$less@K@std@@V?$KAllocator@K@KMemory@@$0A@@std@@@2@PAU342@@Z ; std::_Tree<std::_Tset_traits<unsigned long,std::less<unsigned long>,KMemory::KAllocator<unsigned long>,0> >::_Parent
  00284	83 c4 04	 add	 esp, 4
  00287	8b 00		 mov	 eax, DWORD PTR [eax]
  00289	50		 push	 eax
  0028a	e8 00 00 00 00	 call	 ?_Right@?$_Tree@V?$_Tset_traits@KU?$less@K@std@@V?$KAllocator@K@KMemory@@$0A@@std@@@std@@KAAAPAU_Node@?$_Tree_nod@V?$_Tset_traits@KU?$less@K@std@@V?$KAllocator@K@KMemory@@$0A@@std@@@2@PAU342@@Z ; std::_Tree<std::_Tset_traits<unsigned long,std::less<unsigned long>,KMemory::KAllocator<unsigned long>,0> >::_Right
  0028f	83 c4 04	 add	 esp, 4
  00292	8b 4d e8	 mov	 ecx, DWORD PTR __Pnode$180565[ebp]
  00295	3b 08		 cmp	 ecx, DWORD PTR [eax]
  00297	75 1d		 jne	 SHORT $LN5@Insert

; 1132 : 						{	// rotate right child to left
; 1133 : 						_Pnode = _Parent(_Pnode);

  00299	8b 55 e8	 mov	 edx, DWORD PTR __Pnode$180565[ebp]
  0029c	52		 push	 edx
  0029d	e8 00 00 00 00	 call	 ?_Parent@?$_Tree@V?$_Tset_traits@KU?$less@K@std@@V?$KAllocator@K@KMemory@@$0A@@std@@@std@@KAAAPAU_Node@?$_Tree_nod@V?$_Tset_traits@KU?$less@K@std@@V?$KAllocator@K@KMemory@@$0A@@std@@@2@PAU342@@Z ; std::_Tree<std::_Tset_traits<unsigned long,std::less<unsigned long>,KMemory::KAllocator<unsigned long>,0> >::_Parent
  002a2	83 c4 04	 add	 esp, 4
  002a5	8b 00		 mov	 eax, DWORD PTR [eax]
  002a7	89 45 e8	 mov	 DWORD PTR __Pnode$180565[ebp], eax

; 1134 : 						_Lrotate(_Pnode);

  002aa	8b 4d e8	 mov	 ecx, DWORD PTR __Pnode$180565[ebp]
  002ad	51		 push	 ecx
  002ae	8b 4d f0	 mov	 ecx, DWORD PTR _this$[ebp]
  002b1	e8 00 00 00 00	 call	 ?_Lrotate@?$_Tree@V?$_Tset_traits@KU?$less@K@std@@V?$KAllocator@K@KMemory@@$0A@@std@@@std@@IAEXPAU_Node@?$_Tree_nod@V?$_Tset_traits@KU?$less@K@std@@V?$KAllocator@K@KMemory@@$0A@@std@@@2@@Z ; std::_Tree<std::_Tset_traits<unsigned long,std::less<unsigned long>,KMemory::KAllocator<unsigned long>,0> >::_Lrotate
$LN5@Insert:

; 1135 : 						}
; 1136 : 					_Color(_Parent(_Pnode)) = _Black;	// propagate red up

  002b6	8b 55 e8	 mov	 edx, DWORD PTR __Pnode$180565[ebp]
  002b9	52		 push	 edx
  002ba	e8 00 00 00 00	 call	 ?_Parent@?$_Tree@V?$_Tset_traits@KU?$less@K@std@@V?$KAllocator@K@KMemory@@$0A@@std@@@std@@KAAAPAU_Node@?$_Tree_nod@V?$_Tset_traits@KU?$less@K@std@@V?$KAllocator@K@KMemory@@$0A@@std@@@2@PAU342@@Z ; std::_Tree<std::_Tset_traits<unsigned long,std::less<unsigned long>,KMemory::KAllocator<unsigned long>,0> >::_Parent
  002bf	83 c4 04	 add	 esp, 4
  002c2	8b 00		 mov	 eax, DWORD PTR [eax]
  002c4	50		 push	 eax
  002c5	e8 00 00 00 00	 call	 ?_Color@?$_Tree@V?$_Tset_traits@KU?$less@K@std@@V?$KAllocator@K@KMemory@@$0A@@std@@@std@@KAAADPAU_Node@?$_Tree_nod@V?$_Tset_traits@KU?$less@K@std@@V?$KAllocator@K@KMemory@@$0A@@std@@@2@@Z ; std::_Tree<std::_Tset_traits<unsigned long,std::less<unsigned long>,KMemory::KAllocator<unsigned long>,0> >::_Color
  002ca	83 c4 04	 add	 esp, 4
  002cd	c6 00 01	 mov	 BYTE PTR [eax], 1

; 1137 : 					_Color(_Parent(_Parent(_Pnode))) = _Red;

  002d0	8b 4d e8	 mov	 ecx, DWORD PTR __Pnode$180565[ebp]
  002d3	51		 push	 ecx
  002d4	e8 00 00 00 00	 call	 ?_Parent@?$_Tree@V?$_Tset_traits@KU?$less@K@std@@V?$KAllocator@K@KMemory@@$0A@@std@@@std@@KAAAPAU_Node@?$_Tree_nod@V?$_Tset_traits@KU?$less@K@std@@V?$KAllocator@K@KMemory@@$0A@@std@@@2@PAU342@@Z ; std::_Tree<std::_Tset_traits<unsigned long,std::less<unsigned long>,KMemory::KAllocator<unsigned long>,0> >::_Parent
  002d9	83 c4 04	 add	 esp, 4
  002dc	8b 10		 mov	 edx, DWORD PTR [eax]
  002de	52		 push	 edx
  002df	e8 00 00 00 00	 call	 ?_Parent@?$_Tree@V?$_Tset_traits@KU?$less@K@std@@V?$KAllocator@K@KMemory@@$0A@@std@@@std@@KAAAPAU_Node@?$_Tree_nod@V?$_Tset_traits@KU?$less@K@std@@V?$KAllocator@K@KMemory@@$0A@@std@@@2@PAU342@@Z ; std::_Tree<std::_Tset_traits<unsigned long,std::less<unsigned long>,KMemory::KAllocator<unsigned long>,0> >::_Parent
  002e4	83 c4 04	 add	 esp, 4
  002e7	8b 00		 mov	 eax, DWORD PTR [eax]
  002e9	50		 push	 eax
  002ea	e8 00 00 00 00	 call	 ?_Color@?$_Tree@V?$_Tset_traits@KU?$less@K@std@@V?$KAllocator@K@KMemory@@$0A@@std@@@std@@KAAADPAU_Node@?$_Tree_nod@V?$_Tset_traits@KU?$less@K@std@@V?$KAllocator@K@KMemory@@$0A@@std@@@2@@Z ; std::_Tree<std::_Tset_traits<unsigned long,std::less<unsigned long>,KMemory::KAllocator<unsigned long>,0> >::_Color
  002ef	83 c4 04	 add	 esp, 4
  002f2	c6 00 00	 mov	 BYTE PTR [eax], 0

; 1138 : 					_Rrotate(_Parent(_Parent(_Pnode)));

  002f5	8b 4d e8	 mov	 ecx, DWORD PTR __Pnode$180565[ebp]
  002f8	51		 push	 ecx
  002f9	e8 00 00 00 00	 call	 ?_Parent@?$_Tree@V?$_Tset_traits@KU?$less@K@std@@V?$KAllocator@K@KMemory@@$0A@@std@@@std@@KAAAPAU_Node@?$_Tree_nod@V?$_Tset_traits@KU?$less@K@std@@V?$KAllocator@K@KMemory@@$0A@@std@@@2@PAU342@@Z ; std::_Tree<std::_Tset_traits<unsigned long,std::less<unsigned long>,KMemory::KAllocator<unsigned long>,0> >::_Parent
  002fe	83 c4 04	 add	 esp, 4
  00301	8b 10		 mov	 edx, DWORD PTR [eax]
  00303	52		 push	 edx
  00304	e8 00 00 00 00	 call	 ?_Parent@?$_Tree@V?$_Tset_traits@KU?$less@K@std@@V?$KAllocator@K@KMemory@@$0A@@std@@@std@@KAAAPAU_Node@?$_Tree_nod@V?$_Tset_traits@KU?$less@K@std@@V?$KAllocator@K@KMemory@@$0A@@std@@@2@PAU342@@Z ; std::_Tree<std::_Tset_traits<unsigned long,std::less<unsigned long>,KMemory::KAllocator<unsigned long>,0> >::_Parent
  00309	83 c4 04	 add	 esp, 4
  0030c	8b 00		 mov	 eax, DWORD PTR [eax]
  0030e	50		 push	 eax
  0030f	8b 4d f0	 mov	 ecx, DWORD PTR _this$[ebp]
  00312	e8 00 00 00 00	 call	 ?_Rrotate@?$_Tree@V?$_Tset_traits@KU?$less@K@std@@V?$KAllocator@K@KMemory@@$0A@@std@@@std@@IAEXPAU_Node@?$_Tree_nod@V?$_Tset_traits@KU?$less@K@std@@V?$KAllocator@K@KMemory@@$0A@@std@@@2@@Z ; std::_Tree<std::_Tset_traits<unsigned long,std::less<unsigned long>,KMemory::KAllocator<unsigned long>,0> >::_Rrotate
$LN6@Insert:

; 1139 : 					}
; 1140 : 				}
; 1141 : 			else

  00317	e9 45 01 00 00	 jmp	 $LN4@Insert
$LN8@Insert:

; 1142 : 				{	// fixup red-red in right subtree
; 1143 : 				_Wherenode = _Left(_Parent(_Parent(_Pnode)));

  0031c	8b 4d e8	 mov	 ecx, DWORD PTR __Pnode$180565[ebp]
  0031f	51		 push	 ecx
  00320	e8 00 00 00 00	 call	 ?_Parent@?$_Tree@V?$_Tset_traits@KU?$less@K@std@@V?$KAllocator@K@KMemory@@$0A@@std@@@std@@KAAAPAU_Node@?$_Tree_nod@V?$_Tset_traits@KU?$less@K@std@@V?$KAllocator@K@KMemory@@$0A@@std@@@2@PAU342@@Z ; std::_Tree<std::_Tset_traits<unsigned long,std::less<unsigned long>,KMemory::KAllocator<unsigned long>,0> >::_Parent
  00325	83 c4 04	 add	 esp, 4
  00328	8b 10		 mov	 edx, DWORD PTR [eax]
  0032a	52		 push	 edx
  0032b	e8 00 00 00 00	 call	 ?_Parent@?$_Tree@V?$_Tset_traits@KU?$less@K@std@@V?$KAllocator@K@KMemory@@$0A@@std@@@std@@KAAAPAU_Node@?$_Tree_nod@V?$_Tset_traits@KU?$less@K@std@@V?$KAllocator@K@KMemory@@$0A@@std@@@2@PAU342@@Z ; std::_Tree<std::_Tset_traits<unsigned long,std::less<unsigned long>,KMemory::KAllocator<unsigned long>,0> >::_Parent
  00330	83 c4 04	 add	 esp, 4
  00333	8b 00		 mov	 eax, DWORD PTR [eax]
  00335	50		 push	 eax
  00336	e8 00 00 00 00	 call	 ?_Left@?$_Tree@V?$_Tset_traits@KU?$less@K@std@@V?$KAllocator@K@KMemory@@$0A@@std@@@std@@KAAAPAU_Node@?$_Tree_nod@V?$_Tset_traits@KU?$less@K@std@@V?$KAllocator@K@KMemory@@$0A@@std@@@2@PAU342@@Z ; std::_Tree<std::_Tset_traits<unsigned long,std::less<unsigned long>,KMemory::KAllocator<unsigned long>,0> >::_Left
  0033b	83 c4 04	 add	 esp, 4
  0033e	8b 08		 mov	 ecx, DWORD PTR [eax]
  00340	89 4d 10	 mov	 DWORD PTR __Wherenode$[ebp], ecx

; 1144 : 				if (_Color(_Wherenode) == _Red)

  00343	8b 55 10	 mov	 edx, DWORD PTR __Wherenode$[ebp]
  00346	52		 push	 edx
  00347	e8 00 00 00 00	 call	 ?_Color@?$_Tree@V?$_Tset_traits@KU?$less@K@std@@V?$KAllocator@K@KMemory@@$0A@@std@@@std@@KAAADPAU_Node@?$_Tree_nod@V?$_Tset_traits@KU?$less@K@std@@V?$KAllocator@K@KMemory@@$0A@@std@@@2@@Z ; std::_Tree<std::_Tset_traits<unsigned long,std::less<unsigned long>,KMemory::KAllocator<unsigned long>,0> >::_Color
  0034c	83 c4 04	 add	 esp, 4
  0034f	0f be 00	 movsx	 eax, BYTE PTR [eax]
  00352	85 c0		 test	 eax, eax
  00354	75 6f		 jne	 SHORT $LN3@Insert

; 1145 : 					{	// parent has two red children, blacken both
; 1146 : 					_Color(_Parent(_Pnode)) = _Black;

  00356	8b 4d e8	 mov	 ecx, DWORD PTR __Pnode$180565[ebp]
  00359	51		 push	 ecx
  0035a	e8 00 00 00 00	 call	 ?_Parent@?$_Tree@V?$_Tset_traits@KU?$less@K@std@@V?$KAllocator@K@KMemory@@$0A@@std@@@std@@KAAAPAU_Node@?$_Tree_nod@V?$_Tset_traits@KU?$less@K@std@@V?$KAllocator@K@KMemory@@$0A@@std@@@2@PAU342@@Z ; std::_Tree<std::_Tset_traits<unsigned long,std::less<unsigned long>,KMemory::KAllocator<unsigned long>,0> >::_Parent
  0035f	83 c4 04	 add	 esp, 4
  00362	8b 10		 mov	 edx, DWORD PTR [eax]
  00364	52		 push	 edx
  00365	e8 00 00 00 00	 call	 ?_Color@?$_Tree@V?$_Tset_traits@KU?$less@K@std@@V?$KAllocator@K@KMemory@@$0A@@std@@@std@@KAAADPAU_Node@?$_Tree_nod@V?$_Tset_traits@KU?$less@K@std@@V?$KAllocator@K@KMemory@@$0A@@std@@@2@@Z ; std::_Tree<std::_Tset_traits<unsigned long,std::less<unsigned long>,KMemory::KAllocator<unsigned long>,0> >::_Color
  0036a	83 c4 04	 add	 esp, 4
  0036d	c6 00 01	 mov	 BYTE PTR [eax], 1

; 1147 : 					_Color(_Wherenode) = _Black;

  00370	8b 45 10	 mov	 eax, DWORD PTR __Wherenode$[ebp]
  00373	50		 push	 eax
  00374	e8 00 00 00 00	 call	 ?_Color@?$_Tree@V?$_Tset_traits@KU?$less@K@std@@V?$KAllocator@K@KMemory@@$0A@@std@@@std@@KAAADPAU_Node@?$_Tree_nod@V?$_Tset_traits@KU?$less@K@std@@V?$KAllocator@K@KMemory@@$0A@@std@@@2@@Z ; std::_Tree<std::_Tset_traits<unsigned long,std::less<unsigned long>,KMemory::KAllocator<unsigned long>,0> >::_Color
  00379	83 c4 04	 add	 esp, 4
  0037c	c6 00 01	 mov	 BYTE PTR [eax], 1

; 1148 : 					_Color(_Parent(_Parent(_Pnode))) = _Red;

  0037f	8b 4d e8	 mov	 ecx, DWORD PTR __Pnode$180565[ebp]
  00382	51		 push	 ecx
  00383	e8 00 00 00 00	 call	 ?_Parent@?$_Tree@V?$_Tset_traits@KU?$less@K@std@@V?$KAllocator@K@KMemory@@$0A@@std@@@std@@KAAAPAU_Node@?$_Tree_nod@V?$_Tset_traits@KU?$less@K@std@@V?$KAllocator@K@KMemory@@$0A@@std@@@2@PAU342@@Z ; std::_Tree<std::_Tset_traits<unsigned long,std::less<unsigned long>,KMemory::KAllocator<unsigned long>,0> >::_Parent
  00388	83 c4 04	 add	 esp, 4
  0038b	8b 10		 mov	 edx, DWORD PTR [eax]
  0038d	52		 push	 edx
  0038e	e8 00 00 00 00	 call	 ?_Parent@?$_Tree@V?$_Tset_traits@KU?$less@K@std@@V?$KAllocator@K@KMemory@@$0A@@std@@@std@@KAAAPAU_Node@?$_Tree_nod@V?$_Tset_traits@KU?$less@K@std@@V?$KAllocator@K@KMemory@@$0A@@std@@@2@PAU342@@Z ; std::_Tree<std::_Tset_traits<unsigned long,std::less<unsigned long>,KMemory::KAllocator<unsigned long>,0> >::_Parent
  00393	83 c4 04	 add	 esp, 4
  00396	8b 00		 mov	 eax, DWORD PTR [eax]
  00398	50		 push	 eax
  00399	e8 00 00 00 00	 call	 ?_Color@?$_Tree@V?$_Tset_traits@KU?$less@K@std@@V?$KAllocator@K@KMemory@@$0A@@std@@@std@@KAAADPAU_Node@?$_Tree_nod@V?$_Tset_traits@KU?$less@K@std@@V?$KAllocator@K@KMemory@@$0A@@std@@@2@@Z ; std::_Tree<std::_Tset_traits<unsigned long,std::less<unsigned long>,KMemory::KAllocator<unsigned long>,0> >::_Color
  0039e	83 c4 04	 add	 esp, 4
  003a1	c6 00 00	 mov	 BYTE PTR [eax], 0

; 1149 : 					_Pnode = _Parent(_Parent(_Pnode));

  003a4	8b 4d e8	 mov	 ecx, DWORD PTR __Pnode$180565[ebp]
  003a7	51		 push	 ecx
  003a8	e8 00 00 00 00	 call	 ?_Parent@?$_Tree@V?$_Tset_traits@KU?$less@K@std@@V?$KAllocator@K@KMemory@@$0A@@std@@@std@@KAAAPAU_Node@?$_Tree_nod@V?$_Tset_traits@KU?$less@K@std@@V?$KAllocator@K@KMemory@@$0A@@std@@@2@PAU342@@Z ; std::_Tree<std::_Tset_traits<unsigned long,std::less<unsigned long>,KMemory::KAllocator<unsigned long>,0> >::_Parent
  003ad	83 c4 04	 add	 esp, 4
  003b0	8b 10		 mov	 edx, DWORD PTR [eax]
  003b2	52		 push	 edx
  003b3	e8 00 00 00 00	 call	 ?_Parent@?$_Tree@V?$_Tset_traits@KU?$less@K@std@@V?$KAllocator@K@KMemory@@$0A@@std@@@std@@KAAAPAU_Node@?$_Tree_nod@V?$_Tset_traits@KU?$less@K@std@@V?$KAllocator@K@KMemory@@$0A@@std@@@2@PAU342@@Z ; std::_Tree<std::_Tset_traits<unsigned long,std::less<unsigned long>,KMemory::KAllocator<unsigned long>,0> >::_Parent
  003b8	83 c4 04	 add	 esp, 4
  003bb	8b 00		 mov	 eax, DWORD PTR [eax]
  003bd	89 45 e8	 mov	 DWORD PTR __Pnode$180565[ebp], eax

; 1150 : 					}
; 1151 : 				else

  003c0	e9 9c 00 00 00	 jmp	 $LN4@Insert
$LN3@Insert:

; 1152 : 					{	// parent has red and black children
; 1153 : 					if (_Pnode == _Left(_Parent(_Pnode)))

  003c5	8b 4d e8	 mov	 ecx, DWORD PTR __Pnode$180565[ebp]
  003c8	51		 push	 ecx
  003c9	e8 00 00 00 00	 call	 ?_Parent@?$_Tree@V?$_Tset_traits@KU?$less@K@std@@V?$KAllocator@K@KMemory@@$0A@@std@@@std@@KAAAPAU_Node@?$_Tree_nod@V?$_Tset_traits@KU?$less@K@std@@V?$KAllocator@K@KMemory@@$0A@@std@@@2@PAU342@@Z ; std::_Tree<std::_Tset_traits<unsigned long,std::less<unsigned long>,KMemory::KAllocator<unsigned long>,0> >::_Parent
  003ce	83 c4 04	 add	 esp, 4
  003d1	8b 10		 mov	 edx, DWORD PTR [eax]
  003d3	52		 push	 edx
  003d4	e8 00 00 00 00	 call	 ?_Left@?$_Tree@V?$_Tset_traits@KU?$less@K@std@@V?$KAllocator@K@KMemory@@$0A@@std@@@std@@KAAAPAU_Node@?$_Tree_nod@V?$_Tset_traits@KU?$less@K@std@@V?$KAllocator@K@KMemory@@$0A@@std@@@2@PAU342@@Z ; std::_Tree<std::_Tset_traits<unsigned long,std::less<unsigned long>,KMemory::KAllocator<unsigned long>,0> >::_Left
  003d9	83 c4 04	 add	 esp, 4
  003dc	8b 4d e8	 mov	 ecx, DWORD PTR __Pnode$180565[ebp]
  003df	3b 08		 cmp	 ecx, DWORD PTR [eax]
  003e1	75 1d		 jne	 SHORT $LN1@Insert

; 1154 : 						{	// rotate left child to right
; 1155 : 						_Pnode = _Parent(_Pnode);

  003e3	8b 55 e8	 mov	 edx, DWORD PTR __Pnode$180565[ebp]
  003e6	52		 push	 edx
  003e7	e8 00 00 00 00	 call	 ?_Parent@?$_Tree@V?$_Tset_traits@KU?$less@K@std@@V?$KAllocator@K@KMemory@@$0A@@std@@@std@@KAAAPAU_Node@?$_Tree_nod@V?$_Tset_traits@KU?$less@K@std@@V?$KAllocator@K@KMemory@@$0A@@std@@@2@PAU342@@Z ; std::_Tree<std::_Tset_traits<unsigned long,std::less<unsigned long>,KMemory::KAllocator<unsigned long>,0> >::_Parent
  003ec	83 c4 04	 add	 esp, 4
  003ef	8b 00		 mov	 eax, DWORD PTR [eax]
  003f1	89 45 e8	 mov	 DWORD PTR __Pnode$180565[ebp], eax

; 1156 : 						_Rrotate(_Pnode);

  003f4	8b 4d e8	 mov	 ecx, DWORD PTR __Pnode$180565[ebp]
  003f7	51		 push	 ecx
  003f8	8b 4d f0	 mov	 ecx, DWORD PTR _this$[ebp]
  003fb	e8 00 00 00 00	 call	 ?_Rrotate@?$_Tree@V?$_Tset_traits@KU?$less@K@std@@V?$KAllocator@K@KMemory@@$0A@@std@@@std@@IAEXPAU_Node@?$_Tree_nod@V?$_Tset_traits@KU?$less@K@std@@V?$KAllocator@K@KMemory@@$0A@@std@@@2@@Z ; std::_Tree<std::_Tset_traits<unsigned long,std::less<unsigned long>,KMemory::KAllocator<unsigned long>,0> >::_Rrotate
$LN1@Insert:

; 1157 : 						}
; 1158 : 					_Color(_Parent(_Pnode)) = _Black;	// propagate red up

  00400	8b 55 e8	 mov	 edx, DWORD PTR __Pnode$180565[ebp]
  00403	52		 push	 edx
  00404	e8 00 00 00 00	 call	 ?_Parent@?$_Tree@V?$_Tset_traits@KU?$less@K@std@@V?$KAllocator@K@KMemory@@$0A@@std@@@std@@KAAAPAU_Node@?$_Tree_nod@V?$_Tset_traits@KU?$less@K@std@@V?$KAllocator@K@KMemory@@$0A@@std@@@2@PAU342@@Z ; std::_Tree<std::_Tset_traits<unsigned long,std::less<unsigned long>,KMemory::KAllocator<unsigned long>,0> >::_Parent
  00409	83 c4 04	 add	 esp, 4
  0040c	8b 00		 mov	 eax, DWORD PTR [eax]
  0040e	50		 push	 eax
  0040f	e8 00 00 00 00	 call	 ?_Color@?$_Tree@V?$_Tset_traits@KU?$less@K@std@@V?$KAllocator@K@KMemory@@$0A@@std@@@std@@KAAADPAU_Node@?$_Tree_nod@V?$_Tset_traits@KU?$less@K@std@@V?$KAllocator@K@KMemory@@$0A@@std@@@2@@Z ; std::_Tree<std::_Tset_traits<unsigned long,std::less<unsigned long>,KMemory::KAllocator<unsigned long>,0> >::_Color
  00414	83 c4 04	 add	 esp, 4
  00417	c6 00 01	 mov	 BYTE PTR [eax], 1

; 1159 : 					_Color(_Parent(_Parent(_Pnode))) = _Red;

  0041a	8b 4d e8	 mov	 ecx, DWORD PTR __Pnode$180565[ebp]
  0041d	51		 push	 ecx
  0041e	e8 00 00 00 00	 call	 ?_Parent@?$_Tree@V?$_Tset_traits@KU?$less@K@std@@V?$KAllocator@K@KMemory@@$0A@@std@@@std@@KAAAPAU_Node@?$_Tree_nod@V?$_Tset_traits@KU?$less@K@std@@V?$KAllocator@K@KMemory@@$0A@@std@@@2@PAU342@@Z ; std::_Tree<std::_Tset_traits<unsigned long,std::less<unsigned long>,KMemory::KAllocator<unsigned long>,0> >::_Parent
  00423	83 c4 04	 add	 esp, 4
  00426	8b 10		 mov	 edx, DWORD PTR [eax]
  00428	52		 push	 edx
  00429	e8 00 00 00 00	 call	 ?_Parent@?$_Tree@V?$_Tset_traits@KU?$less@K@std@@V?$KAllocator@K@KMemory@@$0A@@std@@@std@@KAAAPAU_Node@?$_Tree_nod@V?$_Tset_traits@KU?$less@K@std@@V?$KAllocator@K@KMemory@@$0A@@std@@@2@PAU342@@Z ; std::_Tree<std::_Tset_traits<unsigned long,std::less<unsigned long>,KMemory::KAllocator<unsigned long>,0> >::_Parent
  0042e	83 c4 04	 add	 esp, 4
  00431	8b 00		 mov	 eax, DWORD PTR [eax]
  00433	50		 push	 eax
  00434	e8 00 00 00 00	 call	 ?_Color@?$_Tree@V?$_Tset_traits@KU?$less@K@std@@V?$KAllocator@K@KMemory@@$0A@@std@@@std@@KAAADPAU_Node@?$_Tree_nod@V?$_Tset_traits@KU?$less@K@std@@V?$KAllocator@K@KMemory@@$0A@@std@@@2@@Z ; std::_Tree<std::_Tset_traits<unsigned long,std::less<unsigned long>,KMemory::KAllocator<unsigned long>,0> >::_Color
  00439	83 c4 04	 add	 esp, 4
  0043c	c6 00 00	 mov	 BYTE PTR [eax], 0

; 1160 : 					_Lrotate(_Parent(_Parent(_Pnode)));

  0043f	8b 4d e8	 mov	 ecx, DWORD PTR __Pnode$180565[ebp]
  00442	51		 push	 ecx
  00443	e8 00 00 00 00	 call	 ?_Parent@?$_Tree@V?$_Tset_traits@KU?$less@K@std@@V?$KAllocator@K@KMemory@@$0A@@std@@@std@@KAAAPAU_Node@?$_Tree_nod@V?$_Tset_traits@KU?$less@K@std@@V?$KAllocator@K@KMemory@@$0A@@std@@@2@PAU342@@Z ; std::_Tree<std::_Tset_traits<unsigned long,std::less<unsigned long>,KMemory::KAllocator<unsigned long>,0> >::_Parent
  00448	83 c4 04	 add	 esp, 4
  0044b	8b 10		 mov	 edx, DWORD PTR [eax]
  0044d	52		 push	 edx
  0044e	e8 00 00 00 00	 call	 ?_Parent@?$_Tree@V?$_Tset_traits@KU?$less@K@std@@V?$KAllocator@K@KMemory@@$0A@@std@@@std@@KAAAPAU_Node@?$_Tree_nod@V?$_Tset_traits@KU?$less@K@std@@V?$KAllocator@K@KMemory@@$0A@@std@@@2@PAU342@@Z ; std::_Tree<std::_Tset_traits<unsigned long,std::less<unsigned long>,KMemory::KAllocator<unsigned long>,0> >::_Parent
  00453	83 c4 04	 add	 esp, 4
  00456	8b 00		 mov	 eax, DWORD PTR [eax]
  00458	50		 push	 eax
  00459	8b 4d f0	 mov	 ecx, DWORD PTR _this$[ebp]
  0045c	e8 00 00 00 00	 call	 ?_Lrotate@?$_Tree@V?$_Tset_traits@KU?$less@K@std@@V?$KAllocator@K@KMemory@@$0A@@std@@@std@@IAEXPAU_Node@?$_Tree_nod@V?$_Tset_traits@KU?$less@K@std@@V?$KAllocator@K@KMemory@@$0A@@std@@@2@@Z ; std::_Tree<std::_Tset_traits<unsigned long,std::less<unsigned long>,KMemory::KAllocator<unsigned long>,0> >::_Lrotate
$LN4@Insert:

; 1161 : 					}
; 1162 : 				}

  00461	e9 10 fd ff ff	 jmp	 $LN10@Insert
$LN9@Insert:

; 1163 : 
; 1164 : 		_Color(_Root()) = _Black;	// root is always black

  00466	8b 4d f0	 mov	 ecx, DWORD PTR _this$[ebp]
  00469	e8 00 00 00 00	 call	 ?_Root@?$_Tree@V?$_Tset_traits@KU?$less@K@std@@V?$KAllocator@K@KMemory@@$0A@@std@@@std@@IBEAAPAU_Node@?$_Tree_nod@V?$_Tset_traits@KU?$less@K@std@@V?$KAllocator@K@KMemory@@$0A@@std@@@2@XZ ; std::_Tree<std::_Tset_traits<unsigned long,std::less<unsigned long>,KMemory::KAllocator<unsigned long>,0> >::_Root
  0046e	8b 08		 mov	 ecx, DWORD PTR [eax]
  00470	51		 push	 ecx
  00471	e8 00 00 00 00	 call	 ?_Color@?$_Tree@V?$_Tset_traits@KU?$less@K@std@@V?$KAllocator@K@KMemory@@$0A@@std@@@std@@KAAADPAU_Node@?$_Tree_nod@V?$_Tset_traits@KU?$less@K@std@@V?$KAllocator@K@KMemory@@$0A@@std@@@2@@Z ; std::_Tree<std::_Tset_traits<unsigned long,std::less<unsigned long>,KMemory::KAllocator<unsigned long>,0> >::_Color
  00476	83 c4 04	 add	 esp, 4
  00479	c6 00 01	 mov	 BYTE PTR [eax], 1

; 1165 : 		return (_TREE_ITERATOR(_Newnode));

  0047c	8b 55 f0	 mov	 edx, DWORD PTR _this$[ebp]
  0047f	52		 push	 edx
  00480	8b 45 ec	 mov	 eax, DWORD PTR __Newnode$[ebp]
  00483	50		 push	 eax
  00484	8b 4d 08	 mov	 ecx, DWORD PTR ___$ReturnUdt$[ebp]
  00487	e8 00 00 00 00	 call	 ??0iterator@?$_Tree@V?$_Tset_traits@KU?$less@K@std@@V?$KAllocator@K@KMemory@@$0A@@std@@@std@@QAE@PAU_Node@?$_Tree_nod@V?$_Tset_traits@KU?$less@K@std@@V?$KAllocator@K@KMemory@@$0A@@std@@@2@PBV12@@Z ; std::_Tree<std::_Tset_traits<unsigned long,std::less<unsigned long>,KMemory::KAllocator<unsigned long>,0> >::iterator::iterator
  0048c	8b 4d 98	 mov	 ecx, DWORD PTR $T187039[ebp]
  0048f	83 c9 01	 or	 ecx, 1
  00492	89 4d 98	 mov	 DWORD PTR $T187039[ebp], ecx
  00495	8b 45 08	 mov	 eax, DWORD PTR ___$ReturnUdt$[ebp]
$LN19@Insert:

; 1166 : 		}

  00498	8b 4d f4	 mov	 ecx, DWORD PTR __$EHRec$[ebp]
  0049b	64 89 0d 00 00
	00 00		 mov	 DWORD PTR fs:0, ecx
  004a2	59		 pop	 ecx
  004a3	5f		 pop	 edi
  004a4	5e		 pop	 esi
  004a5	83 c4 68	 add	 esp, 104		; 00000068H
  004a8	3b ec		 cmp	 ebp, esp
  004aa	e8 00 00 00 00	 call	 __RTC_CheckEsp
  004af	8b e5		 mov	 esp, ebp
  004b1	5d		 pop	 ebp
  004b2	c2 10 00	 ret	 16			; 00000010H
_TEXT	ENDS
;	COMDAT text$x
text$x	SEGMENT
__unwindfunclet$?_Insert@?$_Tree@V?$_Tset_traits@KU?$less@K@std@@V?$KAllocator@K@KMemory@@$0A@@std@@@std@@IAE?AViterator@12@_NPAU_Node@?$_Tree_nod@V?$_Tset_traits@KU?$less@K@std@@V?$KAllocator@K@KMemory@@$0A@@std@@@2@ABK@Z$0:
  00000	8b f4		 mov	 esi, esp
  00002	8d 4d 9c	 lea	 ecx, DWORD PTR $T187035[ebp]
  00005	ff 15 00 00 00
	00		 call	 DWORD PTR __imp_??1?$basic_string@DU?$char_traits@D@std@@V?$allocator@D@2@@std@@QAE@XZ
  0000b	3b f4		 cmp	 esi, esp
  0000d	e9 00 00 00 00	 jmp	 __RTC_CheckEsp
__ehhandler$?_Insert@?$_Tree@V?$_Tset_traits@KU?$less@K@std@@V?$KAllocator@K@KMemory@@$0A@@std@@@std@@IAE?AViterator@12@_NPAU_Node@?$_Tree_nod@V?$_Tset_traits@KU?$less@K@std@@V?$KAllocator@K@KMemory@@$0A@@std@@@2@ABK@Z:
  00012	8b 54 24 08	 mov	 edx, DWORD PTR [esp+8]
  00016	8d 42 0c	 lea	 eax, DWORD PTR [edx+12]
  00019	8b 4a 98	 mov	 ecx, DWORD PTR [edx-104]
  0001c	33 c8		 xor	 ecx, eax
  0001e	e8 00 00 00 00	 call	 @__security_check_cookie@4
  00023	b8 00 00 00 00	 mov	 eax, OFFSET __ehfuncinfo$?_Insert@?$_Tree@V?$_Tset_traits@KU?$less@K@std@@V?$KAllocator@K@KMemory@@$0A@@std@@@std@@IAE?AViterator@12@_NPAU_Node@?$_Tree_nod@V?$_Tset_traits@KU?$less@K@std@@V?$KAllocator@K@KMemory@@$0A@@std@@@2@ABK@Z
  00028	e9 00 00 00 00	 jmp	 ___CxxFrameHandler3
text$x	ENDS
?_Insert@?$_Tree@V?$_Tset_traits@KU?$less@K@std@@V?$KAllocator@K@KMemory@@$0A@@std@@@std@@IAE?AViterator@12@_NPAU_Node@?$_Tree_nod@V?$_Tset_traits@KU?$less@K@std@@V?$KAllocator@K@KMemory@@$0A@@std@@@2@ABK@Z ENDP ; std::_Tree<std::_Tset_traits<unsigned long,std::less<unsigned long>,KMemory::KAllocator<unsigned long>,0> >::_Insert
PUBLIC	??_7length_error@std@@6B@			; std::length_error::`vftable'
PUBLIC	??0logic_error@std@@QAE@ABV?$basic_string@DU?$char_traits@D@std@@V?$allocator@D@2@@1@@Z ; std::logic_error::logic_error
PUBLIC	??_R4length_error@std@@6B@			; std::length_error::`RTTI Complete Object Locator'
PUBLIC	??_R3length_error@std@@8			; std::length_error::`RTTI Class Hierarchy Descriptor'
PUBLIC	??_R2length_error@std@@8			; std::length_error::`RTTI Base Class Array'
PUBLIC	??_R1A@?0A@EA@length_error@std@@8		; std::length_error::`RTTI Base Class Descriptor at (0,-1,0,64)'
PUBLIC	??_R1A@?0A@EA@logic_error@std@@8		; std::logic_error::`RTTI Base Class Descriptor at (0,-1,0,64)'
PUBLIC	??_R3logic_error@std@@8				; std::logic_error::`RTTI Class Hierarchy Descriptor'
PUBLIC	??_R2logic_error@std@@8				; std::logic_error::`RTTI Base Class Array'
PUBLIC	??_R1A@?0A@EA@exception@std@@8			; std::exception::`RTTI Base Class Descriptor at (0,-1,0,64)'
PUBLIC	??_R3exception@std@@8				; std::exception::`RTTI Class Hierarchy Descriptor'
PUBLIC	??_R2exception@std@@8				; std::exception::`RTTI Base Class Array'
PUBLIC	?what@logic_error@std@@UBEPBDXZ			; std::logic_error::what
EXTRN	??_Elength_error@std@@UAEPAXI@Z:PROC		; std::length_error::`vector deleting destructor'
;	COMDAT ??_R2exception@std@@8
; File d:\program files\microsoft visual studio 8\vc\include\stdexcept
rdata$r	SEGMENT
??_R2exception@std@@8 DD FLAT:??_R1A@?0A@EA@exception@std@@8 ; std::exception::`RTTI Base Class Array'
rdata$r	ENDS
;	COMDAT ??_R3exception@std@@8
rdata$r	SEGMENT
??_R3exception@std@@8 DD 00H				; std::exception::`RTTI Class Hierarchy Descriptor'
	DD	00H
	DD	01H
	DD	FLAT:??_R2exception@std@@8
rdata$r	ENDS
;	COMDAT ??_R1A@?0A@EA@exception@std@@8
rdata$r	SEGMENT
??_R1A@?0A@EA@exception@std@@8 DD FLAT:??_R0?AVexception@std@@@8 ; std::exception::`RTTI Base Class Descriptor at (0,-1,0,64)'
	DD	00H
	DD	00H
	DD	0ffffffffH
	DD	00H
	DD	040H
	DD	FLAT:??_R3exception@std@@8
rdata$r	ENDS
;	COMDAT ??_R2logic_error@std@@8
rdata$r	SEGMENT
??_R2logic_error@std@@8 DD FLAT:??_R1A@?0A@EA@logic_error@std@@8 ; std::logic_error::`RTTI Base Class Array'
	DD	FLAT:??_R1A@?0A@EA@exception@std@@8
rdata$r	ENDS
;	COMDAT ??_R3logic_error@std@@8
rdata$r	SEGMENT
??_R3logic_error@std@@8 DD 00H				; std::logic_error::`RTTI Class Hierarchy Descriptor'
	DD	00H
	DD	02H
	DD	FLAT:??_R2logic_error@std@@8
rdata$r	ENDS
;	COMDAT ??_R1A@?0A@EA@logic_error@std@@8
rdata$r	SEGMENT
??_R1A@?0A@EA@logic_error@std@@8 DD FLAT:??_R0?AVlogic_error@std@@@8 ; std::logic_error::`RTTI Base Class Descriptor at (0,-1,0,64)'
	DD	01H
	DD	00H
	DD	0ffffffffH
	DD	00H
	DD	040H
	DD	FLAT:??_R3logic_error@std@@8
rdata$r	ENDS
;	COMDAT ??_R1A@?0A@EA@length_error@std@@8
rdata$r	SEGMENT
??_R1A@?0A@EA@length_error@std@@8 DD FLAT:??_R0?AVlength_error@std@@@8 ; std::length_error::`RTTI Base Class Descriptor at (0,-1,0,64)'
	DD	02H
	DD	00H
	DD	0ffffffffH
	DD	00H
	DD	040H
	DD	FLAT:??_R3length_error@std@@8
rdata$r	ENDS
;	COMDAT ??_R2length_error@std@@8
rdata$r	SEGMENT
??_R2length_error@std@@8 DD FLAT:??_R1A@?0A@EA@length_error@std@@8 ; std::length_error::`RTTI Base Class Array'
	DD	FLAT:??_R1A@?0A@EA@logic_error@std@@8
	DD	FLAT:??_R1A@?0A@EA@exception@std@@8
rdata$r	ENDS
;	COMDAT ??_R3length_error@std@@8
rdata$r	SEGMENT
??_R3length_error@std@@8 DD 00H				; std::length_error::`RTTI Class Hierarchy Descriptor'
	DD	00H
	DD	03H
	DD	FLAT:??_R2length_error@std@@8
rdata$r	ENDS
;	COMDAT ??_R4length_error@std@@6B@
rdata$r	SEGMENT
??_R4length_error@std@@6B@ DD 00H			; std::length_error::`RTTI Complete Object Locator'
	DD	00H
	DD	00H
	DD	FLAT:??_R0?AVlength_error@std@@@8
	DD	FLAT:??_R3length_error@std@@8
rdata$r	ENDS
;	COMDAT ??_7length_error@std@@6B@
CONST	SEGMENT
??_7length_error@std@@6B@ DD FLAT:??_R4length_error@std@@6B@ ; std::length_error::`vftable'
	DD	FLAT:??_Elength_error@std@@UAEPAXI@Z
	DD	FLAT:?what@logic_error@std@@UBEPBDXZ
; Function compile flags: /Odtp /RTCsu
CONST	ENDS
;	COMDAT ??0length_error@std@@QAE@ABV?$basic_string@DU?$char_traits@D@std@@V?$allocator@D@2@@1@@Z
_TEXT	SEGMENT
_this$ = -4						; size = 4
__Message$ = 8						; size = 4
??0length_error@std@@QAE@ABV?$basic_string@DU?$char_traits@D@std@@V?$allocator@D@2@@1@@Z PROC ; std::length_error::length_error, COMDAT
; _this$ = ecx

; 106  : 		{	// construct from message string

  00000	55		 push	 ebp
  00001	8b ec		 mov	 ebp, esp
  00003	51		 push	 ecx
  00004	c7 45 fc cc cc
	cc cc		 mov	 DWORD PTR [ebp-4], -858993460 ; ccccccccH
  0000b	89 4d fc	 mov	 DWORD PTR _this$[ebp], ecx
  0000e	8b 45 08	 mov	 eax, DWORD PTR __Message$[ebp]
  00011	50		 push	 eax
  00012	8b 4d fc	 mov	 ecx, DWORD PTR _this$[ebp]
  00015	e8 00 00 00 00	 call	 ??0logic_error@std@@QAE@ABV?$basic_string@DU?$char_traits@D@std@@V?$allocator@D@2@@1@@Z ; std::logic_error::logic_error
  0001a	8b 4d fc	 mov	 ecx, DWORD PTR _this$[ebp]
  0001d	c7 01 00 00 00
	00		 mov	 DWORD PTR [ecx], OFFSET ??_7length_error@std@@6B@

; 107  : 		}

  00023	8b 45 fc	 mov	 eax, DWORD PTR _this$[ebp]
  00026	83 c4 04	 add	 esp, 4
  00029	3b ec		 cmp	 ebp, esp
  0002b	e8 00 00 00 00	 call	 __RTC_CheckEsp
  00030	8b e5		 mov	 esp, ebp
  00032	5d		 pop	 ebp
  00033	c2 04 00	 ret	 4
??0length_error@std@@QAE@ABV?$basic_string@DU?$char_traits@D@std@@V?$allocator@D@2@@1@@Z ENDP ; std::length_error::length_error
_TEXT	ENDS
PUBLIC	??_7logic_error@std@@6B@			; std::logic_error::`vftable'
PUBLIC	??_R4logic_error@std@@6B@			; std::logic_error::`RTTI Complete Object Locator'
EXTRN	__imp_??1exception@std@@UAE@XZ:PROC
EXTRN	__imp_??0?$basic_string@DU?$char_traits@D@std@@V?$allocator@D@2@@std@@QAE@ABV01@@Z:PROC
EXTRN	__imp_??0exception@std@@QAE@XZ:PROC
EXTRN	??_Elogic_error@std@@UAEPAXI@Z:PROC		; std::logic_error::`vector deleting destructor'
;	COMDAT ??_R4logic_error@std@@6B@
rdata$r	SEGMENT
??_R4logic_error@std@@6B@ DD 00H			; std::logic_error::`RTTI Complete Object Locator'
	DD	00H
	DD	00H
	DD	FLAT:??_R0?AVlogic_error@std@@@8
	DD	FLAT:??_R3logic_error@std@@8
rdata$r	ENDS
;	COMDAT ??_7logic_error@std@@6B@
CONST	SEGMENT
??_7logic_error@std@@6B@ DD FLAT:??_R4logic_error@std@@6B@ ; std::logic_error::`vftable'
	DD	FLAT:??_Elogic_error@std@@UAEPAXI@Z
	DD	FLAT:?what@logic_error@std@@UBEPBDXZ
CONST	ENDS
;	COMDAT xdata$x
xdata$x	SEGMENT
__unwindtable$??0logic_error@std@@QAE@ABV?$basic_string@DU?$char_traits@D@std@@V?$allocator@D@2@@1@@Z DD 0ffffffffH
	DD	FLAT:__unwindfunclet$??0logic_error@std@@QAE@ABV?$basic_string@DU?$char_traits@D@std@@V?$allocator@D@2@@1@@Z$0
__ehfuncinfo$??0logic_error@std@@QAE@ABV?$basic_string@DU?$char_traits@D@std@@V?$allocator@D@2@@1@@Z DD 019930522H
	DD	01H
	DD	FLAT:__unwindtable$??0logic_error@std@@QAE@ABV?$basic_string@DU?$char_traits@D@std@@V?$allocator@D@2@@1@@Z
	DD	2 DUP(00H)
	DD	2 DUP(00H)
	DD	00H
	DD	01H
; Function compile flags: /Odtp /RTCsu
xdata$x	ENDS
;	COMDAT ??0logic_error@std@@QAE@ABV?$basic_string@DU?$char_traits@D@std@@V?$allocator@D@2@@1@@Z
_TEXT	SEGMENT
_this$ = -16						; size = 4
__$EHRec$ = -12						; size = 12
__Message$ = 8						; size = 4
??0logic_error@std@@QAE@ABV?$basic_string@DU?$char_traits@D@std@@V?$allocator@D@2@@1@@Z PROC ; std::logic_error::logic_error, COMDAT
; _this$ = ecx

; 27   : 		{	// construct from message string

  00000	55		 push	 ebp
  00001	8b ec		 mov	 ebp, esp
  00003	6a ff		 push	 -1
  00005	68 00 00 00 00	 push	 __ehhandler$??0logic_error@std@@QAE@ABV?$basic_string@DU?$char_traits@D@std@@V?$allocator@D@2@@1@@Z
  0000a	64 a1 00 00 00
	00		 mov	 eax, DWORD PTR fs:0
  00010	50		 push	 eax
  00011	51		 push	 ecx
  00012	56		 push	 esi
  00013	c7 45 f0 cc cc
	cc cc		 mov	 DWORD PTR [ebp-16], -858993460 ; ccccccccH
  0001a	a1 00 00 00 00	 mov	 eax, DWORD PTR ___security_cookie
  0001f	33 c5		 xor	 eax, ebp
  00021	50		 push	 eax
  00022	8d 45 f4	 lea	 eax, DWORD PTR __$EHRec$[ebp]
  00025	64 a3 00 00 00
	00		 mov	 DWORD PTR fs:0, eax
  0002b	89 4d f0	 mov	 DWORD PTR _this$[ebp], ecx
  0002e	8b f4		 mov	 esi, esp
  00030	8b 4d f0	 mov	 ecx, DWORD PTR _this$[ebp]
  00033	ff 15 00 00 00
	00		 call	 DWORD PTR __imp_??0exception@std@@QAE@XZ
  00039	3b f4		 cmp	 esi, esp
  0003b	e8 00 00 00 00	 call	 __RTC_CheckEsp
  00040	c7 45 fc 00 00
	00 00		 mov	 DWORD PTR __$EHRec$[ebp+8], 0
  00047	8b 45 f0	 mov	 eax, DWORD PTR _this$[ebp]
  0004a	c7 00 00 00 00
	00		 mov	 DWORD PTR [eax], OFFSET ??_7logic_error@std@@6B@
  00050	8b f4		 mov	 esi, esp
  00052	8b 4d 08	 mov	 ecx, DWORD PTR __Message$[ebp]
  00055	51		 push	 ecx
  00056	8b 4d f0	 mov	 ecx, DWORD PTR _this$[ebp]
  00059	83 c1 0c	 add	 ecx, 12			; 0000000cH
  0005c	ff 15 00 00 00
	00		 call	 DWORD PTR __imp_??0?$basic_string@DU?$char_traits@D@std@@V?$allocator@D@2@@std@@QAE@ABV01@@Z
  00062	3b f4		 cmp	 esi, esp
  00064	e8 00 00 00 00	 call	 __RTC_CheckEsp

; 28   : 		}

  00069	c7 45 fc ff ff
	ff ff		 mov	 DWORD PTR __$EHRec$[ebp+8], -1
  00070	8b 45 f0	 mov	 eax, DWORD PTR _this$[ebp]
  00073	8b 4d f4	 mov	 ecx, DWORD PTR __$EHRec$[ebp]
  00076	64 89 0d 00 00
	00 00		 mov	 DWORD PTR fs:0, ecx
  0007d	59		 pop	 ecx
  0007e	5e		 pop	 esi
  0007f	83 c4 10	 add	 esp, 16			; 00000010H
  00082	3b ec		 cmp	 ebp, esp
  00084	e8 00 00 00 00	 call	 __RTC_CheckEsp
  00089	8b e5		 mov	 esp, ebp
  0008b	5d		 pop	 ebp
  0008c	c2 04 00	 ret	 4
_TEXT	ENDS
;	COMDAT text$x
text$x	SEGMENT
__unwindfunclet$??0logic_error@std@@QAE@ABV?$basic_string@DU?$char_traits@D@std@@V?$allocator@D@2@@1@@Z$0:
  00000	8b f4		 mov	 esi, esp
  00002	8b 4d f0	 mov	 ecx, DWORD PTR _this$[ebp]
  00005	ff 15 00 00 00
	00		 call	 DWORD PTR __imp_??1exception@std@@UAE@XZ
  0000b	3b f4		 cmp	 esi, esp
  0000d	e9 00 00 00 00	 jmp	 __RTC_CheckEsp
__ehhandler$??0logic_error@std@@QAE@ABV?$basic_string@DU?$char_traits@D@std@@V?$allocator@D@2@@1@@Z:
  00012	8b 54 24 08	 mov	 edx, DWORD PTR [esp+8]
  00016	8d 42 0c	 lea	 eax, DWORD PTR [edx+12]
  00019	8b 4a f4	 mov	 ecx, DWORD PTR [edx-12]
  0001c	33 c8		 xor	 ecx, eax
  0001e	e8 00 00 00 00	 call	 @__security_check_cookie@4
  00023	b8 00 00 00 00	 mov	 eax, OFFSET __ehfuncinfo$??0logic_error@std@@QAE@ABV?$basic_string@DU?$char_traits@D@std@@V?$allocator@D@2@@1@@Z
  00028	e9 00 00 00 00	 jmp	 ___CxxFrameHandler3
text$x	ENDS
??0logic_error@std@@QAE@ABV?$basic_string@DU?$char_traits@D@std@@V?$allocator@D@2@@1@@Z ENDP ; std::logic_error::logic_error
EXTRN	__imp_?c_str@?$basic_string@DU?$char_traits@D@std@@V?$allocator@D@2@@std@@QBEPBDXZ:PROC
; Function compile flags: /Odtp /RTCsu
;	COMDAT ?what@logic_error@std@@UBEPBDXZ
_TEXT	SEGMENT
_this$ = -4						; size = 4
?what@logic_error@std@@UBEPBDXZ PROC			; std::logic_error::what, COMDAT
; _this$ = ecx

; 35   : 		{	// return pointer to message string

  00000	55		 push	 ebp
  00001	8b ec		 mov	 ebp, esp
  00003	51		 push	 ecx
  00004	56		 push	 esi
  00005	c7 45 fc cc cc
	cc cc		 mov	 DWORD PTR [ebp-4], -858993460 ; ccccccccH
  0000c	89 4d fc	 mov	 DWORD PTR _this$[ebp], ecx

; 36   : 		return (_Str.c_str());

  0000f	8b 4d fc	 mov	 ecx, DWORD PTR _this$[ebp]
  00012	83 c1 0c	 add	 ecx, 12			; 0000000cH
  00015	8b f4		 mov	 esi, esp
  00017	ff 15 00 00 00
	00		 call	 DWORD PTR __imp_?c_str@?$basic_string@DU?$char_traits@D@std@@V?$allocator@D@2@@std@@QBEPBDXZ
  0001d	3b f4		 cmp	 esi, esp
  0001f	e8 00 00 00 00	 call	 __RTC_CheckEsp

; 37   : 		}

  00024	5e		 pop	 esi
  00025	83 c4 04	 add	 esp, 4
  00028	3b ec		 cmp	 ebp, esp
  0002a	e8 00 00 00 00	 call	 __RTC_CheckEsp
  0002f	8b e5		 mov	 esp, ebp
  00031	5d		 pop	 ebp
  00032	c3		 ret	 0
?what@logic_error@std@@UBEPBDXZ ENDP			; std::logic_error::what
_TEXT	ENDS
PUBLIC	??1logic_error@std@@UAE@XZ			; std::logic_error::~logic_error
; Function compile flags: /Odtp /RTCsu
;	COMDAT ??_Glogic_error@std@@UAEPAXI@Z
_TEXT	SEGMENT
_this$ = -4						; size = 4
___flags$ = 8						; size = 4
??_Glogic_error@std@@UAEPAXI@Z PROC			; std::logic_error::`scalar deleting destructor', COMDAT
; _this$ = ecx
  00000	55		 push	 ebp
  00001	8b ec		 mov	 ebp, esp
  00003	51		 push	 ecx
  00004	c7 45 fc cc cc
	cc cc		 mov	 DWORD PTR [ebp-4], -858993460 ; ccccccccH
  0000b	89 4d fc	 mov	 DWORD PTR _this$[ebp], ecx
  0000e	8b 4d fc	 mov	 ecx, DWORD PTR _this$[ebp]
  00011	e8 00 00 00 00	 call	 ??1logic_error@std@@UAE@XZ ; std::logic_error::~logic_error
  00016	8b 45 08	 mov	 eax, DWORD PTR ___flags$[ebp]
  00019	83 e0 01	 and	 eax, 1
  0001c	74 0c		 je	 SHORT $LN1@scalar@2
  0001e	8b 4d fc	 mov	 ecx, DWORD PTR _this$[ebp]
  00021	51		 push	 ecx
  00022	e8 00 00 00 00	 call	 ??3@YAXPAX@Z		; operator delete
  00027	83 c4 04	 add	 esp, 4
$LN1@scalar@2:
  0002a	8b 45 fc	 mov	 eax, DWORD PTR _this$[ebp]
  0002d	83 c4 04	 add	 esp, 4
  00030	3b ec		 cmp	 ebp, esp
  00032	e8 00 00 00 00	 call	 __RTC_CheckEsp
  00037	8b e5		 mov	 esp, ebp
  00039	5d		 pop	 ebp
  0003a	c2 04 00	 ret	 4
??_Glogic_error@std@@UAEPAXI@Z ENDP			; std::logic_error::`scalar deleting destructor'
; Function compile flags: /Odtp /RTCsu
_TEXT	ENDS
;	COMDAT ??1logic_error@std@@UAE@XZ
_TEXT	SEGMENT
_this$ = -4						; size = 4
??1logic_error@std@@UAE@XZ PROC				; std::logic_error::~logic_error, COMDAT
; _this$ = ecx

; 31   : 		{	// destroy the object

  00000	55		 push	 ebp
  00001	8b ec		 mov	 ebp, esp
  00003	51		 push	 ecx
  00004	56		 push	 esi
  00005	c7 45 fc cc cc
	cc cc		 mov	 DWORD PTR [ebp-4], -858993460 ; ccccccccH
  0000c	89 4d fc	 mov	 DWORD PTR _this$[ebp], ecx
  0000f	8b 45 fc	 mov	 eax, DWORD PTR _this$[ebp]
  00012	c7 00 00 00 00
	00		 mov	 DWORD PTR [eax], OFFSET ??_7logic_error@std@@6B@

; 32   : 		}

  00018	8b 4d fc	 mov	 ecx, DWORD PTR _this$[ebp]
  0001b	83 c1 0c	 add	 ecx, 12			; 0000000cH
  0001e	8b f4		 mov	 esi, esp
  00020	ff 15 00 00 00
	00		 call	 DWORD PTR __imp_??1?$basic_string@DU?$char_traits@D@std@@V?$allocator@D@2@@std@@QAE@XZ
  00026	3b f4		 cmp	 esi, esp
  00028	e8 00 00 00 00	 call	 __RTC_CheckEsp
  0002d	8b f4		 mov	 esi, esp
  0002f	8b 4d fc	 mov	 ecx, DWORD PTR _this$[ebp]
  00032	ff 15 00 00 00
	00		 call	 DWORD PTR __imp_??1exception@std@@UAE@XZ
  00038	3b f4		 cmp	 esi, esp
  0003a	e8 00 00 00 00	 call	 __RTC_CheckEsp
  0003f	5e		 pop	 esi
  00040	83 c4 04	 add	 esp, 4
  00043	3b ec		 cmp	 ebp, esp
  00045	e8 00 00 00 00	 call	 __RTC_CheckEsp
  0004a	8b e5		 mov	 esp, ebp
  0004c	5d		 pop	 ebp
  0004d	c3		 ret	 0
??1logic_error@std@@UAE@XZ ENDP				; std::logic_error::~logic_error
; Function compile flags: /Odtp /RTCsu
_TEXT	ENDS
;	COMDAT ??1length_error@std@@UAE@XZ
_TEXT	SEGMENT
_this$ = -4						; size = 4
??1length_error@std@@UAE@XZ PROC			; std::length_error::~length_error, COMDAT
; _this$ = ecx

; 110  : 		{	// destroy the object

  00000	55		 push	 ebp
  00001	8b ec		 mov	 ebp, esp
  00003	51		 push	 ecx
  00004	c7 45 fc cc cc
	cc cc		 mov	 DWORD PTR [ebp-4], -858993460 ; ccccccccH
  0000b	89 4d fc	 mov	 DWORD PTR _this$[ebp], ecx
  0000e	8b 45 fc	 mov	 eax, DWORD PTR _this$[ebp]
  00011	c7 00 00 00 00
	00		 mov	 DWORD PTR [eax], OFFSET ??_7length_error@std@@6B@

; 111  : 		}

  00017	8b 4d fc	 mov	 ecx, DWORD PTR _this$[ebp]
  0001a	e8 00 00 00 00	 call	 ??1logic_error@std@@UAE@XZ ; std::logic_error::~logic_error
  0001f	83 c4 04	 add	 esp, 4
  00022	3b ec		 cmp	 ebp, esp
  00024	e8 00 00 00 00	 call	 __RTC_CheckEsp
  00029	8b e5		 mov	 esp, ebp
  0002b	5d		 pop	 ebp
  0002c	c3		 ret	 0
??1length_error@std@@UAE@XZ ENDP			; std::length_error::~length_error
; Function compile flags: /Odtp /RTCsu
_TEXT	ENDS
;	COMDAT ??_Glength_error@std@@UAEPAXI@Z
_TEXT	SEGMENT
_this$ = -4						; size = 4
___flags$ = 8						; size = 4
??_Glength_error@std@@UAEPAXI@Z PROC			; std::length_error::`scalar deleting destructor', COMDAT
; _this$ = ecx
  00000	55		 push	 ebp
  00001	8b ec		 mov	 ebp, esp
  00003	51		 push	 ecx
  00004	c7 45 fc cc cc
	cc cc		 mov	 DWORD PTR [ebp-4], -858993460 ; ccccccccH
  0000b	89 4d fc	 mov	 DWORD PTR _this$[ebp], ecx
  0000e	8b 4d fc	 mov	 ecx, DWORD PTR _this$[ebp]
  00011	e8 00 00 00 00	 call	 ??1length_error@std@@UAE@XZ ; std::length_error::~length_error
  00016	8b 45 08	 mov	 eax, DWORD PTR ___flags$[ebp]
  00019	83 e0 01	 and	 eax, 1
  0001c	74 0c		 je	 SHORT $LN1@scalar@3
  0001e	8b 4d fc	 mov	 ecx, DWORD PTR _this$[ebp]
  00021	51		 push	 ecx
  00022	e8 00 00 00 00	 call	 ??3@YAXPAX@Z		; operator delete
  00027	83 c4 04	 add	 esp, 4
$LN1@scalar@3:
  0002a	8b 45 fc	 mov	 eax, DWORD PTR _this$[ebp]
  0002d	83 c4 04	 add	 esp, 4
  00030	3b ec		 cmp	 ebp, esp
  00032	e8 00 00 00 00	 call	 __RTC_CheckEsp
  00037	8b e5		 mov	 esp, ebp
  00039	5d		 pop	 ebp
  0003a	c2 04 00	 ret	 4
??_Glength_error@std@@UAEPAXI@Z ENDP			; std::length_error::`scalar deleting destructor'
_TEXT	ENDS
EXTRN	__imp_??0exception@std@@QAE@ABV01@@Z:PROC
;	COMDAT xdata$x
xdata$x	SEGMENT
__unwindtable$??0logic_error@std@@QAE@ABV01@@Z DD 0ffffffffH
	DD	FLAT:__unwindfunclet$??0logic_error@std@@QAE@ABV01@@Z$0
__ehfuncinfo$??0logic_error@std@@QAE@ABV01@@Z DD 019930522H
	DD	01H
	DD	FLAT:__unwindtable$??0logic_error@std@@QAE@ABV01@@Z
	DD	2 DUP(00H)
	DD	2 DUP(00H)
	DD	00H
	DD	01H
; Function compile flags: /Odtp /RTCsu
xdata$x	ENDS
;	COMDAT ??0logic_error@std@@QAE@ABV01@@Z
_TEXT	SEGMENT
_this$ = -16						; size = 4
__$EHRec$ = -12						; size = 12
___that$ = 8						; size = 4
??0logic_error@std@@QAE@ABV01@@Z PROC			; std::logic_error::logic_error, COMDAT
; _this$ = ecx
  00000	55		 push	 ebp
  00001	8b ec		 mov	 ebp, esp
  00003	6a ff		 push	 -1
  00005	68 00 00 00 00	 push	 __ehhandler$??0logic_error@std@@QAE@ABV01@@Z
  0000a	64 a1 00 00 00
	00		 mov	 eax, DWORD PTR fs:0
  00010	50		 push	 eax
  00011	51		 push	 ecx
  00012	56		 push	 esi
  00013	c7 45 f0 cc cc
	cc cc		 mov	 DWORD PTR [ebp-16], -858993460 ; ccccccccH
  0001a	a1 00 00 00 00	 mov	 eax, DWORD PTR ___security_cookie
  0001f	33 c5		 xor	 eax, ebp
  00021	50		 push	 eax
  00022	8d 45 f4	 lea	 eax, DWORD PTR __$EHRec$[ebp]
  00025	64 a3 00 00 00
	00		 mov	 DWORD PTR fs:0, eax
  0002b	89 4d f0	 mov	 DWORD PTR _this$[ebp], ecx
  0002e	8b f4		 mov	 esi, esp
  00030	8b 45 08	 mov	 eax, DWORD PTR ___that$[ebp]
  00033	50		 push	 eax
  00034	8b 4d f0	 mov	 ecx, DWORD PTR _this$[ebp]
  00037	ff 15 00 00 00
	00		 call	 DWORD PTR __imp_??0exception@std@@QAE@ABV01@@Z
  0003d	3b f4		 cmp	 esi, esp
  0003f	e8 00 00 00 00	 call	 __RTC_CheckEsp
  00044	c7 45 fc 00 00
	00 00		 mov	 DWORD PTR __$EHRec$[ebp+8], 0
  0004b	8b 4d f0	 mov	 ecx, DWORD PTR _this$[ebp]
  0004e	c7 01 00 00 00
	00		 mov	 DWORD PTR [ecx], OFFSET ??_7logic_error@std@@6B@
  00054	8b 55 08	 mov	 edx, DWORD PTR ___that$[ebp]
  00057	83 c2 0c	 add	 edx, 12			; 0000000cH
  0005a	8b f4		 mov	 esi, esp
  0005c	52		 push	 edx
  0005d	8b 4d f0	 mov	 ecx, DWORD PTR _this$[ebp]
  00060	83 c1 0c	 add	 ecx, 12			; 0000000cH
  00063	ff 15 00 00 00
	00		 call	 DWORD PTR __imp_??0?$basic_string@DU?$char_traits@D@std@@V?$allocator@D@2@@std@@QAE@ABV01@@Z
  00069	3b f4		 cmp	 esi, esp
  0006b	e8 00 00 00 00	 call	 __RTC_CheckEsp
  00070	c7 45 fc ff ff
	ff ff		 mov	 DWORD PTR __$EHRec$[ebp+8], -1
  00077	8b 45 f0	 mov	 eax, DWORD PTR _this$[ebp]
  0007a	8b 4d f4	 mov	 ecx, DWORD PTR __$EHRec$[ebp]
  0007d	64 89 0d 00 00
	00 00		 mov	 DWORD PTR fs:0, ecx
  00084	59		 pop	 ecx
  00085	5e		 pop	 esi
  00086	83 c4 10	 add	 esp, 16			; 00000010H
  00089	3b ec		 cmp	 ebp, esp
  0008b	e8 00 00 00 00	 call	 __RTC_CheckEsp
  00090	8b e5		 mov	 esp, ebp
  00092	5d		 pop	 ebp
  00093	c2 04 00	 ret	 4
_TEXT	ENDS
;	COMDAT text$x
text$x	SEGMENT
__unwindfunclet$??0logic_error@std@@QAE@ABV01@@Z$0:
  00000	8b f4		 mov	 esi, esp
  00002	8b 4d f0	 mov	 ecx, DWORD PTR _this$[ebp]
  00005	ff 15 00 00 00
	00		 call	 DWORD PTR __imp_??1exception@std@@UAE@XZ
  0000b	3b f4		 cmp	 esi, esp
  0000d	e9 00 00 00 00	 jmp	 __RTC_CheckEsp
__ehhandler$??0logic_error@std@@QAE@ABV01@@Z:
  00012	8b 54 24 08	 mov	 edx, DWORD PTR [esp+8]
  00016	8d 42 0c	 lea	 eax, DWORD PTR [edx+12]
  00019	8b 4a f4	 mov	 ecx, DWORD PTR [edx-12]
  0001c	33 c8		 xor	 ecx, eax
  0001e	e8 00 00 00 00	 call	 @__security_check_cookie@4
  00023	b8 00 00 00 00	 mov	 eax, OFFSET __ehfuncinfo$??0logic_error@std@@QAE@ABV01@@Z
  00028	e9 00 00 00 00	 jmp	 ___CxxFrameHandler3
text$x	ENDS
??0logic_error@std@@QAE@ABV01@@Z ENDP			; std::logic_error::logic_error
; Function compile flags: /Odtp /RTCsu
; File d:\program files\microsoft visual studio 8\vc\include\xtree
;	COMDAT ?_Root@?$_Tree@V?$_Tset_traits@KU?$less@K@std@@V?$KAllocator@K@KMemory@@$0A@@std@@@std@@IBEAAPAU_Node@?$_Tree_nod@V?$_Tset_traits@KU?$less@K@std@@V?$KAllocator@K@KMemory@@$0A@@std@@@2@XZ
_TEXT	SEGMENT
_this$ = -4						; size = 4
?_Root@?$_Tree@V?$_Tset_traits@KU?$less@K@std@@V?$KAllocator@K@KMemory@@$0A@@std@@@std@@IBEAAPAU_Node@?$_Tree_nod@V?$_Tset_traits@KU?$less@K@std@@V?$KAllocator@K@KMemory@@$0A@@std@@@2@XZ PROC ; std::_Tree<std::_Tset_traits<unsigned long,std::less<unsigned long>,KMemory::KAllocator<unsigned long>,0> >::_Root, COMDAT
; _this$ = ecx

; 1230 : 		{	// return root of nonmutable tree

  00000	55		 push	 ebp
  00001	8b ec		 mov	 ebp, esp
  00003	51		 push	 ecx
  00004	c7 45 fc cc cc
	cc cc		 mov	 DWORD PTR [ebp-4], -858993460 ; ccccccccH
  0000b	89 4d fc	 mov	 DWORD PTR _this$[ebp], ecx

; 1231 : 		return (_Parent(_Myhead));

  0000e	8b 45 fc	 mov	 eax, DWORD PTR _this$[ebp]
  00011	8b 48 14	 mov	 ecx, DWORD PTR [eax+20]
  00014	51		 push	 ecx
  00015	e8 00 00 00 00	 call	 ?_Parent@?$_Tree@V?$_Tset_traits@KU?$less@K@std@@V?$KAllocator@K@KMemory@@$0A@@std@@@std@@KAAAPAU_Node@?$_Tree_nod@V?$_Tset_traits@KU?$less@K@std@@V?$KAllocator@K@KMemory@@$0A@@std@@@2@PAU342@@Z ; std::_Tree<std::_Tset_traits<unsigned long,std::less<unsigned long>,KMemory::KAllocator<unsigned long>,0> >::_Parent
  0001a	83 c4 04	 add	 esp, 4

; 1232 : 		}

  0001d	83 c4 04	 add	 esp, 4
  00020	3b ec		 cmp	 ebp, esp
  00022	e8 00 00 00 00	 call	 __RTC_CheckEsp
  00027	8b e5		 mov	 esp, ebp
  00029	5d		 pop	 ebp
  0002a	c3		 ret	 0
?_Root@?$_Tree@V?$_Tset_traits@KU?$less@K@std@@V?$KAllocator@K@KMemory@@$0A@@std@@@std@@IBEAAPAU_Node@?$_Tree_nod@V?$_Tset_traits@KU?$less@K@std@@V?$KAllocator@K@KMemory@@$0A@@std@@@2@XZ ENDP ; std::_Tree<std::_Tset_traits<unsigned long,std::less<unsigned long>,KMemory::KAllocator<unsigned long>,0> >::_Root
; Function compile flags: /Odtp /RTCsu
; File d:\program files\microsoft visual studio 8\vc\include\set
_TEXT	ENDS
;	COMDAT ?_Kfn@?$_Tset_traits@KU?$less@K@std@@V?$KAllocator@K@KMemory@@$0A@@std@@SAABKABK@Z
_TEXT	SEGMENT
__Val$ = 8						; size = 4
?_Kfn@?$_Tset_traits@KU?$less@K@std@@V?$KAllocator@K@KMemory@@$0A@@std@@SAABKABK@Z PROC ; std::_Tset_traits<unsigned long,std::less<unsigned long>,KMemory::KAllocator<unsigned long>,0>::_Kfn, COMDAT

; 56   : 		{	// extract key from element value

  00000	55		 push	 ebp
  00001	8b ec		 mov	 ebp, esp

; 57   : 		return (_Val);

  00003	8b 45 08	 mov	 eax, DWORD PTR __Val$[ebp]

; 58   : 		}

  00006	5d		 pop	 ebp
  00007	c3		 ret	 0
?_Kfn@?$_Tset_traits@KU?$less@K@std@@V?$KAllocator@K@KMemory@@$0A@@std@@SAABKABK@Z ENDP ; std::_Tset_traits<unsigned long,std::less<unsigned long>,KMemory::KAllocator<unsigned long>,0>::_Kfn
_TEXT	ENDS
PUBLIC	??0?$_Iterator@$00@?$list@UKViewObject@KPlayer@@V?$KAllocator@UKViewObject@KPlayer@@@KMemory@@@std@@QAE@PAU_Node@?$_List_nod@UKViewObject@KPlayer@@V?$KAllocator@UKViewObject@KPlayer@@@KMemory@@@2@PBV12@@Z ; std::list<KPlayer::KViewObject,KMemory::KAllocator<KPlayer::KViewObject> >::_Iterator<1>::_Iterator<1>
; Function compile flags: /Odtp /RTCsu
; File d:\program files\microsoft visual studio 8\vc\include\list
;	COMDAT ?end@?$list@UKViewObject@KPlayer@@V?$KAllocator@UKViewObject@KPlayer@@@KMemory@@@std@@QAE?AV?$_Iterator@$00@12@XZ
_TEXT	SEGMENT
$T187087 = -8						; size = 4
_this$ = -4						; size = 4
___$ReturnUdt$ = 8					; size = 4
?end@?$list@UKViewObject@KPlayer@@V?$KAllocator@UKViewObject@KPlayer@@@KMemory@@@std@@QAE?AV?$_Iterator@$00@12@XZ PROC ; std::list<KPlayer::KViewObject,KMemory::KAllocator<KPlayer::KViewObject> >::end, COMDAT
; _this$ = ecx

; 537  : 		{	// return iterator for end of mutable sequence

  00000	55		 push	 ebp
  00001	8b ec		 mov	 ebp, esp
  00003	83 ec 08	 sub	 esp, 8
  00006	c7 45 f8 cc cc
	cc cc		 mov	 DWORD PTR [ebp-8], -858993460 ; ccccccccH
  0000d	c7 45 fc cc cc
	cc cc		 mov	 DWORD PTR [ebp-4], -858993460 ; ccccccccH
  00014	89 4d fc	 mov	 DWORD PTR _this$[ebp], ecx
  00017	c7 45 f8 00 00
	00 00		 mov	 DWORD PTR $T187087[ebp], 0

; 538  : 		return (iterator(_Myhead, this));

  0001e	8b 45 fc	 mov	 eax, DWORD PTR _this$[ebp]
  00021	50		 push	 eax
  00022	8b 4d fc	 mov	 ecx, DWORD PTR _this$[ebp]
  00025	8b 51 10	 mov	 edx, DWORD PTR [ecx+16]
  00028	52		 push	 edx
  00029	8b 4d 08	 mov	 ecx, DWORD PTR ___$ReturnUdt$[ebp]
  0002c	e8 00 00 00 00	 call	 ??0?$_Iterator@$00@?$list@UKViewObject@KPlayer@@V?$KAllocator@UKViewObject@KPlayer@@@KMemory@@@std@@QAE@PAU_Node@?$_List_nod@UKViewObject@KPlayer@@V?$KAllocator@UKViewObject@KPlayer@@@KMemory@@@2@PBV12@@Z ; std::list<KPlayer::KViewObject,KMemory::KAllocator<KPlayer::KViewObject> >::_Iterator<1>::_Iterator<1>
  00031	8b 45 f8	 mov	 eax, DWORD PTR $T187087[ebp]
  00034	83 c8 01	 or	 eax, 1
  00037	89 45 f8	 mov	 DWORD PTR $T187087[ebp], eax
  0003a	8b 45 08	 mov	 eax, DWORD PTR ___$ReturnUdt$[ebp]

; 539  : 		}

  0003d	83 c4 08	 add	 esp, 8
  00040	3b ec		 cmp	 ebp, esp
  00042	e8 00 00 00 00	 call	 __RTC_CheckEsp
  00047	8b e5		 mov	 esp, ebp
  00049	5d		 pop	 ebp
  0004a	c2 04 00	 ret	 4
?end@?$list@UKViewObject@KPlayer@@V?$KAllocator@UKViewObject@KPlayer@@@KMemory@@@std@@QAE?AV?$_Iterator@$00@12@XZ ENDP ; std::list<KPlayer::KViewObject,KMemory::KAllocator<KPlayer::KViewObject> >::end
_TEXT	ENDS
PUBLIC	??1?$_Iterator@$00@?$list@UKViewObject@KPlayer@@V?$KAllocator@UKViewObject@KPlayer@@@KMemory@@@std@@QAE@XZ ; std::list<KPlayer::KViewObject,KMemory::KAllocator<KPlayer::KViewObject> >::_Iterator<1>::~_Iterator<1>
PUBLIC	?_Nextnode@?$list@UKViewObject@KPlayer@@V?$KAllocator@UKViewObject@KPlayer@@@KMemory@@@std@@KAAAPAU_Node@?$_List_nod@UKViewObject@KPlayer@@V?$KAllocator@UKViewObject@KPlayer@@@KMemory@@@2@PAU342@@Z ; std::list<KPlayer::KViewObject,KMemory::KAllocator<KPlayer::KViewObject> >::_Nextnode
PUBLIC	?_Incsize@?$list@UKViewObject@KPlayer@@V?$KAllocator@UKViewObject@KPlayer@@@KMemory@@@std@@IAEXI@Z ; std::list<KPlayer::KViewObject,KMemory::KAllocator<KPlayer::KViewObject> >::_Incsize
PUBLIC	?_Buynode@?$list@UKViewObject@KPlayer@@V?$KAllocator@UKViewObject@KPlayer@@@KMemory@@@std@@IAEPAU_Node@?$_List_nod@UKViewObject@KPlayer@@V?$KAllocator@UKViewObject@KPlayer@@@KMemory@@@2@PAU342@0ABUKViewObject@KPlayer@@@Z ; std::list<KPlayer::KViewObject,KMemory::KAllocator<KPlayer::KViewObject> >::_Buynode
PUBLIC	?_Prevnode@?$list@UKViewObject@KPlayer@@V?$KAllocator@UKViewObject@KPlayer@@@KMemory@@@std@@KAAAPAU_Node@?$_List_nod@UKViewObject@KPlayer@@V?$KAllocator@UKViewObject@KPlayer@@@KMemory@@@2@PAU342@@Z ; std::list<KPlayer::KViewObject,KMemory::KAllocator<KPlayer::KViewObject> >::_Prevnode
PUBLIC	?_Mynode@?$_Const_iterator@$00@?$list@UKViewObject@KPlayer@@V?$KAllocator@UKViewObject@KPlayer@@@KMemory@@@std@@QBEPAU_Node@?$_List_nod@UKViewObject@KPlayer@@V?$KAllocator@UKViewObject@KPlayer@@@KMemory@@@3@XZ ; std::list<KPlayer::KViewObject,KMemory::KAllocator<KPlayer::KViewObject> >::_Const_iterator<1>::_Mynode
PUBLIC	??_C@_1EG@BPNHNPIG@?$AAl?$AAi?$AAs?$AAt?$AA?5?$AAi?$AAn?$AAs?$AAe?$AAr?$AAt?$AA?5?$AAi?$AAt?$AAe?$AAr?$AAa?$AAt?$AAo?$AAr?$AA?5?$AAo?$AAu?$AAt?$AAs?$AAi?$AAd?$AAe?$AA?5?$AAr?$AAa?$AAn@ ; `string'
PUBLIC	??_C@_1HG@OGLIOFNC@?$AAD?$AA?3?$AA?2?$AAP?$AAr?$AAo?$AAg?$AAr?$AAa?$AAm?$AA?5?$AAF?$AAi?$AAl?$AAe?$AAs?$AA?2?$AAM?$AAi?$AAc?$AAr?$AAo?$AAs?$AAo?$AAf?$AAt?$AA?5?$AAV?$AAi?$AAs?$AAu?$AAa@ ; `string'
;	COMDAT ??_C@_1EG@BPNHNPIG@?$AAl?$AAi?$AAs?$AAt?$AA?5?$AAi?$AAn?$AAs?$AAe?$AAr?$AAt?$AA?5?$AAi?$AAt?$AAe?$AAr?$AAa?$AAt?$AAo?$AAr?$AA?5?$AAo?$AAu?$AAt?$AAs?$AAi?$AAd?$AAe?$AA?5?$AAr?$AAa?$AAn@
CONST	SEGMENT
??_C@_1EG@BPNHNPIG@?$AAl?$AAi?$AAs?$AAt?$AA?5?$AAi?$AAn?$AAs?$AAe?$AAr?$AAt?$AA?5?$AAi?$AAt?$AAe?$AAr?$AAa?$AAt?$AAo?$AAr?$AA?5?$AAo?$AAu?$AAt?$AAs?$AAi?$AAd?$AAe?$AA?5?$AAr?$AAa?$AAn@ DB 'l'
	DB	00H, 'i', 00H, 's', 00H, 't', 00H, ' ', 00H, 'i', 00H, 'n', 00H
	DB	's', 00H, 'e', 00H, 'r', 00H, 't', 00H, ' ', 00H, 'i', 00H, 't'
	DB	00H, 'e', 00H, 'r', 00H, 'a', 00H, 't', 00H, 'o', 00H, 'r', 00H
	DB	' ', 00H, 'o', 00H, 'u', 00H, 't', 00H, 's', 00H, 'i', 00H, 'd'
	DB	00H, 'e', 00H, ' ', 00H, 'r', 00H, 'a', 00H, 'n', 00H, 'g', 00H
	DB	'e', 00H, 00H, 00H				; `string'
CONST	ENDS
;	COMDAT ??_C@_1HG@OGLIOFNC@?$AAD?$AA?3?$AA?2?$AAP?$AAr?$AAo?$AAg?$AAr?$AAa?$AAm?$AA?5?$AAF?$AAi?$AAl?$AAe?$AAs?$AA?2?$AAM?$AAi?$AAc?$AAr?$AAo?$AAs?$AAo?$AAf?$AAt?$AA?5?$AAV?$AAi?$AAs?$AAu?$AAa@
CONST	SEGMENT
??_C@_1HG@OGLIOFNC@?$AAD?$AA?3?$AA?2?$AAP?$AAr?$AAo?$AAg?$AAr?$AAa?$AAm?$AA?5?$AAF?$AAi?$AAl?$AAe?$AAs?$AA?2?$AAM?$AAi?$AAc?$AAr?$AAo?$AAs?$AAo?$AAf?$AAt?$AA?5?$AAV?$AAi?$AAs?$AAu?$AAa@ DB 'D'
	DB	00H, ':', 00H, '\', 00H, 'P', 00H, 'r', 00H, 'o', 00H, 'g', 00H
	DB	'r', 00H, 'a', 00H, 'm', 00H, ' ', 00H, 'F', 00H, 'i', 00H, 'l'
	DB	00H, 'e', 00H, 's', 00H, '\', 00H, 'M', 00H, 'i', 00H, 'c', 00H
	DB	'r', 00H, 'o', 00H, 's', 00H, 'o', 00H, 'f', 00H, 't', 00H, ' '
	DB	00H, 'V', 00H, 'i', 00H, 's', 00H, 'u', 00H, 'a', 00H, 'l', 00H
	DB	' ', 00H, 'S', 00H, 't', 00H, 'u', 00H, 'd', 00H, 'i', 00H, 'o'
	DB	00H, ' ', 00H, '8', 00H, '\', 00H, 'V', 00H, 'C', 00H, '\', 00H
	DB	'i', 00H, 'n', 00H, 'c', 00H, 'l', 00H, 'u', 00H, 'd', 00H, 'e'
	DB	00H, '\', 00H, 'l', 00H, 'i', 00H, 's', 00H, 't', 00H, 00H, 00H ; `string'
CONST	ENDS
;	COMDAT xdata$x
xdata$x	SEGMENT
__unwindtable$?_Insert@?$list@UKViewObject@KPlayer@@V?$KAllocator@UKViewObject@KPlayer@@@KMemory@@@std@@QAEXV?$_Iterator@$00@12@ABUKViewObject@KPlayer@@@Z DD 0ffffffffH
	DD	FLAT:__unwindfunclet$?_Insert@?$list@UKViewObject@KPlayer@@V?$KAllocator@UKViewObject@KPlayer@@@KMemory@@@std@@QAEXV?$_Iterator@$00@12@ABUKViewObject@KPlayer@@@Z$0
__ehfuncinfo$?_Insert@?$list@UKViewObject@KPlayer@@V?$KAllocator@UKViewObject@KPlayer@@@KMemory@@@std@@QAEXV?$_Iterator@$00@12@ABUKViewObject@KPlayer@@@Z DD 019930522H
	DD	01H
	DD	FLAT:__unwindtable$?_Insert@?$list@UKViewObject@KPlayer@@V?$KAllocator@UKViewObject@KPlayer@@@KMemory@@@std@@QAEXV?$_Iterator@$00@12@ABUKViewObject@KPlayer@@@Z
	DD	2 DUP(00H)
	DD	2 DUP(00H)
	DD	00H
	DD	01H
; Function compile flags: /Odtp /RTCsu
xdata$x	ENDS
;	COMDAT ?_Insert@?$list@UKViewObject@KPlayer@@V?$KAllocator@UKViewObject@KPlayer@@@KMemory@@@std@@QAEXV?$_Iterator@$00@12@ABUKViewObject@KPlayer@@@Z
_TEXT	SEGMENT
__Newnode$ = -24					; size = 4
__Pnode$ = -20						; size = 4
_this$ = -16						; size = 4
__$EHRec$ = -12						; size = 12
__Where$ = 8						; size = 12
__Val$ = 20						; size = 4
?_Insert@?$list@UKViewObject@KPlayer@@V?$KAllocator@UKViewObject@KPlayer@@@KMemory@@@std@@QAEXV?$_Iterator@$00@12@ABUKViewObject@KPlayer@@@Z PROC ; std::list<KPlayer::KViewObject,KMemory::KAllocator<KPlayer::KViewObject> >::_Insert, COMDAT
; _this$ = ecx

; 694  : 		{	// insert _Val at _Where

  00000	55		 push	 ebp
  00001	8b ec		 mov	 ebp, esp
  00003	6a ff		 push	 -1
  00005	68 00 00 00 00	 push	 __ehhandler$?_Insert@?$list@UKViewObject@KPlayer@@V?$KAllocator@UKViewObject@KPlayer@@@KMemory@@@std@@QAEXV?$_Iterator@$00@12@ABUKViewObject@KPlayer@@@Z
  0000a	64 a1 00 00 00
	00		 mov	 eax, DWORD PTR fs:0
  00010	50		 push	 eax
  00011	83 ec 0c	 sub	 esp, 12			; 0000000cH
  00014	56		 push	 esi
  00015	c7 45 e8 cc cc
	cc cc		 mov	 DWORD PTR [ebp-24], -858993460 ; ccccccccH
  0001c	c7 45 ec cc cc
	cc cc		 mov	 DWORD PTR [ebp-20], -858993460 ; ccccccccH
  00023	c7 45 f0 cc cc
	cc cc		 mov	 DWORD PTR [ebp-16], -858993460 ; ccccccccH
  0002a	a1 00 00 00 00	 mov	 eax, DWORD PTR ___security_cookie
  0002f	33 c5		 xor	 eax, ebp
  00031	50		 push	 eax
  00032	8d 45 f4	 lea	 eax, DWORD PTR __$EHRec$[ebp]
  00035	64 a3 00 00 00
	00		 mov	 DWORD PTR fs:0, eax
  0003b	89 4d f0	 mov	 DWORD PTR _this$[ebp], ecx
  0003e	c7 45 fc 00 00
	00 00		 mov	 DWORD PTR __$EHRec$[ebp+8], 0

; 695  : 
; 696  :  #if _HAS_ITERATOR_DEBUGGING
; 697  : 		if (_Where._Mycont != this)

  00045	8b 45 08	 mov	 eax, DWORD PTR __Where$[ebp]
  00048	3b 45 f0	 cmp	 eax, DWORD PTR _this$[ebp]
  0004b	74 21		 je	 SHORT $LN1@Insert@2

; 698  : 			_DEBUG_ERROR("list insert iterator outside range");

  0004d	8b f4		 mov	 esi, esp
  0004f	68 ba 02 00 00	 push	 698			; 000002baH
  00054	68 00 00 00 00	 push	 OFFSET ??_C@_1HG@OGLIOFNC@?$AAD?$AA?3?$AA?2?$AAP?$AAr?$AAo?$AAg?$AAr?$AAa?$AAm?$AA?5?$AAF?$AAi?$AAl?$AAe?$AAs?$AA?2?$AAM?$AAi?$AAc?$AAr?$AAo?$AAs?$AAo?$AAf?$AAt?$AA?5?$AAV?$AAi?$AAs?$AAu?$AAa@
  00059	68 00 00 00 00	 push	 OFFSET ??_C@_1EG@BPNHNPIG@?$AAl?$AAi?$AAs?$AAt?$AA?5?$AAi?$AAn?$AAs?$AAe?$AAr?$AAt?$AA?5?$AAi?$AAt?$AAe?$AAr?$AAa?$AAt?$AAo?$AAr?$AA?5?$AAo?$AAu?$AAt?$AAs?$AAi?$AAd?$AAe?$AA?5?$AAr?$AAa?$AAn@
  0005e	ff 15 00 00 00
	00		 call	 DWORD PTR __imp_?_Debug_message@std@@YAXPB_W0I@Z
  00064	83 c4 0c	 add	 esp, 12			; 0000000cH
  00067	3b f4		 cmp	 esi, esp
  00069	e8 00 00 00 00	 call	 __RTC_CheckEsp
$LN1@Insert@2:

; 699  :  #endif /* _HAS_ITERATOR_DEBUGGING */
; 700  : 
; 701  : 		_Nodeptr _Pnode = _Where._Mynode();

  0006e	8d 4d 08	 lea	 ecx, DWORD PTR __Where$[ebp]
  00071	e8 00 00 00 00	 call	 ?_Mynode@?$_Const_iterator@$00@?$list@UKViewObject@KPlayer@@V?$KAllocator@UKViewObject@KPlayer@@@KMemory@@@std@@QBEPAU_Node@?$_List_nod@UKViewObject@KPlayer@@V?$KAllocator@UKViewObject@KPlayer@@@KMemory@@@3@XZ ; std::list<KPlayer::KViewObject,KMemory::KAllocator<KPlayer::KViewObject> >::_Const_iterator<1>::_Mynode
  00076	89 45 ec	 mov	 DWORD PTR __Pnode$[ebp], eax

; 702  : 		_Nodeptr _Newnode = _Buynode(_Pnode, _Prevnode(_Pnode), _Val);

  00079	8b 4d 14	 mov	 ecx, DWORD PTR __Val$[ebp]
  0007c	51		 push	 ecx
  0007d	8b 55 ec	 mov	 edx, DWORD PTR __Pnode$[ebp]
  00080	52		 push	 edx
  00081	e8 00 00 00 00	 call	 ?_Prevnode@?$list@UKViewObject@KPlayer@@V?$KAllocator@UKViewObject@KPlayer@@@KMemory@@@std@@KAAAPAU_Node@?$_List_nod@UKViewObject@KPlayer@@V?$KAllocator@UKViewObject@KPlayer@@@KMemory@@@2@PAU342@@Z ; std::list<KPlayer::KViewObject,KMemory::KAllocator<KPlayer::KViewObject> >::_Prevnode
  00086	83 c4 04	 add	 esp, 4
  00089	8b 00		 mov	 eax, DWORD PTR [eax]
  0008b	50		 push	 eax
  0008c	8b 4d ec	 mov	 ecx, DWORD PTR __Pnode$[ebp]
  0008f	51		 push	 ecx
  00090	8b 4d f0	 mov	 ecx, DWORD PTR _this$[ebp]
  00093	e8 00 00 00 00	 call	 ?_Buynode@?$list@UKViewObject@KPlayer@@V?$KAllocator@UKViewObject@KPlayer@@@KMemory@@@std@@IAEPAU_Node@?$_List_nod@UKViewObject@KPlayer@@V?$KAllocator@UKViewObject@KPlayer@@@KMemory@@@2@PAU342@0ABUKViewObject@KPlayer@@@Z ; std::list<KPlayer::KViewObject,KMemory::KAllocator<KPlayer::KViewObject> >::_Buynode
  00098	89 45 e8	 mov	 DWORD PTR __Newnode$[ebp], eax

; 703  : 		_Incsize(1);

  0009b	6a 01		 push	 1
  0009d	8b 4d f0	 mov	 ecx, DWORD PTR _this$[ebp]
  000a0	e8 00 00 00 00	 call	 ?_Incsize@?$list@UKViewObject@KPlayer@@V?$KAllocator@UKViewObject@KPlayer@@@KMemory@@@std@@IAEXI@Z ; std::list<KPlayer::KViewObject,KMemory::KAllocator<KPlayer::KViewObject> >::_Incsize

; 704  : 		_Prevnode(_Pnode) = _Newnode;

  000a5	8b 55 ec	 mov	 edx, DWORD PTR __Pnode$[ebp]
  000a8	52		 push	 edx
  000a9	e8 00 00 00 00	 call	 ?_Prevnode@?$list@UKViewObject@KPlayer@@V?$KAllocator@UKViewObject@KPlayer@@@KMemory@@@std@@KAAAPAU_Node@?$_List_nod@UKViewObject@KPlayer@@V?$KAllocator@UKViewObject@KPlayer@@@KMemory@@@2@PAU342@@Z ; std::list<KPlayer::KViewObject,KMemory::KAllocator<KPlayer::KViewObject> >::_Prevnode
  000ae	83 c4 04	 add	 esp, 4
  000b1	8b 4d e8	 mov	 ecx, DWORD PTR __Newnode$[ebp]
  000b4	89 08		 mov	 DWORD PTR [eax], ecx

; 705  : 		_Nextnode(_Prevnode(_Newnode)) = _Newnode;

  000b6	8b 55 e8	 mov	 edx, DWORD PTR __Newnode$[ebp]
  000b9	52		 push	 edx
  000ba	e8 00 00 00 00	 call	 ?_Prevnode@?$list@UKViewObject@KPlayer@@V?$KAllocator@UKViewObject@KPlayer@@@KMemory@@@std@@KAAAPAU_Node@?$_List_nod@UKViewObject@KPlayer@@V?$KAllocator@UKViewObject@KPlayer@@@KMemory@@@2@PAU342@@Z ; std::list<KPlayer::KViewObject,KMemory::KAllocator<KPlayer::KViewObject> >::_Prevnode
  000bf	83 c4 04	 add	 esp, 4
  000c2	8b 00		 mov	 eax, DWORD PTR [eax]
  000c4	50		 push	 eax
  000c5	e8 00 00 00 00	 call	 ?_Nextnode@?$list@UKViewObject@KPlayer@@V?$KAllocator@UKViewObject@KPlayer@@@KMemory@@@std@@KAAAPAU_Node@?$_List_nod@UKViewObject@KPlayer@@V?$KAllocator@UKViewObject@KPlayer@@@KMemory@@@2@PAU342@@Z ; std::list<KPlayer::KViewObject,KMemory::KAllocator<KPlayer::KViewObject> >::_Nextnode
  000ca	83 c4 04	 add	 esp, 4
  000cd	8b 4d e8	 mov	 ecx, DWORD PTR __Newnode$[ebp]
  000d0	89 08		 mov	 DWORD PTR [eax], ecx

; 706  : 		}

  000d2	c7 45 fc ff ff
	ff ff		 mov	 DWORD PTR __$EHRec$[ebp+8], -1
  000d9	8d 4d 08	 lea	 ecx, DWORD PTR __Where$[ebp]
  000dc	e8 00 00 00 00	 call	 ??1?$_Iterator@$00@?$list@UKViewObject@KPlayer@@V?$KAllocator@UKViewObject@KPlayer@@@KMemory@@@std@@QAE@XZ
  000e1	8b 4d f4	 mov	 ecx, DWORD PTR __$EHRec$[ebp]
  000e4	64 89 0d 00 00
	00 00		 mov	 DWORD PTR fs:0, ecx
  000eb	59		 pop	 ecx
  000ec	5e		 pop	 esi
  000ed	83 c4 18	 add	 esp, 24			; 00000018H
  000f0	3b ec		 cmp	 ebp, esp
  000f2	e8 00 00 00 00	 call	 __RTC_CheckEsp
  000f7	8b e5		 mov	 esp, ebp
  000f9	5d		 pop	 ebp
  000fa	c2 10 00	 ret	 16			; 00000010H
_TEXT	ENDS
;	COMDAT text$x
text$x	SEGMENT
__unwindfunclet$?_Insert@?$list@UKViewObject@KPlayer@@V?$KAllocator@UKViewObject@KPlayer@@@KMemory@@@std@@QAEXV?$_Iterator@$00@12@ABUKViewObject@KPlayer@@@Z$0:
  00000	8d 4d 08	 lea	 ecx, DWORD PTR __Where$[ebp]
  00003	e9 00 00 00 00	 jmp	 ??1?$_Iterator@$00@?$list@UKViewObject@KPlayer@@V?$KAllocator@UKViewObject@KPlayer@@@KMemory@@@std@@QAE@XZ
__ehhandler$?_Insert@?$list@UKViewObject@KPlayer@@V?$KAllocator@UKViewObject@KPlayer@@@KMemory@@@std@@QAEXV?$_Iterator@$00@12@ABUKViewObject@KPlayer@@@Z:
  00008	8b 54 24 08	 mov	 edx, DWORD PTR [esp+8]
  0000c	8d 42 0c	 lea	 eax, DWORD PTR [edx+12]
  0000f	8b 4a ec	 mov	 ecx, DWORD PTR [edx-20]
  00012	33 c8		 xor	 ecx, eax
  00014	e8 00 00 00 00	 call	 @__security_check_cookie@4
  00019	b8 00 00 00 00	 mov	 eax, OFFSET __ehfuncinfo$?_Insert@?$list@UKViewObject@KPlayer@@V?$KAllocator@UKViewObject@KPlayer@@@KMemory@@@std@@QAEXV?$_Iterator@$00@12@ABUKViewObject@KPlayer@@@Z
  0001e	e9 00 00 00 00	 jmp	 ___CxxFrameHandler3
text$x	ENDS
?_Insert@?$list@UKViewObject@KPlayer@@V?$KAllocator@UKViewObject@KPlayer@@@KMemory@@@std@@QAEXV?$_Iterator@$00@12@ABUKViewObject@KPlayer@@@Z ENDP ; std::list<KPlayer::KViewObject,KMemory::KAllocator<KPlayer::KViewObject> >::_Insert
PUBLIC	??1?$_Const_iterator@$00@?$list@UKViewObject@KPlayer@@V?$KAllocator@UKViewObject@KPlayer@@@KMemory@@@std@@QAE@XZ ; std::list<KPlayer::KViewObject,KMemory::KAllocator<KPlayer::KViewObject> >::_Const_iterator<1>::~_Const_iterator<1>
; Function compile flags: /Odtp /RTCsu
;	COMDAT ??1?$_Iterator@$00@?$list@UKViewObject@KPlayer@@V?$KAllocator@UKViewObject@KPlayer@@@KMemory@@@std@@QAE@XZ
_TEXT	SEGMENT
_this$ = -4						; size = 4
??1?$_Iterator@$00@?$list@UKViewObject@KPlayer@@V?$KAllocator@UKViewObject@KPlayer@@@KMemory@@@std@@QAE@XZ PROC ; std::list<KPlayer::KViewObject,KMemory::KAllocator<KPlayer::KViewObject> >::_Iterator<1>::~_Iterator<1>, COMDAT
; _this$ = ecx
  00000	55		 push	 ebp
  00001	8b ec		 mov	 ebp, esp
  00003	51		 push	 ecx
  00004	c7 45 fc cc cc
	cc cc		 mov	 DWORD PTR [ebp-4], -858993460 ; ccccccccH
  0000b	89 4d fc	 mov	 DWORD PTR _this$[ebp], ecx
  0000e	8b 4d fc	 mov	 ecx, DWORD PTR _this$[ebp]
  00011	e8 00 00 00 00	 call	 ??1?$_Const_iterator@$00@?$list@UKViewObject@KPlayer@@V?$KAllocator@UKViewObject@KPlayer@@@KMemory@@@std@@QAE@XZ
  00016	83 c4 04	 add	 esp, 4
  00019	3b ec		 cmp	 ebp, esp
  0001b	e8 00 00 00 00	 call	 __RTC_CheckEsp
  00020	8b e5		 mov	 esp, ebp
  00022	5d		 pop	 ebp
  00023	c3		 ret	 0
??1?$_Iterator@$00@?$list@UKViewObject@KPlayer@@V?$KAllocator@UKViewObject@KPlayer@@@KMemory@@@std@@QAE@XZ ENDP ; std::list<KPlayer::KViewObject,KMemory::KAllocator<KPlayer::KViewObject> >::_Iterator<1>::~_Iterator<1>
_TEXT	ENDS
PUBLIC	??1?$_Bidit@UKViewObject@KPlayer@@HPBU12@ABU12@@std@@QAE@XZ ; std::_Bidit<KPlayer::KViewObject,int,KPlayer::KViewObject const *,KPlayer::KViewObject const &>::~_Bidit<KPlayer::KViewObject,int,KPlayer::KViewObject const *,KPlayer::KViewObject const &>
; Function compile flags: /Odtp /RTCsu
;	COMDAT ??1?$_Const_iterator@$00@?$list@UKViewObject@KPlayer@@V?$KAllocator@UKViewObject@KPlayer@@@KMemory@@@std@@QAE@XZ
_TEXT	SEGMENT
_this$ = -4						; size = 4
??1?$_Const_iterator@$00@?$list@UKViewObject@KPlayer@@V?$KAllocator@UKViewObject@KPlayer@@@KMemory@@@std@@QAE@XZ PROC ; std::list<KPlayer::KViewObject,KMemory::KAllocator<KPlayer::KViewObject> >::_Const_iterator<1>::~_Const_iterator<1>, COMDAT
; _this$ = ecx
  00000	55		 push	 ebp
  00001	8b ec		 mov	 ebp, esp
  00003	51		 push	 ecx
  00004	c7 45 fc cc cc
	cc cc		 mov	 DWORD PTR [ebp-4], -858993460 ; ccccccccH
  0000b	89 4d fc	 mov	 DWORD PTR _this$[ebp], ecx
  0000e	8b 4d fc	 mov	 ecx, DWORD PTR _this$[ebp]
  00011	e8 00 00 00 00	 call	 ??1?$_Bidit@UKViewObject@KPlayer@@HPBU12@ABU12@@std@@QAE@XZ
  00016	83 c4 04	 add	 esp, 4
  00019	3b ec		 cmp	 ebp, esp
  0001b	e8 00 00 00 00	 call	 __RTC_CheckEsp
  00020	8b e5		 mov	 esp, ebp
  00022	5d		 pop	 ebp
  00023	c3		 ret	 0
??1?$_Const_iterator@$00@?$list@UKViewObject@KPlayer@@V?$KAllocator@UKViewObject@KPlayer@@@KMemory@@@std@@QAE@XZ ENDP ; std::list<KPlayer::KViewObject,KMemory::KAllocator<KPlayer::KViewObject> >::_Const_iterator<1>::~_Const_iterator<1>
; Function compile flags: /Odtp /RTCsu
_TEXT	ENDS
;	COMDAT ??1?$_Bidit@UKViewObject@KPlayer@@HPBU12@ABU12@@std@@QAE@XZ
_TEXT	SEGMENT
_this$ = -4						; size = 4
??1?$_Bidit@UKViewObject@KPlayer@@HPBU12@ABU12@@std@@QAE@XZ PROC ; std::_Bidit<KPlayer::KViewObject,int,KPlayer::KViewObject const *,KPlayer::KViewObject const &>::~_Bidit<KPlayer::KViewObject,int,KPlayer::KViewObject const *,KPlayer::KViewObject const &>, COMDAT
; _this$ = ecx
  00000	55		 push	 ebp
  00001	8b ec		 mov	 ebp, esp
  00003	51		 push	 ecx
  00004	c7 45 fc cc cc
	cc cc		 mov	 DWORD PTR [ebp-4], -858993460 ; ccccccccH
  0000b	89 4d fc	 mov	 DWORD PTR _this$[ebp], ecx
  0000e	8b 4d fc	 mov	 ecx, DWORD PTR _this$[ebp]
  00011	e8 00 00 00 00	 call	 ??1_Iterator_base@std@@QAE@XZ ; std::_Iterator_base::~_Iterator_base
  00016	83 c4 04	 add	 esp, 4
  00019	3b ec		 cmp	 ebp, esp
  0001b	e8 00 00 00 00	 call	 __RTC_CheckEsp
  00020	8b e5		 mov	 esp, ebp
  00022	5d		 pop	 ebp
  00023	c3		 ret	 0
??1?$_Bidit@UKViewObject@KPlayer@@HPBU12@ABU12@@std@@QAE@XZ ENDP ; std::_Bidit<KPlayer::KViewObject,int,KPlayer::KViewObject const *,KPlayer::KViewObject const &>::~_Bidit<KPlayer::KViewObject,int,KPlayer::KViewObject const *,KPlayer::KViewObject const &>
_TEXT	ENDS
PUBLIC	??0const_iterator@?$_Tree@V?$_Tset_traits@KU?$less@K@std@@V?$KAllocator@K@KMemory@@$0A@@std@@@std@@QAE@XZ ; std::_Tree<std::_Tset_traits<unsigned long,std::less<unsigned long>,KMemory::KAllocator<unsigned long>,0> >::const_iterator::const_iterator
; Function compile flags: /Odtp /RTCsu
; File d:\program files\microsoft visual studio 8\vc\include\xtree
;	COMDAT ??0iterator@?$_Tree@V?$_Tset_traits@KU?$less@K@std@@V?$KAllocator@K@KMemory@@$0A@@std@@@std@@QAE@XZ
_TEXT	SEGMENT
_this$ = -4						; size = 4
??0iterator@?$_Tree@V?$_Tset_traits@KU?$less@K@std@@V?$KAllocator@K@KMemory@@$0A@@std@@@std@@QAE@XZ PROC ; std::_Tree<std::_Tset_traits<unsigned long,std::less<unsigned long>,KMemory::KAllocator<unsigned long>,0> >::iterator::iterator, COMDAT
; _this$ = ecx

; 420  : 		iterator()

  00000	55		 push	 ebp
  00001	8b ec		 mov	 ebp, esp
  00003	51		 push	 ecx
  00004	c7 45 fc cc cc
	cc cc		 mov	 DWORD PTR [ebp-4], -858993460 ; ccccccccH
  0000b	89 4d fc	 mov	 DWORD PTR _this$[ebp], ecx
  0000e	8b 4d fc	 mov	 ecx, DWORD PTR _this$[ebp]
  00011	e8 00 00 00 00	 call	 ??0const_iterator@?$_Tree@V?$_Tset_traits@KU?$less@K@std@@V?$KAllocator@K@KMemory@@$0A@@std@@@std@@QAE@XZ ; std::_Tree<std::_Tset_traits<unsigned long,std::less<unsigned long>,KMemory::KAllocator<unsigned long>,0> >::const_iterator::const_iterator

; 421  : 			{	// construct with null node pointer
; 422  : 			}

  00016	8b 45 fc	 mov	 eax, DWORD PTR _this$[ebp]
  00019	83 c4 04	 add	 esp, 4
  0001c	3b ec		 cmp	 ebp, esp
  0001e	e8 00 00 00 00	 call	 __RTC_CheckEsp
  00023	8b e5		 mov	 esp, ebp
  00025	5d		 pop	 ebp
  00026	c3		 ret	 0
??0iterator@?$_Tree@V?$_Tset_traits@KU?$less@K@std@@V?$KAllocator@K@KMemory@@$0A@@std@@@std@@QAE@XZ ENDP ; std::_Tree<std::_Tset_traits<unsigned long,std::less<unsigned long>,KMemory::KAllocator<unsigned long>,0> >::iterator::iterator
_TEXT	ENDS
PUBLIC	??0const_iterator@?$_Tree@V?$_Tset_traits@KU?$less@K@std@@V?$KAllocator@K@KMemory@@$0A@@std@@@std@@QAE@PAU_Node@?$_Tree_nod@V?$_Tset_traits@KU?$less@K@std@@V?$KAllocator@K@KMemory@@$0A@@std@@@2@PBV12@@Z ; std::_Tree<std::_Tset_traits<unsigned long,std::less<unsigned long>,KMemory::KAllocator<unsigned long>,0> >::const_iterator::const_iterator
; Function compile flags: /Odtp /RTCsu
;	COMDAT ??0iterator@?$_Tree@V?$_Tset_traits@KU?$less@K@std@@V?$KAllocator@K@KMemory@@$0A@@std@@@std@@QAE@PAU_Node@?$_Tree_nod@V?$_Tset_traits@KU?$less@K@std@@V?$KAllocator@K@KMemory@@$0A@@std@@@2@PBV12@@Z
_TEXT	SEGMENT
_this$ = -4						; size = 4
__Pnode$ = 8						; size = 4
__Plist$ = 12						; size = 4
??0iterator@?$_Tree@V?$_Tset_traits@KU?$less@K@std@@V?$KAllocator@K@KMemory@@$0A@@std@@@std@@QAE@PAU_Node@?$_Tree_nod@V?$_Tset_traits@KU?$less@K@std@@V?$KAllocator@K@KMemory@@$0A@@std@@@2@PBV12@@Z PROC ; std::_Tree<std::_Tset_traits<unsigned long,std::less<unsigned long>,KMemory::KAllocator<unsigned long>,0> >::iterator::iterator, COMDAT
; _this$ = ecx

; 429  : 			{	// construct with node pointer _Pnode

  00000	55		 push	 ebp
  00001	8b ec		 mov	 ebp, esp
  00003	51		 push	 ecx
  00004	c7 45 fc cc cc
	cc cc		 mov	 DWORD PTR [ebp-4], -858993460 ; ccccccccH
  0000b	89 4d fc	 mov	 DWORD PTR _this$[ebp], ecx
  0000e	8b 45 0c	 mov	 eax, DWORD PTR __Plist$[ebp]
  00011	50		 push	 eax
  00012	8b 4d 08	 mov	 ecx, DWORD PTR __Pnode$[ebp]
  00015	51		 push	 ecx
  00016	8b 4d fc	 mov	 ecx, DWORD PTR _this$[ebp]
  00019	e8 00 00 00 00	 call	 ??0const_iterator@?$_Tree@V?$_Tset_traits@KU?$less@K@std@@V?$KAllocator@K@KMemory@@$0A@@std@@@std@@QAE@PAU_Node@?$_Tree_nod@V?$_Tset_traits@KU?$less@K@std@@V?$KAllocator@K@KMemory@@$0A@@std@@@2@PBV12@@Z ; std::_Tree<std::_Tset_traits<unsigned long,std::less<unsigned long>,KMemory::KAllocator<unsigned long>,0> >::const_iterator::const_iterator

; 430  : 			}

  0001e	8b 45 fc	 mov	 eax, DWORD PTR _this$[ebp]
  00021	83 c4 04	 add	 esp, 4
  00024	3b ec		 cmp	 ebp, esp
  00026	e8 00 00 00 00	 call	 __RTC_CheckEsp
  0002b	8b e5		 mov	 esp, ebp
  0002d	5d		 pop	 ebp
  0002e	c2 08 00	 ret	 8
??0iterator@?$_Tree@V?$_Tset_traits@KU?$less@K@std@@V?$KAllocator@K@KMemory@@$0A@@std@@@std@@QAE@PAU_Node@?$_Tree_nod@V?$_Tset_traits@KU?$less@K@std@@V?$KAllocator@K@KMemory@@$0A@@std@@@2@PBV12@@Z ENDP ; std::_Tree<std::_Tset_traits<unsigned long,std::less<unsigned long>,KMemory::KAllocator<unsigned long>,0> >::iterator::iterator
_TEXT	ENDS
PUBLIC	??Fconst_iterator@?$_Tree@V?$_Tset_traits@KU?$less@K@std@@V?$KAllocator@K@KMemory@@$0A@@std@@@std@@QAEAAV012@XZ ; std::_Tree<std::_Tset_traits<unsigned long,std::less<unsigned long>,KMemory::KAllocator<unsigned long>,0> >::const_iterator::operator--
; Function compile flags: /Odtp /RTCsu
;	COMDAT ??Fiterator@?$_Tree@V?$_Tset_traits@KU?$less@K@std@@V?$KAllocator@K@KMemory@@$0A@@std@@@std@@QAEAAV012@XZ
_TEXT	SEGMENT
_this$ = -4						; size = 4
??Fiterator@?$_Tree@V?$_Tset_traits@KU?$less@K@std@@V?$KAllocator@K@KMemory@@$0A@@std@@@std@@QAEAAV012@XZ PROC ; std::_Tree<std::_Tset_traits<unsigned long,std::less<unsigned long>,KMemory::KAllocator<unsigned long>,0> >::iterator::operator--, COMDAT
; _this$ = ecx

; 473  : 			{	// predecrement

  00000	55		 push	 ebp
  00001	8b ec		 mov	 ebp, esp
  00003	51		 push	 ecx
  00004	c7 45 fc cc cc
	cc cc		 mov	 DWORD PTR [ebp-4], -858993460 ; ccccccccH
  0000b	89 4d fc	 mov	 DWORD PTR _this$[ebp], ecx

; 474  : 			--(*(const_iterator *)this);

  0000e	8b 4d fc	 mov	 ecx, DWORD PTR _this$[ebp]
  00011	e8 00 00 00 00	 call	 ??Fconst_iterator@?$_Tree@V?$_Tset_traits@KU?$less@K@std@@V?$KAllocator@K@KMemory@@$0A@@std@@@std@@QAEAAV012@XZ ; std::_Tree<std::_Tset_traits<unsigned long,std::less<unsigned long>,KMemory::KAllocator<unsigned long>,0> >::const_iterator::operator--

; 475  : 			return (*this);

  00016	8b 45 fc	 mov	 eax, DWORD PTR _this$[ebp]

; 476  : 			}

  00019	83 c4 04	 add	 esp, 4
  0001c	3b ec		 cmp	 ebp, esp
  0001e	e8 00 00 00 00	 call	 __RTC_CheckEsp
  00023	8b e5		 mov	 esp, ebp
  00025	5d		 pop	 ebp
  00026	c3		 ret	 0
??Fiterator@?$_Tree@V?$_Tset_traits@KU?$less@K@std@@V?$KAllocator@K@KMemory@@$0A@@std@@@std@@QAEAAV012@XZ ENDP ; std::_Tree<std::_Tset_traits<unsigned long,std::less<unsigned long>,KMemory::KAllocator<unsigned long>,0> >::iterator::operator--
_TEXT	ENDS
PUBLIC	??_C@_1CG@JNLFBNGN@?$AA?$CC?$AAi?$AAn?$AAv?$AAa?$AAl?$AAi?$AAd?$AA?5?$AAa?$AAr?$AAg?$AAu?$AAm?$AAe?$AAn?$AAt?$AA?$CC?$AA?$AA@ ; `string'
PUBLIC	??_C@_1BDI@CJPKBGHO@?$AAs?$AAt?$AAd?$AA?3?$AA?3?$AA_?$AAT?$AAr?$AAe?$AAe?$AA?$DM?$AAc?$AAl?$AAa?$AAs?$AAs?$AA?5?$AAs?$AAt?$AAd?$AA?3?$AA?3?$AA_?$AAT?$AAs?$AAe?$AAt?$AA_?$AAt?$AAr?$AAa?$AAi@ ; `string'
PUBLIC	??_C@_1FO@OCPOOAIA@?$AA?$CI?$AA?$CC?$AAS?$AAt?$AAa?$AAn?$AAd?$AAa?$AAr?$AAd?$AA?5?$AAC?$AA?$CL?$AA?$CL?$AA?5?$AAL?$AAi?$AAb?$AAr?$AAa?$AAr?$AAi?$AAe?$AAs?$AA?5?$AAI?$AAn?$AAv?$AAa?$AAl?$AAi?$AAd@ ; `string'
PUBLIC	??_C@_1DO@CFEEPGGJ@?$AAm?$AAa?$AAp?$AA?1?$AAs?$AAe?$AAt?$AA?5?$AAi?$AAt?$AAe?$AAr?$AAa?$AAt?$AAo?$AAr?$AAs?$AA?5?$AAi?$AAn?$AAc?$AAo?$AAm?$AAp?$AAa?$AAt?$AAi?$AAb?$AAl?$AAe?$AA?$AA@ ; `string'
EXTRN	__imp___invalid_parameter:PROC
;	COMDAT ??_C@_1CG@JNLFBNGN@?$AA?$CC?$AAi?$AAn?$AAv?$AAa?$AAl?$AAi?$AAd?$AA?5?$AAa?$AAr?$AAg?$AAu?$AAm?$AAe?$AAn?$AAt?$AA?$CC?$AA?$AA@
CONST	SEGMENT
??_C@_1CG@JNLFBNGN@?$AA?$CC?$AAi?$AAn?$AAv?$AAa?$AAl?$AAi?$AAd?$AA?5?$AAa?$AAr?$AAg?$AAu?$AAm?$AAe?$AAn?$AAt?$AA?$CC?$AA?$AA@ DB '"'
	DB	00H, 'i', 00H, 'n', 00H, 'v', 00H, 'a', 00H, 'l', 00H, 'i', 00H
	DB	'd', 00H, ' ', 00H, 'a', 00H, 'r', 00H, 'g', 00H, 'u', 00H, 'm'
	DB	00H, 'e', 00H, 'n', 00H, 't', 00H, '"', 00H, 00H, 00H ; `string'
CONST	ENDS
;	COMDAT ??_C@_1BDI@CJPKBGHO@?$AAs?$AAt?$AAd?$AA?3?$AA?3?$AA_?$AAT?$AAr?$AAe?$AAe?$AA?$DM?$AAc?$AAl?$AAa?$AAs?$AAs?$AA?5?$AAs?$AAt?$AAd?$AA?3?$AA?3?$AA_?$AAT?$AAs?$AAe?$AAt?$AA_?$AAt?$AAr?$AAa?$AAi@
CONST	SEGMENT
??_C@_1BDI@CJPKBGHO@?$AAs?$AAt?$AAd?$AA?3?$AA?3?$AA_?$AAT?$AAr?$AAe?$AAe?$AA?$DM?$AAc?$AAl?$AAa?$AAs?$AAs?$AA?5?$AAs?$AAt?$AAd?$AA?3?$AA?3?$AA_?$AAT?$AAs?$AAe?$AAt?$AA_?$AAt?$AAr?$AAa?$AAi@ DB 's'
	DB	00H, 't', 00H, 'd', 00H, ':', 00H, ':', 00H, '_', 00H, 'T', 00H
	DB	'r', 00H, 'e', 00H, 'e', 00H, '<', 00H, 'c', 00H, 'l', 00H, 'a'
	DB	00H, 's', 00H, 's', 00H, ' ', 00H, 's', 00H, 't', 00H, 'd', 00H
	DB	':', 00H, ':', 00H, '_', 00H, 'T', 00H, 's', 00H, 'e', 00H, 't'
	DB	00H, '_', 00H, 't', 00H, 'r', 00H, 'a', 00H, 'i', 00H, 't', 00H
	DB	's', 00H, '<', 00H, 'u', 00H, 'n', 00H, 's', 00H, 'i', 00H, 'g'
	DB	00H, 'n', 00H, 'e', 00H, 'd', 00H, ' ', 00H, 'l', 00H, 'o', 00H
	DB	'n', 00H, 'g', 00H, ',', 00H, 's', 00H, 't', 00H, 'r', 00H, 'u'
	DB	00H, 'c', 00H, 't', 00H, ' ', 00H, 's', 00H, 't', 00H, 'd', 00H
	DB	':', 00H, ':', 00H, 'l', 00H, 'e', 00H, 's', 00H, 's', 00H, '<'
	DB	00H, 'u', 00H, 'n', 00H, 's', 00H, 'i', 00H, 'g', 00H, 'n', 00H
	DB	'e', 00H, 'd', 00H, ' ', 00H, 'l', 00H, 'o', 00H, 'n', 00H, 'g'
	DB	00H, '>', 00H, ',', 00H, 'c', 00H, 'l', 00H, 'a', 00H, 's', 00H
	DB	's', 00H, ' ', 00H, 'K', 00H, 'M', 00H, 'e', 00H, 'm', 00H, 'o'
	DB	00H, 'r', 00H, 'y', 00H, ':', 00H, ':', 00H, 'K', 00H, 'A', 00H
	DB	'l', 00H, 'l', 00H, 'o', 00H, 'c', 00H, 'a', 00H, 't', 00H, 'o'
	DB	00H, 'r', 00H, '<', 00H, 'u', 00H, 'n', 00H, 's', 00H, 'i', 00H
	DB	'g', 00H, 'n', 00H, 'e', 00H, 'd', 00H, ' ', 00H, 'l', 00H, 'o'
	DB	00H, 'n', 00H, 'g', 00H, '>', 00H, ',', 00H, '0', 00H, '>', 00H
	DB	' ', 00H, '>', 00H, ':', 00H, ':', 00H, 'c', 00H, 'o', 00H, 'n'
	DB	00H, 's', 00H, 't', 00H, '_', 00H, 'i', 00H, 't', 00H, 'e', 00H
	DB	'r', 00H, 'a', 00H, 't', 00H, 'o', 00H, 'r', 00H, ':', 00H, ':'
	DB	00H, 'o', 00H, 'p', 00H, 'e', 00H, 'r', 00H, 'a', 00H, 't', 00H
	DB	'o', 00H, 'r', 00H, ' ', 00H, '=', 00H, '=', 00H, 00H, 00H ; `string'
CONST	ENDS
;	COMDAT ??_C@_1FO@OCPOOAIA@?$AA?$CI?$AA?$CC?$AAS?$AAt?$AAa?$AAn?$AAd?$AAa?$AAr?$AAd?$AA?5?$AAC?$AA?$CL?$AA?$CL?$AA?5?$AAL?$AAi?$AAb?$AAr?$AAa?$AAr?$AAi?$AAe?$AAs?$AA?5?$AAI?$AAn?$AAv?$AAa?$AAl?$AAi?$AAd@
CONST	SEGMENT
??_C@_1FO@OCPOOAIA@?$AA?$CI?$AA?$CC?$AAS?$AAt?$AAa?$AAn?$AAd?$AAa?$AAr?$AAd?$AA?5?$AAC?$AA?$CL?$AA?$CL?$AA?5?$AAL?$AAi?$AAb?$AAr?$AAa?$AAr?$AAi?$AAe?$AAs?$AA?5?$AAI?$AAn?$AAv?$AAa?$AAl?$AAi?$AAd@ DB '('
	DB	00H, '"', 00H, 'S', 00H, 't', 00H, 'a', 00H, 'n', 00H, 'd', 00H
	DB	'a', 00H, 'r', 00H, 'd', 00H, ' ', 00H, 'C', 00H, '+', 00H, '+'
	DB	00H, ' ', 00H, 'L', 00H, 'i', 00H, 'b', 00H, 'r', 00H, 'a', 00H
	DB	'r', 00H, 'i', 00H, 'e', 00H, 's', 00H, ' ', 00H, 'I', 00H, 'n'
	DB	00H, 'v', 00H, 'a', 00H, 'l', 00H, 'i', 00H, 'd', 00H, ' ', 00H
	DB	'A', 00H, 'r', 00H, 'g', 00H, 'u', 00H, 'm', 00H, 'e', 00H, 'n'
	DB	00H, 't', 00H, '"', 00H, ',', 00H, ' ', 00H, '0', 00H, ')', 00H
	DB	00H, 00H					; `string'
CONST	ENDS
;	COMDAT ??_C@_1DO@CFEEPGGJ@?$AAm?$AAa?$AAp?$AA?1?$AAs?$AAe?$AAt?$AA?5?$AAi?$AAt?$AAe?$AAr?$AAa?$AAt?$AAo?$AAr?$AAs?$AA?5?$AAi?$AAn?$AAc?$AAo?$AAm?$AAp?$AAa?$AAt?$AAi?$AAb?$AAl?$AAe?$AA?$AA@
CONST	SEGMENT
??_C@_1DO@CFEEPGGJ@?$AAm?$AAa?$AAp?$AA?1?$AAs?$AAe?$AAt?$AA?5?$AAi?$AAt?$AAe?$AAr?$AAa?$AAt?$AAo?$AAr?$AAs?$AA?5?$AAi?$AAn?$AAc?$AAo?$AAm?$AAp?$AAa?$AAt?$AAi?$AAb?$AAl?$AAe?$AA?$AA@ DB 'm'
	DB	00H, 'a', 00H, 'p', 00H, '/', 00H, 's', 00H, 'e', 00H, 't', 00H
	DB	' ', 00H, 'i', 00H, 't', 00H, 'e', 00H, 'r', 00H, 'a', 00H, 't'
	DB	00H, 'o', 00H, 'r', 00H, 's', 00H, ' ', 00H, 'i', 00H, 'n', 00H
	DB	'c', 00H, 'o', 00H, 'm', 00H, 'p', 00H, 'a', 00H, 't', 00H, 'i'
	DB	00H, 'b', 00H, 'l', 00H, 'e', 00H, 00H, 00H	; `string'
; Function compile flags: /Odtp /RTCsu
CONST	ENDS
;	COMDAT ??8const_iterator@?$_Tree@V?$_Tset_traits@KU?$less@K@std@@V?$KAllocator@K@KMemory@@$0A@@std@@@std@@QBE_NABV012@@Z
_TEXT	SEGMENT
_this$ = -4						; size = 4
__Right$ = 8						; size = 4
??8const_iterator@?$_Tree@V?$_Tset_traits@KU?$less@K@std@@V?$KAllocator@K@KMemory@@$0A@@std@@@std@@QBE_NABV012@@Z PROC ; std::_Tree<std::_Tset_traits<unsigned long,std::less<unsigned long>,KMemory::KAllocator<unsigned long>,0> >::const_iterator::operator==, COMDAT
; _this$ = ecx

; 288  : 			{	// test for iterator equality

  00000	55		 push	 ebp
  00001	8b ec		 mov	 ebp, esp
  00003	51		 push	 ecx
  00004	56		 push	 esi
  00005	c7 45 fc cc cc
	cc cc		 mov	 DWORD PTR [ebp-4], -858993460 ; ccccccccH
  0000c	89 4d fc	 mov	 DWORD PTR _this$[ebp], ecx

; 289  : 
; 290  :  #if _HAS_ITERATOR_DEBUGGING
; 291  : 			if (this->_Mycont == 0 || this->_Mycont != _Right._Mycont)

  0000f	8b 45 fc	 mov	 eax, DWORD PTR _this$[ebp]
  00012	83 38 00	 cmp	 DWORD PTR [eax], 0
  00015	74 0c		 je	 SHORT $LN1@operator@4
  00017	8b 4d fc	 mov	 ecx, DWORD PTR _this$[ebp]
  0001a	8b 55 08	 mov	 edx, DWORD PTR __Right$[ebp]
  0001d	8b 01		 mov	 eax, DWORD PTR [ecx]
  0001f	3b 02		 cmp	 eax, DWORD PTR [edx]
  00021	74 78		 je	 SHORT $LN2@operator@4
$LN1@operator@4:

; 292  : 				{
; 293  : 				_DEBUG_ERROR("map/set iterators incompatible");

  00023	8b f4		 mov	 esi, esp
  00025	68 25 01 00 00	 push	 293			; 00000125H
  0002a	68 00 00 00 00	 push	 OFFSET ??_C@_1HI@LGPIFNJI@?$AAD?$AA?3?$AA?2?$AAP?$AAr?$AAo?$AAg?$AAr?$AAa?$AAm?$AA?5?$AAF?$AAi?$AAl?$AAe?$AAs?$AA?2?$AAM?$AAi?$AAc?$AAr?$AAo?$AAs?$AAo?$AAf?$AAt?$AA?5?$AAV?$AAi?$AAs?$AAu?$AAa@
  0002f	68 00 00 00 00	 push	 OFFSET ??_C@_1DO@CFEEPGGJ@?$AAm?$AAa?$AAp?$AA?1?$AAs?$AAe?$AAt?$AA?5?$AAi?$AAt?$AAe?$AAr?$AAa?$AAt?$AAo?$AAr?$AAs?$AA?5?$AAi?$AAn?$AAc?$AAo?$AAm?$AAp?$AAa?$AAt?$AAi?$AAb?$AAl?$AAe?$AA?$AA@
  00034	ff 15 00 00 00
	00		 call	 DWORD PTR __imp_?_Debug_message@std@@YAXPB_W0I@Z
  0003a	83 c4 0c	 add	 esp, 12			; 0000000cH
  0003d	3b f4		 cmp	 esi, esp
  0003f	e8 00 00 00 00	 call	 __RTC_CheckEsp

; 294  : 				_SCL_SECURE_INVALID_ARGUMENT;

  00044	33 c9		 xor	 ecx, ecx
  00046	75 2b		 jne	 SHORT $LN5@operator@4
  00048	8b f4		 mov	 esi, esp
  0004a	68 00 00 00 00	 push	 OFFSET ??_C@_1FO@OCPOOAIA@?$AA?$CI?$AA?$CC?$AAS?$AAt?$AAa?$AAn?$AAd?$AAa?$AAr?$AAd?$AA?5?$AAC?$AA?$CL?$AA?$CL?$AA?5?$AAL?$AAi?$AAb?$AAr?$AAa?$AAr?$AAi?$AAe?$AAs?$AA?5?$AAI?$AAn?$AAv?$AAa?$AAl?$AAi?$AAd@
  0004f	6a 00		 push	 0
  00051	68 26 01 00 00	 push	 294			; 00000126H
  00056	68 00 00 00 00	 push	 OFFSET ??_C@_1HI@LGPIFNJI@?$AAD?$AA?3?$AA?2?$AAP?$AAr?$AAo?$AAg?$AAr?$AAa?$AAm?$AA?5?$AAF?$AAi?$AAl?$AAe?$AAs?$AA?2?$AAM?$AAi?$AAc?$AAr?$AAo?$AAs?$AAo?$AAf?$AAt?$AA?5?$AAV?$AAi?$AAs?$AAu?$AAa@
  0005b	6a 02		 push	 2
  0005d	ff 15 00 00 00
	00		 call	 DWORD PTR __imp___CrtDbgReportW
  00063	83 c4 14	 add	 esp, 20			; 00000014H
  00066	3b f4		 cmp	 esi, esp
  00068	e8 00 00 00 00	 call	 __RTC_CheckEsp
  0006d	83 f8 01	 cmp	 eax, 1
  00070	75 01		 jne	 SHORT $LN5@operator@4
  00072	cc		 int	 3
$LN5@operator@4:
  00073	8b f4		 mov	 esi, esp
  00075	6a 00		 push	 0
  00077	68 26 01 00 00	 push	 294			; 00000126H
  0007c	68 00 00 00 00	 push	 OFFSET ??_C@_1HI@LGPIFNJI@?$AAD?$AA?3?$AA?2?$AAP?$AAr?$AAo?$AAg?$AAr?$AAa?$AAm?$AA?5?$AAF?$AAi?$AAl?$AAe?$AAs?$AA?2?$AAM?$AAi?$AAc?$AAr?$AAo?$AAs?$AAo?$AAf?$AAt?$AA?5?$AAV?$AAi?$AAs?$AAu?$AAa@
  00081	68 00 00 00 00	 push	 OFFSET ??_C@_1BDI@CJPKBGHO@?$AAs?$AAt?$AAd?$AA?3?$AA?3?$AA_?$AAT?$AAr?$AAe?$AAe?$AA?$DM?$AAc?$AAl?$AAa?$AAs?$AAs?$AA?5?$AAs?$AAt?$AAd?$AA?3?$AA?3?$AA_?$AAT?$AAs?$AAe?$AAt?$AA_?$AAt?$AAr?$AAa?$AAi@
  00086	68 00 00 00 00	 push	 OFFSET ??_C@_1CG@JNLFBNGN@?$AA?$CC?$AAi?$AAn?$AAv?$AAa?$AAl?$AAi?$AAd?$AA?5?$AAa?$AAr?$AAg?$AAu?$AAm?$AAe?$AAn?$AAt?$AA?$CC?$AA?$AA@
  0008b	ff 15 00 00 00
	00		 call	 DWORD PTR __imp___invalid_parameter
  00091	83 c4 14	 add	 esp, 20			; 00000014H
  00094	3b f4		 cmp	 esi, esp
  00096	e8 00 00 00 00	 call	 __RTC_CheckEsp
$LN2@operator@4:

; 295  : 				}
; 296  :  #else
; 297  : 			_SCL_SECURE_VALIDATE(this->_Mycont != NULL && this->_Mycont == _Right._Mycont);
; 298  :  #endif /* _HAS_ITERATOR_DEBUGGING */
; 299  : 
; 300  : 			return (_Ptr == _Right._Ptr);

  0009b	8b 45 fc	 mov	 eax, DWORD PTR _this$[ebp]
  0009e	8b 4d 08	 mov	 ecx, DWORD PTR __Right$[ebp]
  000a1	8b 50 08	 mov	 edx, DWORD PTR [eax+8]
  000a4	33 c0		 xor	 eax, eax
  000a6	3b 51 08	 cmp	 edx, DWORD PTR [ecx+8]
  000a9	0f 94 c0	 sete	 al

; 301  : 			}

  000ac	5e		 pop	 esi
  000ad	83 c4 04	 add	 esp, 4
  000b0	3b ec		 cmp	 ebp, esp
  000b2	e8 00 00 00 00	 call	 __RTC_CheckEsp
  000b7	8b e5		 mov	 esp, ebp
  000b9	5d		 pop	 ebp
  000ba	c2 04 00	 ret	 4
??8const_iterator@?$_Tree@V?$_Tset_traits@KU?$less@K@std@@V?$KAllocator@K@KMemory@@$0A@@std@@@std@@QBE_NABV012@@Z ENDP ; std::_Tree<std::_Tset_traits<unsigned long,std::less<unsigned long>,KMemory::KAllocator<unsigned long>,0> >::const_iterator::operator==
; Function compile flags: /Odtp /RTCsu
_TEXT	ENDS
;	COMDAT ?_Mynode@const_iterator@?$_Tree@V?$_Tset_traits@KU?$less@K@std@@V?$KAllocator@K@KMemory@@$0A@@std@@@std@@QBEPAU_Node@?$_Tree_nod@V?$_Tset_traits@KU?$less@K@std@@V?$KAllocator@K@KMemory@@$0A@@std@@@3@XZ
_TEXT	SEGMENT
_this$ = -4						; size = 4
?_Mynode@const_iterator@?$_Tree@V?$_Tset_traits@KU?$less@K@std@@V?$KAllocator@K@KMemory@@$0A@@std@@@std@@QBEPAU_Node@?$_Tree_nod@V?$_Tset_traits@KU?$less@K@std@@V?$KAllocator@K@KMemory@@$0A@@std@@@3@XZ PROC ; std::_Tree<std::_Tset_traits<unsigned long,std::less<unsigned long>,KMemory::KAllocator<unsigned long>,0> >::const_iterator::_Mynode, COMDAT
; _this$ = ecx

; 395  : 			{	// return node pointer

  00000	55		 push	 ebp
  00001	8b ec		 mov	 ebp, esp
  00003	51		 push	 ecx
  00004	c7 45 fc cc cc
	cc cc		 mov	 DWORD PTR [ebp-4], -858993460 ; ccccccccH
  0000b	89 4d fc	 mov	 DWORD PTR _this$[ebp], ecx

; 396  : 			return (_Ptr);

  0000e	8b 45 fc	 mov	 eax, DWORD PTR _this$[ebp]
  00011	8b 40 08	 mov	 eax, DWORD PTR [eax+8]

; 397  : 			}

  00014	8b e5		 mov	 esp, ebp
  00016	5d		 pop	 ebp
  00017	c3		 ret	 0
?_Mynode@const_iterator@?$_Tree@V?$_Tset_traits@KU?$less@K@std@@V?$KAllocator@K@KMemory@@$0A@@std@@@std@@QBEPAU_Node@?$_Tree_nod@V?$_Tset_traits@KU?$less@K@std@@V?$KAllocator@K@KMemory@@$0A@@std@@@3@XZ ENDP ; std::_Tree<std::_Tset_traits<unsigned long,std::less<unsigned long>,KMemory::KAllocator<unsigned long>,0> >::const_iterator::_Mynode
_TEXT	ENDS
PUBLIC	??0iterator@?$_Tree@V?$_Tset_traits@KU?$less@K@std@@V?$KAllocator@K@KMemory@@$0A@@std@@@std@@QAE@ABV012@@Z ; std::_Tree<std::_Tset_traits<unsigned long,std::less<unsigned long>,KMemory::KAllocator<unsigned long>,0> >::iterator::iterator
; Function compile flags: /Odtp /RTCsu
; File d:\program files\microsoft visual studio 8\vc\include\utility
;	COMDAT ??0?$pair@Viterator@?$_Tree@V?$_Tset_traits@KU?$less@K@std@@V?$KAllocator@K@KMemory@@$0A@@std@@@std@@_N@std@@QAE@ABViterator@?$_Tree@V?$_Tset_traits@KU?$less@K@std@@V?$KAllocator@K@KMemory@@$0A@@std@@@1@AB_N@Z
_TEXT	SEGMENT
_this$ = -4						; size = 4
__Val1$ = 8						; size = 4
__Val2$ = 12						; size = 4
??0?$pair@Viterator@?$_Tree@V?$_Tset_traits@KU?$less@K@std@@V?$KAllocator@K@KMemory@@$0A@@std@@@std@@_N@std@@QAE@ABViterator@?$_Tree@V?$_Tset_traits@KU?$less@K@std@@V?$KAllocator@K@KMemory@@$0A@@std@@@1@AB_N@Z PROC ; std::pair<std::_Tree<std::_Tset_traits<unsigned long,std::less<unsigned long>,KMemory::KAllocator<unsigned long>,0> >::iterator,bool>::pair<std::_Tree<std::_Tset_traits<unsigned long,std::less<unsigned long>,KMemory::KAllocator<unsigned long>,0> >::iterator,bool>, COMDAT
; _this$ = ecx

; 37   : 		{	// construct from specified values

  00000	55		 push	 ebp
  00001	8b ec		 mov	 ebp, esp
  00003	51		 push	 ecx
  00004	c7 45 fc cc cc
	cc cc		 mov	 DWORD PTR [ebp-4], -858993460 ; ccccccccH
  0000b	89 4d fc	 mov	 DWORD PTR _this$[ebp], ecx
  0000e	8b 45 08	 mov	 eax, DWORD PTR __Val1$[ebp]
  00011	50		 push	 eax
  00012	8b 4d fc	 mov	 ecx, DWORD PTR _this$[ebp]
  00015	e8 00 00 00 00	 call	 ??0iterator@?$_Tree@V?$_Tset_traits@KU?$less@K@std@@V?$KAllocator@K@KMemory@@$0A@@std@@@std@@QAE@ABV012@@Z
  0001a	8b 4d fc	 mov	 ecx, DWORD PTR _this$[ebp]
  0001d	8b 55 0c	 mov	 edx, DWORD PTR __Val2$[ebp]
  00020	8a 02		 mov	 al, BYTE PTR [edx]
  00022	88 41 0c	 mov	 BYTE PTR [ecx+12], al

; 38   : 		}

  00025	8b 45 fc	 mov	 eax, DWORD PTR _this$[ebp]
  00028	83 c4 04	 add	 esp, 4
  0002b	3b ec		 cmp	 ebp, esp
  0002d	e8 00 00 00 00	 call	 __RTC_CheckEsp
  00032	8b e5		 mov	 esp, ebp
  00034	5d		 pop	 ebp
  00035	c2 08 00	 ret	 8
??0?$pair@Viterator@?$_Tree@V?$_Tset_traits@KU?$less@K@std@@V?$KAllocator@K@KMemory@@$0A@@std@@@std@@_N@std@@QAE@ABViterator@?$_Tree@V?$_Tset_traits@KU?$less@K@std@@V?$KAllocator@K@KMemory@@$0A@@std@@@1@AB_N@Z ENDP ; std::pair<std::_Tree<std::_Tset_traits<unsigned long,std::less<unsigned long>,KMemory::KAllocator<unsigned long>,0> >::iterator,bool>::pair<std::_Tree<std::_Tset_traits<unsigned long,std::less<unsigned long>,KMemory::KAllocator<unsigned long>,0> >::iterator,bool>
; Function compile flags: /Odtp /RTCsu
_TEXT	ENDS
;	COMDAT ??0length_error@std@@QAE@ABV01@@Z
_TEXT	SEGMENT
_this$ = -4						; size = 4
___that$ = 8						; size = 4
??0length_error@std@@QAE@ABV01@@Z PROC			; std::length_error::length_error, COMDAT
; _this$ = ecx
  00000	55		 push	 ebp
  00001	8b ec		 mov	 ebp, esp
  00003	51		 push	 ecx
  00004	c7 45 fc cc cc
	cc cc		 mov	 DWORD PTR [ebp-4], -858993460 ; ccccccccH
  0000b	89 4d fc	 mov	 DWORD PTR _this$[ebp], ecx
  0000e	8b 45 08	 mov	 eax, DWORD PTR ___that$[ebp]
  00011	50		 push	 eax
  00012	8b 4d fc	 mov	 ecx, DWORD PTR _this$[ebp]
  00015	e8 00 00 00 00	 call	 ??0logic_error@std@@QAE@ABV01@@Z
  0001a	8b 4d fc	 mov	 ecx, DWORD PTR _this$[ebp]
  0001d	c7 01 00 00 00
	00		 mov	 DWORD PTR [ecx], OFFSET ??_7length_error@std@@6B@
  00023	8b 45 fc	 mov	 eax, DWORD PTR _this$[ebp]
  00026	83 c4 04	 add	 esp, 4
  00029	3b ec		 cmp	 ebp, esp
  0002b	e8 00 00 00 00	 call	 __RTC_CheckEsp
  00030	8b e5		 mov	 esp, ebp
  00032	5d		 pop	 ebp
  00033	c2 04 00	 ret	 4
??0length_error@std@@QAE@ABV01@@Z ENDP			; std::length_error::length_error
_TEXT	ENDS
PUBLIC	??0const_iterator@?$_Tree@V?$_Tset_traits@KU?$less@K@std@@V?$KAllocator@K@KMemory@@$0A@@std@@@std@@QAE@ABV012@@Z ; std::_Tree<std::_Tset_traits<unsigned long,std::less<unsigned long>,KMemory::KAllocator<unsigned long>,0> >::const_iterator::const_iterator
; Function compile flags: /Odtp /RTCsu
;	COMDAT ??0iterator@?$_Tree@V?$_Tset_traits@KU?$less@K@std@@V?$KAllocator@K@KMemory@@$0A@@std@@@std@@QAE@ABV012@@Z
_TEXT	SEGMENT
_this$ = -4						; size = 4
___that$ = 8						; size = 4
??0iterator@?$_Tree@V?$_Tset_traits@KU?$less@K@std@@V?$KAllocator@K@KMemory@@$0A@@std@@@std@@QAE@ABV012@@Z PROC ; std::_Tree<std::_Tset_traits<unsigned long,std::less<unsigned long>,KMemory::KAllocator<unsigned long>,0> >::iterator::iterator, COMDAT
; _this$ = ecx
  00000	55		 push	 ebp
  00001	8b ec		 mov	 ebp, esp
  00003	51		 push	 ecx
  00004	c7 45 fc cc cc
	cc cc		 mov	 DWORD PTR [ebp-4], -858993460 ; ccccccccH
  0000b	89 4d fc	 mov	 DWORD PTR _this$[ebp], ecx
  0000e	8b 45 08	 mov	 eax, DWORD PTR ___that$[ebp]
  00011	50		 push	 eax
  00012	8b 4d fc	 mov	 ecx, DWORD PTR _this$[ebp]
  00015	e8 00 00 00 00	 call	 ??0const_iterator@?$_Tree@V?$_Tset_traits@KU?$less@K@std@@V?$KAllocator@K@KMemory@@$0A@@std@@@std@@QAE@ABV012@@Z
  0001a	8b 45 fc	 mov	 eax, DWORD PTR _this$[ebp]
  0001d	83 c4 04	 add	 esp, 4
  00020	3b ec		 cmp	 ebp, esp
  00022	e8 00 00 00 00	 call	 __RTC_CheckEsp
  00027	8b e5		 mov	 esp, ebp
  00029	5d		 pop	 ebp
  0002a	c2 04 00	 ret	 4
??0iterator@?$_Tree@V?$_Tset_traits@KU?$less@K@std@@V?$KAllocator@K@KMemory@@$0A@@std@@@std@@QAE@ABV012@@Z ENDP ; std::_Tree<std::_Tset_traits<unsigned long,std::less<unsigned long>,KMemory::KAllocator<unsigned long>,0> >::iterator::iterator
_TEXT	ENDS
PUBLIC	??0?$_Bidit@KHPBKABK@std@@QAE@ABU01@@Z		; std::_Bidit<unsigned long,int,unsigned long const *,unsigned long const &>::_Bidit<unsigned long,int,unsigned long const *,unsigned long const &>
; Function compile flags: /Odtp /RTCsu
;	COMDAT ??0const_iterator@?$_Tree@V?$_Tset_traits@KU?$less@K@std@@V?$KAllocator@K@KMemory@@$0A@@std@@@std@@QAE@ABV012@@Z
_TEXT	SEGMENT
_this$ = -4						; size = 4
___that$ = 8						; size = 4
??0const_iterator@?$_Tree@V?$_Tset_traits@KU?$less@K@std@@V?$KAllocator@K@KMemory@@$0A@@std@@@std@@QAE@ABV012@@Z PROC ; std::_Tree<std::_Tset_traits<unsigned long,std::less<unsigned long>,KMemory::KAllocator<unsigned long>,0> >::const_iterator::const_iterator, COMDAT
; _this$ = ecx
  00000	55		 push	 ebp
  00001	8b ec		 mov	 ebp, esp
  00003	51		 push	 ecx
  00004	c7 45 fc cc cc
	cc cc		 mov	 DWORD PTR [ebp-4], -858993460 ; ccccccccH
  0000b	89 4d fc	 mov	 DWORD PTR _this$[ebp], ecx
  0000e	8b 45 08	 mov	 eax, DWORD PTR ___that$[ebp]
  00011	50		 push	 eax
  00012	8b 4d fc	 mov	 ecx, DWORD PTR _this$[ebp]
  00015	e8 00 00 00 00	 call	 ??0?$_Bidit@KHPBKABK@std@@QAE@ABU01@@Z
  0001a	8b 4d fc	 mov	 ecx, DWORD PTR _this$[ebp]
  0001d	8b 55 08	 mov	 edx, DWORD PTR ___that$[ebp]
  00020	8b 42 08	 mov	 eax, DWORD PTR [edx+8]
  00023	89 41 08	 mov	 DWORD PTR [ecx+8], eax
  00026	8b 45 fc	 mov	 eax, DWORD PTR _this$[ebp]
  00029	83 c4 04	 add	 esp, 4
  0002c	3b ec		 cmp	 ebp, esp
  0002e	e8 00 00 00 00	 call	 __RTC_CheckEsp
  00033	8b e5		 mov	 esp, ebp
  00035	5d		 pop	 ebp
  00036	c2 04 00	 ret	 4
??0const_iterator@?$_Tree@V?$_Tset_traits@KU?$less@K@std@@V?$KAllocator@K@KMemory@@$0A@@std@@@std@@QAE@ABV012@@Z ENDP ; std::_Tree<std::_Tset_traits<unsigned long,std::less<unsigned long>,KMemory::KAllocator<unsigned long>,0> >::const_iterator::const_iterator
_TEXT	ENDS
PUBLIC	??0_Iterator_base@std@@QAE@ABV01@@Z		; std::_Iterator_base::_Iterator_base
; Function compile flags: /Odtp /RTCsu
;	COMDAT ??0?$_Bidit@KHPBKABK@std@@QAE@ABU01@@Z
_TEXT	SEGMENT
_this$ = -4						; size = 4
___that$ = 8						; size = 4
??0?$_Bidit@KHPBKABK@std@@QAE@ABU01@@Z PROC		; std::_Bidit<unsigned long,int,unsigned long const *,unsigned long const &>::_Bidit<unsigned long,int,unsigned long const *,unsigned long const &>, COMDAT
; _this$ = ecx
  00000	55		 push	 ebp
  00001	8b ec		 mov	 ebp, esp
  00003	51		 push	 ecx
  00004	c7 45 fc cc cc
	cc cc		 mov	 DWORD PTR [ebp-4], -858993460 ; ccccccccH
  0000b	89 4d fc	 mov	 DWORD PTR _this$[ebp], ecx
  0000e	8b 45 08	 mov	 eax, DWORD PTR ___that$[ebp]
  00011	50		 push	 eax
  00012	8b 4d fc	 mov	 ecx, DWORD PTR _this$[ebp]
  00015	e8 00 00 00 00	 call	 ??0_Iterator_base@std@@QAE@ABV01@@Z ; std::_Iterator_base::_Iterator_base
  0001a	8b 45 fc	 mov	 eax, DWORD PTR _this$[ebp]
  0001d	83 c4 04	 add	 esp, 4
  00020	3b ec		 cmp	 ebp, esp
  00022	e8 00 00 00 00	 call	 __RTC_CheckEsp
  00027	8b e5		 mov	 esp, ebp
  00029	5d		 pop	 ebp
  0002a	c2 04 00	 ret	 4
??0?$_Bidit@KHPBKABK@std@@QAE@ABU01@@Z ENDP		; std::_Bidit<unsigned long,int,unsigned long const *,unsigned long const &>::_Bidit<unsigned long,int,unsigned long const *,unsigned long const &>
; Function compile flags: /Odtp /RTCsu
; File d:\program files\microsoft visual studio 8\vc\include\xutility
_TEXT	ENDS
;	COMDAT ??0_Iterator_base@std@@QAE@ABV01@@Z
_TEXT	SEGMENT
_this$ = -4						; size = 4
__Right$ = 8						; size = 4
??0_Iterator_base@std@@QAE@ABV01@@Z PROC		; std::_Iterator_base::_Iterator_base, COMDAT
; _this$ = ecx

; 132  : 		{	// copy an iterator

  00000	55		 push	 ebp
  00001	8b ec		 mov	 ebp, esp
  00003	51		 push	 ecx
  00004	c7 45 fc cc cc
	cc cc		 mov	 DWORD PTR [ebp-4], -858993460 ; ccccccccH
  0000b	89 4d fc	 mov	 DWORD PTR _this$[ebp], ecx
  0000e	8b 45 fc	 mov	 eax, DWORD PTR _this$[ebp]
  00011	c7 00 00 00 00
	00		 mov	 DWORD PTR [eax], 0
  00017	8b 4d fc	 mov	 ecx, DWORD PTR _this$[ebp]
  0001a	c7 41 04 00 00
	00 00		 mov	 DWORD PTR [ecx+4], 0

; 133  : 		*this = _Right;

  00021	8b 55 08	 mov	 edx, DWORD PTR __Right$[ebp]
  00024	52		 push	 edx
  00025	8b 4d fc	 mov	 ecx, DWORD PTR _this$[ebp]
  00028	e8 00 00 00 00	 call	 ??4_Iterator_base@std@@QAEAAV01@ABV01@@Z ; std::_Iterator_base::operator=

; 134  : 		}

  0002d	8b 45 fc	 mov	 eax, DWORD PTR _this$[ebp]
  00030	83 c4 04	 add	 esp, 4
  00033	3b ec		 cmp	 ebp, esp
  00035	e8 00 00 00 00	 call	 __RTC_CheckEsp
  0003a	8b e5		 mov	 esp, ebp
  0003c	5d		 pop	 ebp
  0003d	c2 04 00	 ret	 4
??0_Iterator_base@std@@QAE@ABV01@@Z ENDP		; std::_Iterator_base::_Iterator_base
; Function compile flags: /Odtp /RTCsu
; File d:\program files\microsoft visual studio 8\vc\include\xtree
_TEXT	ENDS
;	COMDAT ?_Color@?$_Tree@V?$_Tset_traits@KU?$less@K@std@@V?$KAllocator@K@KMemory@@$0A@@std@@@std@@KAAADPAU_Node@?$_Tree_nod@V?$_Tset_traits@KU?$less@K@std@@V?$KAllocator@K@KMemory@@$0A@@std@@@2@@Z
_TEXT	SEGMENT
__Pnode$ = 8						; size = 4
?_Color@?$_Tree@V?$_Tset_traits@KU?$less@K@std@@V?$KAllocator@K@KMemory@@$0A@@std@@@std@@KAAADPAU_Node@?$_Tree_nod@V?$_Tset_traits@KU?$less@K@std@@V?$KAllocator@K@KMemory@@$0A@@std@@@2@@Z PROC ; std::_Tree<std::_Tset_traits<unsigned long,std::less<unsigned long>,KMemory::KAllocator<unsigned long>,0> >::_Color, COMDAT

; 140  : 		{	// return reference to color in node

  00000	55		 push	 ebp
  00001	8b ec		 mov	 ebp, esp

; 141  : 		return ((_Charref)(*_Pnode)._Color);

  00003	8b 45 08	 mov	 eax, DWORD PTR __Pnode$[ebp]
  00006	83 c0 10	 add	 eax, 16			; 00000010H

; 142  : 		}

  00009	5d		 pop	 ebp
  0000a	c3		 ret	 0
?_Color@?$_Tree@V?$_Tset_traits@KU?$less@K@std@@V?$KAllocator@K@KMemory@@$0A@@std@@@std@@KAAADPAU_Node@?$_Tree_nod@V?$_Tset_traits@KU?$less@K@std@@V?$KAllocator@K@KMemory@@$0A@@std@@@2@@Z ENDP ; std::_Tree<std::_Tset_traits<unsigned long,std::less<unsigned long>,KMemory::KAllocator<unsigned long>,0> >::_Color
; Function compile flags: /Odtp /RTCsu
_TEXT	ENDS
;	COMDAT ?_Parent@?$_Tree@V?$_Tset_traits@KU?$less@K@std@@V?$KAllocator@K@KMemory@@$0A@@std@@@std@@KAAAPAU_Node@?$_Tree_nod@V?$_Tset_traits@KU?$less@K@std@@V?$KAllocator@K@KMemory@@$0A@@std@@@2@PAU342@@Z
_TEXT	SEGMENT
__Pnode$ = 8						; size = 4
?_Parent@?$_Tree@V?$_Tset_traits@KU?$less@K@std@@V?$KAllocator@K@KMemory@@$0A@@std@@@std@@KAAAPAU_Node@?$_Tree_nod@V?$_Tset_traits@KU?$less@K@std@@V?$KAllocator@K@KMemory@@$0A@@std@@@2@PAU342@@Z PROC ; std::_Tree<std::_Tset_traits<unsigned long,std::less<unsigned long>,KMemory::KAllocator<unsigned long>,0> >::_Parent, COMDAT

; 160  : 		{	// return reference to parent pointer in node

  00000	55		 push	 ebp
  00001	8b ec		 mov	 ebp, esp

; 161  : 		return ((_Nodepref)(*_Pnode)._Parent);

  00003	8b 45 08	 mov	 eax, DWORD PTR __Pnode$[ebp]
  00006	83 c0 04	 add	 eax, 4

; 162  : 		}

  00009	5d		 pop	 ebp
  0000a	c3		 ret	 0
?_Parent@?$_Tree@V?$_Tset_traits@KU?$less@K@std@@V?$KAllocator@K@KMemory@@$0A@@std@@@std@@KAAAPAU_Node@?$_Tree_nod@V?$_Tset_traits@KU?$less@K@std@@V?$KAllocator@K@KMemory@@$0A@@std@@@2@PAU342@@Z ENDP ; std::_Tree<std::_Tset_traits<unsigned long,std::less<unsigned long>,KMemory::KAllocator<unsigned long>,0> >::_Parent
; Function compile flags: /Odtp /RTCsu
_TEXT	ENDS
;	COMDAT ?_Myval@?$_Tree@V?$_Tset_traits@KU?$less@K@std@@V?$KAllocator@K@KMemory@@$0A@@std@@@std@@KAAAKPAU_Node@?$_Tree_nod@V?$_Tset_traits@KU?$less@K@std@@V?$KAllocator@K@KMemory@@$0A@@std@@@2@@Z
_TEXT	SEGMENT
__Pnode$ = 8						; size = 4
?_Myval@?$_Tree@V?$_Tset_traits@KU?$less@K@std@@V?$KAllocator@K@KMemory@@$0A@@std@@@std@@KAAAKPAU_Node@?$_Tree_nod@V?$_Tset_traits@KU?$less@K@std@@V?$KAllocator@K@KMemory@@$0A@@std@@@2@@Z PROC ; std::_Tree<std::_Tset_traits<unsigned long,std::less<unsigned long>,KMemory::KAllocator<unsigned long>,0> >::_Myval, COMDAT

; 170  : 		{	// return reference to value in node

  00000	55		 push	 ebp
  00001	8b ec		 mov	 ebp, esp

; 171  : 		return ((_Vref)(*_Pnode)._Myval);

  00003	8b 45 08	 mov	 eax, DWORD PTR __Pnode$[ebp]
  00006	83 c0 0c	 add	 eax, 12			; 0000000cH

; 172  : 		}

  00009	5d		 pop	 ebp
  0000a	c3		 ret	 0
?_Myval@?$_Tree@V?$_Tset_traits@KU?$less@K@std@@V?$KAllocator@K@KMemory@@$0A@@std@@@std@@KAAAKPAU_Node@?$_Tree_nod@V?$_Tset_traits@KU?$less@K@std@@V?$KAllocator@K@KMemory@@$0A@@std@@@2@@Z ENDP ; std::_Tree<std::_Tset_traits<unsigned long,std::less<unsigned long>,KMemory::KAllocator<unsigned long>,0> >::_Myval
_TEXT	ENDS
PUBLIC	?max_size@?$KAllocator@K@KMemory@@QBEIXZ	; KMemory::KAllocator<unsigned long>::max_size
; Function compile flags: /Odtp /RTCsu
;	COMDAT ?max_size@?$_Tree@V?$_Tset_traits@KU?$less@K@std@@V?$KAllocator@K@KMemory@@$0A@@std@@@std@@QBEIXZ
_TEXT	SEGMENT
_this$ = -4						; size = 4
?max_size@?$_Tree@V?$_Tset_traits@KU?$less@K@std@@V?$KAllocator@K@KMemory@@$0A@@std@@@std@@QBEIXZ PROC ; std::_Tree<std::_Tset_traits<unsigned long,std::less<unsigned long>,KMemory::KAllocator<unsigned long>,0> >::max_size, COMDAT
; _this$ = ecx

; 586  : 		{	// return maximum possible length of sequence

  00000	55		 push	 ebp
  00001	8b ec		 mov	 ebp, esp
  00003	51		 push	 ecx
  00004	c7 45 fc cc cc
	cc cc		 mov	 DWORD PTR [ebp-4], -858993460 ; ccccccccH
  0000b	89 4d fc	 mov	 DWORD PTR _this$[ebp], ecx

; 587  : 		return (this->_Alval.max_size());

  0000e	8b 4d fc	 mov	 ecx, DWORD PTR _this$[ebp]
  00011	83 c1 10	 add	 ecx, 16			; 00000010H
  00014	e8 00 00 00 00	 call	 ?max_size@?$KAllocator@K@KMemory@@QBEIXZ ; KMemory::KAllocator<unsigned long>::max_size

; 588  : 		}

  00019	83 c4 04	 add	 esp, 4
  0001c	3b ec		 cmp	 ebp, esp
  0001e	e8 00 00 00 00	 call	 __RTC_CheckEsp
  00023	8b e5		 mov	 esp, ebp
  00025	5d		 pop	 ebp
  00026	c3		 ret	 0
?max_size@?$_Tree@V?$_Tset_traits@KU?$less@K@std@@V?$KAllocator@K@KMemory@@$0A@@std@@@std@@QBEIXZ ENDP ; std::_Tree<std::_Tset_traits<unsigned long,std::less<unsigned long>,KMemory::KAllocator<unsigned long>,0> >::max_size
; Function compile flags: /Odtp /RTCsu
_TEXT	ENDS
;	COMDAT ?_Lmost@?$_Tree@V?$_Tset_traits@KU?$less@K@std@@V?$KAllocator@K@KMemory@@$0A@@std@@@std@@IBEAAPAU_Node@?$_Tree_nod@V?$_Tset_traits@KU?$less@K@std@@V?$KAllocator@K@KMemory@@$0A@@std@@@2@XZ
_TEXT	SEGMENT
_this$ = -4						; size = 4
?_Lmost@?$_Tree@V?$_Tset_traits@KU?$less@K@std@@V?$KAllocator@K@KMemory@@$0A@@std@@@std@@IBEAAPAU_Node@?$_Tree_nod@V?$_Tset_traits@KU?$less@K@std@@V?$KAllocator@K@KMemory@@$0A@@std@@@2@XZ PROC ; std::_Tree<std::_Tset_traits<unsigned long,std::less<unsigned long>,KMemory::KAllocator<unsigned long>,0> >::_Lmost, COMDAT
; _this$ = ecx

; 1186 : 		{	// return leftmost node in nonmutable tree

  00000	55		 push	 ebp
  00001	8b ec		 mov	 ebp, esp
  00003	51		 push	 ecx
  00004	c7 45 fc cc cc
	cc cc		 mov	 DWORD PTR [ebp-4], -858993460 ; ccccccccH
  0000b	89 4d fc	 mov	 DWORD PTR _this$[ebp], ecx

; 1187 : 		return (_Left(_Myhead));

  0000e	8b 45 fc	 mov	 eax, DWORD PTR _this$[ebp]
  00011	8b 48 14	 mov	 ecx, DWORD PTR [eax+20]
  00014	51		 push	 ecx
  00015	e8 00 00 00 00	 call	 ?_Left@?$_Tree@V?$_Tset_traits@KU?$less@K@std@@V?$KAllocator@K@KMemory@@$0A@@std@@@std@@KAAAPAU_Node@?$_Tree_nod@V?$_Tset_traits@KU?$less@K@std@@V?$KAllocator@K@KMemory@@$0A@@std@@@2@PAU342@@Z ; std::_Tree<std::_Tset_traits<unsigned long,std::less<unsigned long>,KMemory::KAllocator<unsigned long>,0> >::_Left
  0001a	83 c4 04	 add	 esp, 4

; 1188 : 		}

  0001d	83 c4 04	 add	 esp, 4
  00020	3b ec		 cmp	 ebp, esp
  00022	e8 00 00 00 00	 call	 __RTC_CheckEsp
  00027	8b e5		 mov	 esp, ebp
  00029	5d		 pop	 ebp
  0002a	c3		 ret	 0
?_Lmost@?$_Tree@V?$_Tset_traits@KU?$less@K@std@@V?$KAllocator@K@KMemory@@$0A@@std@@@std@@IBEAAPAU_Node@?$_Tree_nod@V?$_Tset_traits@KU?$less@K@std@@V?$KAllocator@K@KMemory@@$0A@@std@@@2@XZ ENDP ; std::_Tree<std::_Tset_traits<unsigned long,std::less<unsigned long>,KMemory::KAllocator<unsigned long>,0> >::_Lmost
; Function compile flags: /Odtp /RTCsu
_TEXT	ENDS
;	COMDAT ?_Lrotate@?$_Tree@V?$_Tset_traits@KU?$less@K@std@@V?$KAllocator@K@KMemory@@$0A@@std@@@std@@IAEXPAU_Node@?$_Tree_nod@V?$_Tset_traits@KU?$less@K@std@@V?$KAllocator@K@KMemory@@$0A@@std@@@2@@Z
_TEXT	SEGMENT
__Pnode$ = -8						; size = 4
_this$ = -4						; size = 4
__Wherenode$ = 8					; size = 4
?_Lrotate@?$_Tree@V?$_Tset_traits@KU?$less@K@std@@V?$KAllocator@K@KMemory@@$0A@@std@@@std@@IAEXPAU_Node@?$_Tree_nod@V?$_Tset_traits@KU?$less@K@std@@V?$KAllocator@K@KMemory@@$0A@@std@@@2@@Z PROC ; std::_Tree<std::_Tset_traits<unsigned long,std::less<unsigned long>,KMemory::KAllocator<unsigned long>,0> >::_Lrotate, COMDAT
; _this$ = ecx

; 1191 : 		{	// promote right node to root of subtree

  00000	55		 push	 ebp
  00001	8b ec		 mov	 ebp, esp
  00003	83 ec 08	 sub	 esp, 8
  00006	56		 push	 esi
  00007	c7 45 f8 cc cc
	cc cc		 mov	 DWORD PTR [ebp-8], -858993460 ; ccccccccH
  0000e	c7 45 fc cc cc
	cc cc		 mov	 DWORD PTR [ebp-4], -858993460 ; ccccccccH
  00015	89 4d fc	 mov	 DWORD PTR _this$[ebp], ecx

; 1192 : 		_Nodeptr _Pnode = _Right(_Wherenode);

  00018	8b 45 08	 mov	 eax, DWORD PTR __Wherenode$[ebp]
  0001b	50		 push	 eax
  0001c	e8 00 00 00 00	 call	 ?_Right@?$_Tree@V?$_Tset_traits@KU?$less@K@std@@V?$KAllocator@K@KMemory@@$0A@@std@@@std@@KAAAPAU_Node@?$_Tree_nod@V?$_Tset_traits@KU?$less@K@std@@V?$KAllocator@K@KMemory@@$0A@@std@@@2@PAU342@@Z ; std::_Tree<std::_Tset_traits<unsigned long,std::less<unsigned long>,KMemory::KAllocator<unsigned long>,0> >::_Right
  00021	83 c4 04	 add	 esp, 4
  00024	8b 08		 mov	 ecx, DWORD PTR [eax]
  00026	89 4d f8	 mov	 DWORD PTR __Pnode$[ebp], ecx

; 1193 : 		_Right(_Wherenode) = _Left(_Pnode);

  00029	8b 55 f8	 mov	 edx, DWORD PTR __Pnode$[ebp]
  0002c	52		 push	 edx
  0002d	e8 00 00 00 00	 call	 ?_Left@?$_Tree@V?$_Tset_traits@KU?$less@K@std@@V?$KAllocator@K@KMemory@@$0A@@std@@@std@@KAAAPAU_Node@?$_Tree_nod@V?$_Tset_traits@KU?$less@K@std@@V?$KAllocator@K@KMemory@@$0A@@std@@@2@PAU342@@Z ; std::_Tree<std::_Tset_traits<unsigned long,std::less<unsigned long>,KMemory::KAllocator<unsigned long>,0> >::_Left
  00032	83 c4 04	 add	 esp, 4
  00035	8b f0		 mov	 esi, eax
  00037	8b 45 08	 mov	 eax, DWORD PTR __Wherenode$[ebp]
  0003a	50		 push	 eax
  0003b	e8 00 00 00 00	 call	 ?_Right@?$_Tree@V?$_Tset_traits@KU?$less@K@std@@V?$KAllocator@K@KMemory@@$0A@@std@@@std@@KAAAPAU_Node@?$_Tree_nod@V?$_Tset_traits@KU?$less@K@std@@V?$KAllocator@K@KMemory@@$0A@@std@@@2@PAU342@@Z ; std::_Tree<std::_Tset_traits<unsigned long,std::less<unsigned long>,KMemory::KAllocator<unsigned long>,0> >::_Right
  00040	83 c4 04	 add	 esp, 4
  00043	8b 0e		 mov	 ecx, DWORD PTR [esi]
  00045	89 08		 mov	 DWORD PTR [eax], ecx

; 1194 : 
; 1195 : 		if (!_Isnil(_Left(_Pnode)))

  00047	8b 55 f8	 mov	 edx, DWORD PTR __Pnode$[ebp]
  0004a	52		 push	 edx
  0004b	e8 00 00 00 00	 call	 ?_Left@?$_Tree@V?$_Tset_traits@KU?$less@K@std@@V?$KAllocator@K@KMemory@@$0A@@std@@@std@@KAAAPAU_Node@?$_Tree_nod@V?$_Tset_traits@KU?$less@K@std@@V?$KAllocator@K@KMemory@@$0A@@std@@@2@PAU342@@Z ; std::_Tree<std::_Tset_traits<unsigned long,std::less<unsigned long>,KMemory::KAllocator<unsigned long>,0> >::_Left
  00050	83 c4 04	 add	 esp, 4
  00053	8b 00		 mov	 eax, DWORD PTR [eax]
  00055	50		 push	 eax
  00056	e8 00 00 00 00	 call	 ?_Isnil@?$_Tree@V?$_Tset_traits@KU?$less@K@std@@V?$KAllocator@K@KMemory@@$0A@@std@@@std@@KAAADPAU_Node@?$_Tree_nod@V?$_Tset_traits@KU?$less@K@std@@V?$KAllocator@K@KMemory@@$0A@@std@@@2@@Z ; std::_Tree<std::_Tset_traits<unsigned long,std::less<unsigned long>,KMemory::KAllocator<unsigned long>,0> >::_Isnil
  0005b	83 c4 04	 add	 esp, 4
  0005e	0f be 08	 movsx	 ecx, BYTE PTR [eax]
  00061	85 c9		 test	 ecx, ecx
  00063	75 1c		 jne	 SHORT $LN5@Lrotate

; 1196 : 			_Parent(_Left(_Pnode)) = _Wherenode;

  00065	8b 55 f8	 mov	 edx, DWORD PTR __Pnode$[ebp]
  00068	52		 push	 edx
  00069	e8 00 00 00 00	 call	 ?_Left@?$_Tree@V?$_Tset_traits@KU?$less@K@std@@V?$KAllocator@K@KMemory@@$0A@@std@@@std@@KAAAPAU_Node@?$_Tree_nod@V?$_Tset_traits@KU?$less@K@std@@V?$KAllocator@K@KMemory@@$0A@@std@@@2@PAU342@@Z ; std::_Tree<std::_Tset_traits<unsigned long,std::less<unsigned long>,KMemory::KAllocator<unsigned long>,0> >::_Left
  0006e	83 c4 04	 add	 esp, 4
  00071	8b 00		 mov	 eax, DWORD PTR [eax]
  00073	50		 push	 eax
  00074	e8 00 00 00 00	 call	 ?_Parent@?$_Tree@V?$_Tset_traits@KU?$less@K@std@@V?$KAllocator@K@KMemory@@$0A@@std@@@std@@KAAAPAU_Node@?$_Tree_nod@V?$_Tset_traits@KU?$less@K@std@@V?$KAllocator@K@KMemory@@$0A@@std@@@2@PAU342@@Z ; std::_Tree<std::_Tset_traits<unsigned long,std::less<unsigned long>,KMemory::KAllocator<unsigned long>,0> >::_Parent
  00079	83 c4 04	 add	 esp, 4
  0007c	8b 4d 08	 mov	 ecx, DWORD PTR __Wherenode$[ebp]
  0007f	89 08		 mov	 DWORD PTR [eax], ecx
$LN5@Lrotate:

; 1197 : 		_Parent(_Pnode) = _Parent(_Wherenode);

  00081	8b 55 08	 mov	 edx, DWORD PTR __Wherenode$[ebp]
  00084	52		 push	 edx
  00085	e8 00 00 00 00	 call	 ?_Parent@?$_Tree@V?$_Tset_traits@KU?$less@K@std@@V?$KAllocator@K@KMemory@@$0A@@std@@@std@@KAAAPAU_Node@?$_Tree_nod@V?$_Tset_traits@KU?$less@K@std@@V?$KAllocator@K@KMemory@@$0A@@std@@@2@PAU342@@Z ; std::_Tree<std::_Tset_traits<unsigned long,std::less<unsigned long>,KMemory::KAllocator<unsigned long>,0> >::_Parent
  0008a	83 c4 04	 add	 esp, 4
  0008d	8b f0		 mov	 esi, eax
  0008f	8b 45 f8	 mov	 eax, DWORD PTR __Pnode$[ebp]
  00092	50		 push	 eax
  00093	e8 00 00 00 00	 call	 ?_Parent@?$_Tree@V?$_Tset_traits@KU?$less@K@std@@V?$KAllocator@K@KMemory@@$0A@@std@@@std@@KAAAPAU_Node@?$_Tree_nod@V?$_Tset_traits@KU?$less@K@std@@V?$KAllocator@K@KMemory@@$0A@@std@@@2@PAU342@@Z ; std::_Tree<std::_Tset_traits<unsigned long,std::less<unsigned long>,KMemory::KAllocator<unsigned long>,0> >::_Parent
  00098	83 c4 04	 add	 esp, 4
  0009b	8b 0e		 mov	 ecx, DWORD PTR [esi]
  0009d	89 08		 mov	 DWORD PTR [eax], ecx

; 1198 : 
; 1199 : 		if (_Wherenode == _Root())

  0009f	8b 4d fc	 mov	 ecx, DWORD PTR _this$[ebp]
  000a2	e8 00 00 00 00	 call	 ?_Root@?$_Tree@V?$_Tset_traits@KU?$less@K@std@@V?$KAllocator@K@KMemory@@$0A@@std@@@std@@IBEAAPAU_Node@?$_Tree_nod@V?$_Tset_traits@KU?$less@K@std@@V?$KAllocator@K@KMemory@@$0A@@std@@@2@XZ ; std::_Tree<std::_Tset_traits<unsigned long,std::less<unsigned long>,KMemory::KAllocator<unsigned long>,0> >::_Root
  000a7	8b 55 08	 mov	 edx, DWORD PTR __Wherenode$[ebp]
  000aa	3b 10		 cmp	 edx, DWORD PTR [eax]
  000ac	75 0f		 jne	 SHORT $LN4@Lrotate

; 1200 : 			_Root() = _Pnode;

  000ae	8b 4d fc	 mov	 ecx, DWORD PTR _this$[ebp]
  000b1	e8 00 00 00 00	 call	 ?_Root@?$_Tree@V?$_Tset_traits@KU?$less@K@std@@V?$KAllocator@K@KMemory@@$0A@@std@@@std@@IBEAAPAU_Node@?$_Tree_nod@V?$_Tset_traits@KU?$less@K@std@@V?$KAllocator@K@KMemory@@$0A@@std@@@2@XZ ; std::_Tree<std::_Tset_traits<unsigned long,std::less<unsigned long>,KMemory::KAllocator<unsigned long>,0> >::_Root
  000b6	8b 4d f8	 mov	 ecx, DWORD PTR __Pnode$[ebp]
  000b9	89 08		 mov	 DWORD PTR [eax], ecx
  000bb	eb 58		 jmp	 SHORT $LN3@Lrotate
$LN4@Lrotate:

; 1201 : 		else if (_Wherenode == _Left(_Parent(_Wherenode)))

  000bd	8b 55 08	 mov	 edx, DWORD PTR __Wherenode$[ebp]
  000c0	52		 push	 edx
  000c1	e8 00 00 00 00	 call	 ?_Parent@?$_Tree@V?$_Tset_traits@KU?$less@K@std@@V?$KAllocator@K@KMemory@@$0A@@std@@@std@@KAAAPAU_Node@?$_Tree_nod@V?$_Tset_traits@KU?$less@K@std@@V?$KAllocator@K@KMemory@@$0A@@std@@@2@PAU342@@Z ; std::_Tree<std::_Tset_traits<unsigned long,std::less<unsigned long>,KMemory::KAllocator<unsigned long>,0> >::_Parent
  000c6	83 c4 04	 add	 esp, 4
  000c9	8b 00		 mov	 eax, DWORD PTR [eax]
  000cb	50		 push	 eax
  000cc	e8 00 00 00 00	 call	 ?_Left@?$_Tree@V?$_Tset_traits@KU?$less@K@std@@V?$KAllocator@K@KMemory@@$0A@@std@@@std@@KAAAPAU_Node@?$_Tree_nod@V?$_Tset_traits@KU?$less@K@std@@V?$KAllocator@K@KMemory@@$0A@@std@@@2@PAU342@@Z ; std::_Tree<std::_Tset_traits<unsigned long,std::less<unsigned long>,KMemory::KAllocator<unsigned long>,0> >::_Left
  000d1	83 c4 04	 add	 esp, 4
  000d4	8b 4d 08	 mov	 ecx, DWORD PTR __Wherenode$[ebp]
  000d7	3b 08		 cmp	 ecx, DWORD PTR [eax]
  000d9	75 1e		 jne	 SHORT $LN2@Lrotate

; 1202 : 			_Left(_Parent(_Wherenode)) = _Pnode;

  000db	8b 55 08	 mov	 edx, DWORD PTR __Wherenode$[ebp]
  000de	52		 push	 edx
  000df	e8 00 00 00 00	 call	 ?_Parent@?$_Tree@V?$_Tset_traits@KU?$less@K@std@@V?$KAllocator@K@KMemory@@$0A@@std@@@std@@KAAAPAU_Node@?$_Tree_nod@V?$_Tset_traits@KU?$less@K@std@@V?$KAllocator@K@KMemory@@$0A@@std@@@2@PAU342@@Z ; std::_Tree<std::_Tset_traits<unsigned long,std::less<unsigned long>,KMemory::KAllocator<unsigned long>,0> >::_Parent
  000e4	83 c4 04	 add	 esp, 4
  000e7	8b 00		 mov	 eax, DWORD PTR [eax]
  000e9	50		 push	 eax
  000ea	e8 00 00 00 00	 call	 ?_Left@?$_Tree@V?$_Tset_traits@KU?$less@K@std@@V?$KAllocator@K@KMemory@@$0A@@std@@@std@@KAAAPAU_Node@?$_Tree_nod@V?$_Tset_traits@KU?$less@K@std@@V?$KAllocator@K@KMemory@@$0A@@std@@@2@PAU342@@Z ; std::_Tree<std::_Tset_traits<unsigned long,std::less<unsigned long>,KMemory::KAllocator<unsigned long>,0> >::_Left
  000ef	83 c4 04	 add	 esp, 4
  000f2	8b 4d f8	 mov	 ecx, DWORD PTR __Pnode$[ebp]
  000f5	89 08		 mov	 DWORD PTR [eax], ecx

; 1203 : 		else

  000f7	eb 1c		 jmp	 SHORT $LN3@Lrotate
$LN2@Lrotate:

; 1204 : 			_Right(_Parent(_Wherenode)) = _Pnode;

  000f9	8b 55 08	 mov	 edx, DWORD PTR __Wherenode$[ebp]
  000fc	52		 push	 edx
  000fd	e8 00 00 00 00	 call	 ?_Parent@?$_Tree@V?$_Tset_traits@KU?$less@K@std@@V?$KAllocator@K@KMemory@@$0A@@std@@@std@@KAAAPAU_Node@?$_Tree_nod@V?$_Tset_traits@KU?$less@K@std@@V?$KAllocator@K@KMemory@@$0A@@std@@@2@PAU342@@Z ; std::_Tree<std::_Tset_traits<unsigned long,std::less<unsigned long>,KMemory::KAllocator<unsigned long>,0> >::_Parent
  00102	83 c4 04	 add	 esp, 4
  00105	8b 00		 mov	 eax, DWORD PTR [eax]
  00107	50		 push	 eax
  00108	e8 00 00 00 00	 call	 ?_Right@?$_Tree@V?$_Tset_traits@KU?$less@K@std@@V?$KAllocator@K@KMemory@@$0A@@std@@@std@@KAAAPAU_Node@?$_Tree_nod@V?$_Tset_traits@KU?$less@K@std@@V?$KAllocator@K@KMemory@@$0A@@std@@@2@PAU342@@Z ; std::_Tree<std::_Tset_traits<unsigned long,std::less<unsigned long>,KMemory::KAllocator<unsigned long>,0> >::_Right
  0010d	83 c4 04	 add	 esp, 4
  00110	8b 4d f8	 mov	 ecx, DWORD PTR __Pnode$[ebp]
  00113	89 08		 mov	 DWORD PTR [eax], ecx
$LN3@Lrotate:

; 1205 : 
; 1206 : 		_Left(_Pnode) = _Wherenode;

  00115	8b 55 f8	 mov	 edx, DWORD PTR __Pnode$[ebp]
  00118	52		 push	 edx
  00119	e8 00 00 00 00	 call	 ?_Left@?$_Tree@V?$_Tset_traits@KU?$less@K@std@@V?$KAllocator@K@KMemory@@$0A@@std@@@std@@KAAAPAU_Node@?$_Tree_nod@V?$_Tset_traits@KU?$less@K@std@@V?$KAllocator@K@KMemory@@$0A@@std@@@2@PAU342@@Z ; std::_Tree<std::_Tset_traits<unsigned long,std::less<unsigned long>,KMemory::KAllocator<unsigned long>,0> >::_Left
  0011e	83 c4 04	 add	 esp, 4
  00121	8b 4d 08	 mov	 ecx, DWORD PTR __Wherenode$[ebp]
  00124	89 08		 mov	 DWORD PTR [eax], ecx

; 1207 : 		_Parent(_Wherenode) = _Pnode;

  00126	8b 55 08	 mov	 edx, DWORD PTR __Wherenode$[ebp]
  00129	52		 push	 edx
  0012a	e8 00 00 00 00	 call	 ?_Parent@?$_Tree@V?$_Tset_traits@KU?$less@K@std@@V?$KAllocator@K@KMemory@@$0A@@std@@@std@@KAAAPAU_Node@?$_Tree_nod@V?$_Tset_traits@KU?$less@K@std@@V?$KAllocator@K@KMemory@@$0A@@std@@@2@PAU342@@Z ; std::_Tree<std::_Tset_traits<unsigned long,std::less<unsigned long>,KMemory::KAllocator<unsigned long>,0> >::_Parent
  0012f	83 c4 04	 add	 esp, 4
  00132	8b 4d f8	 mov	 ecx, DWORD PTR __Pnode$[ebp]
  00135	89 08		 mov	 DWORD PTR [eax], ecx

; 1208 : 		}

  00137	5e		 pop	 esi
  00138	83 c4 08	 add	 esp, 8
  0013b	3b ec		 cmp	 ebp, esp
  0013d	e8 00 00 00 00	 call	 __RTC_CheckEsp
  00142	8b e5		 mov	 esp, ebp
  00144	5d		 pop	 ebp
  00145	c2 04 00	 ret	 4
?_Lrotate@?$_Tree@V?$_Tset_traits@KU?$less@K@std@@V?$KAllocator@K@KMemory@@$0A@@std@@@std@@IAEXPAU_Node@?$_Tree_nod@V?$_Tset_traits@KU?$less@K@std@@V?$KAllocator@K@KMemory@@$0A@@std@@@2@@Z ENDP ; std::_Tree<std::_Tset_traits<unsigned long,std::less<unsigned long>,KMemory::KAllocator<unsigned long>,0> >::_Lrotate
; Function compile flags: /Odtp /RTCsu
_TEXT	ENDS
;	COMDAT ?_Rmost@?$_Tree@V?$_Tset_traits@KU?$less@K@std@@V?$KAllocator@K@KMemory@@$0A@@std@@@std@@IBEAAPAU_Node@?$_Tree_nod@V?$_Tset_traits@KU?$less@K@std@@V?$KAllocator@K@KMemory@@$0A@@std@@@2@XZ
_TEXT	SEGMENT
_this$ = -4						; size = 4
?_Rmost@?$_Tree@V?$_Tset_traits@KU?$less@K@std@@V?$KAllocator@K@KMemory@@$0A@@std@@@std@@IBEAAPAU_Node@?$_Tree_nod@V?$_Tset_traits@KU?$less@K@std@@V?$KAllocator@K@KMemory@@$0A@@std@@@2@XZ PROC ; std::_Tree<std::_Tset_traits<unsigned long,std::less<unsigned long>,KMemory::KAllocator<unsigned long>,0> >::_Rmost, COMDAT
; _this$ = ecx

; 1225 : 		{	// return rightmost node in nonmutable tree

  00000	55		 push	 ebp
  00001	8b ec		 mov	 ebp, esp
  00003	51		 push	 ecx
  00004	c7 45 fc cc cc
	cc cc		 mov	 DWORD PTR [ebp-4], -858993460 ; ccccccccH
  0000b	89 4d fc	 mov	 DWORD PTR _this$[ebp], ecx

; 1226 : 		return (_Right(_Myhead));

  0000e	8b 45 fc	 mov	 eax, DWORD PTR _this$[ebp]
  00011	8b 48 14	 mov	 ecx, DWORD PTR [eax+20]
  00014	51		 push	 ecx
  00015	e8 00 00 00 00	 call	 ?_Right@?$_Tree@V?$_Tset_traits@KU?$less@K@std@@V?$KAllocator@K@KMemory@@$0A@@std@@@std@@KAAAPAU_Node@?$_Tree_nod@V?$_Tset_traits@KU?$less@K@std@@V?$KAllocator@K@KMemory@@$0A@@std@@@2@PAU342@@Z ; std::_Tree<std::_Tset_traits<unsigned long,std::less<unsigned long>,KMemory::KAllocator<unsigned long>,0> >::_Right
  0001a	83 c4 04	 add	 esp, 4

; 1227 : 		}

  0001d	83 c4 04	 add	 esp, 4
  00020	3b ec		 cmp	 ebp, esp
  00022	e8 00 00 00 00	 call	 __RTC_CheckEsp
  00027	8b e5		 mov	 esp, ebp
  00029	5d		 pop	 ebp
  0002a	c3		 ret	 0
?_Rmost@?$_Tree@V?$_Tset_traits@KU?$less@K@std@@V?$KAllocator@K@KMemory@@$0A@@std@@@std@@IBEAAPAU_Node@?$_Tree_nod@V?$_Tset_traits@KU?$less@K@std@@V?$KAllocator@K@KMemory@@$0A@@std@@@2@XZ ENDP ; std::_Tree<std::_Tset_traits<unsigned long,std::less<unsigned long>,KMemory::KAllocator<unsigned long>,0> >::_Rmost
; Function compile flags: /Odtp /RTCsu
_TEXT	ENDS
;	COMDAT ?_Rrotate@?$_Tree@V?$_Tset_traits@KU?$less@K@std@@V?$KAllocator@K@KMemory@@$0A@@std@@@std@@IAEXPAU_Node@?$_Tree_nod@V?$_Tset_traits@KU?$less@K@std@@V?$KAllocator@K@KMemory@@$0A@@std@@@2@@Z
_TEXT	SEGMENT
__Pnode$ = -8						; size = 4
_this$ = -4						; size = 4
__Wherenode$ = 8					; size = 4
?_Rrotate@?$_Tree@V?$_Tset_traits@KU?$less@K@std@@V?$KAllocator@K@KMemory@@$0A@@std@@@std@@IAEXPAU_Node@?$_Tree_nod@V?$_Tset_traits@KU?$less@K@std@@V?$KAllocator@K@KMemory@@$0A@@std@@@2@@Z PROC ; std::_Tree<std::_Tset_traits<unsigned long,std::less<unsigned long>,KMemory::KAllocator<unsigned long>,0> >::_Rrotate, COMDAT
; _this$ = ecx

; 1235 : 		{	// promote left node to root of subtree

  00000	55		 push	 ebp
  00001	8b ec		 mov	 ebp, esp
  00003	83 ec 08	 sub	 esp, 8
  00006	56		 push	 esi
  00007	c7 45 f8 cc cc
	cc cc		 mov	 DWORD PTR [ebp-8], -858993460 ; ccccccccH
  0000e	c7 45 fc cc cc
	cc cc		 mov	 DWORD PTR [ebp-4], -858993460 ; ccccccccH
  00015	89 4d fc	 mov	 DWORD PTR _this$[ebp], ecx

; 1236 : 		_Nodeptr _Pnode = _Left(_Wherenode);

  00018	8b 45 08	 mov	 eax, DWORD PTR __Wherenode$[ebp]
  0001b	50		 push	 eax
  0001c	e8 00 00 00 00	 call	 ?_Left@?$_Tree@V?$_Tset_traits@KU?$less@K@std@@V?$KAllocator@K@KMemory@@$0A@@std@@@std@@KAAAPAU_Node@?$_Tree_nod@V?$_Tset_traits@KU?$less@K@std@@V?$KAllocator@K@KMemory@@$0A@@std@@@2@PAU342@@Z ; std::_Tree<std::_Tset_traits<unsigned long,std::less<unsigned long>,KMemory::KAllocator<unsigned long>,0> >::_Left
  00021	83 c4 04	 add	 esp, 4
  00024	8b 08		 mov	 ecx, DWORD PTR [eax]
  00026	89 4d f8	 mov	 DWORD PTR __Pnode$[ebp], ecx

; 1237 : 		_Left(_Wherenode) = _Right(_Pnode);

  00029	8b 55 f8	 mov	 edx, DWORD PTR __Pnode$[ebp]
  0002c	52		 push	 edx
  0002d	e8 00 00 00 00	 call	 ?_Right@?$_Tree@V?$_Tset_traits@KU?$less@K@std@@V?$KAllocator@K@KMemory@@$0A@@std@@@std@@KAAAPAU_Node@?$_Tree_nod@V?$_Tset_traits@KU?$less@K@std@@V?$KAllocator@K@KMemory@@$0A@@std@@@2@PAU342@@Z ; std::_Tree<std::_Tset_traits<unsigned long,std::less<unsigned long>,KMemory::KAllocator<unsigned long>,0> >::_Right
  00032	83 c4 04	 add	 esp, 4
  00035	8b f0		 mov	 esi, eax
  00037	8b 45 08	 mov	 eax, DWORD PTR __Wherenode$[ebp]
  0003a	50		 push	 eax
  0003b	e8 00 00 00 00	 call	 ?_Left@?$_Tree@V?$_Tset_traits@KU?$less@K@std@@V?$KAllocator@K@KMemory@@$0A@@std@@@std@@KAAAPAU_Node@?$_Tree_nod@V?$_Tset_traits@KU?$less@K@std@@V?$KAllocator@K@KMemory@@$0A@@std@@@2@PAU342@@Z ; std::_Tree<std::_Tset_traits<unsigned long,std::less<unsigned long>,KMemory::KAllocator<unsigned long>,0> >::_Left
  00040	83 c4 04	 add	 esp, 4
  00043	8b 0e		 mov	 ecx, DWORD PTR [esi]
  00045	89 08		 mov	 DWORD PTR [eax], ecx

; 1238 : 
; 1239 : 		if (!_Isnil(_Right(_Pnode)))

  00047	8b 55 f8	 mov	 edx, DWORD PTR __Pnode$[ebp]
  0004a	52		 push	 edx
  0004b	e8 00 00 00 00	 call	 ?_Right@?$_Tree@V?$_Tset_traits@KU?$less@K@std@@V?$KAllocator@K@KMemory@@$0A@@std@@@std@@KAAAPAU_Node@?$_Tree_nod@V?$_Tset_traits@KU?$less@K@std@@V?$KAllocator@K@KMemory@@$0A@@std@@@2@PAU342@@Z ; std::_Tree<std::_Tset_traits<unsigned long,std::less<unsigned long>,KMemory::KAllocator<unsigned long>,0> >::_Right
  00050	83 c4 04	 add	 esp, 4
  00053	8b 00		 mov	 eax, DWORD PTR [eax]
  00055	50		 push	 eax
  00056	e8 00 00 00 00	 call	 ?_Isnil@?$_Tree@V?$_Tset_traits@KU?$less@K@std@@V?$KAllocator@K@KMemory@@$0A@@std@@@std@@KAAADPAU_Node@?$_Tree_nod@V?$_Tset_traits@KU?$less@K@std@@V?$KAllocator@K@KMemory@@$0A@@std@@@2@@Z ; std::_Tree<std::_Tset_traits<unsigned long,std::less<unsigned long>,KMemory::KAllocator<unsigned long>,0> >::_Isnil
  0005b	83 c4 04	 add	 esp, 4
  0005e	0f be 08	 movsx	 ecx, BYTE PTR [eax]
  00061	85 c9		 test	 ecx, ecx
  00063	75 1c		 jne	 SHORT $LN5@Rrotate

; 1240 : 			_Parent(_Right(_Pnode)) = _Wherenode;

  00065	8b 55 f8	 mov	 edx, DWORD PTR __Pnode$[ebp]
  00068	52		 push	 edx
  00069	e8 00 00 00 00	 call	 ?_Right@?$_Tree@V?$_Tset_traits@KU?$less@K@std@@V?$KAllocator@K@KMemory@@$0A@@std@@@std@@KAAAPAU_Node@?$_Tree_nod@V?$_Tset_traits@KU?$less@K@std@@V?$KAllocator@K@KMemory@@$0A@@std@@@2@PAU342@@Z ; std::_Tree<std::_Tset_traits<unsigned long,std::less<unsigned long>,KMemory::KAllocator<unsigned long>,0> >::_Right
  0006e	83 c4 04	 add	 esp, 4
  00071	8b 00		 mov	 eax, DWORD PTR [eax]
  00073	50		 push	 eax
  00074	e8 00 00 00 00	 call	 ?_Parent@?$_Tree@V?$_Tset_traits@KU?$less@K@std@@V?$KAllocator@K@KMemory@@$0A@@std@@@std@@KAAAPAU_Node@?$_Tree_nod@V?$_Tset_traits@KU?$less@K@std@@V?$KAllocator@K@KMemory@@$0A@@std@@@2@PAU342@@Z ; std::_Tree<std::_Tset_traits<unsigned long,std::less<unsigned long>,KMemory::KAllocator<unsigned long>,0> >::_Parent
  00079	83 c4 04	 add	 esp, 4
  0007c	8b 4d 08	 mov	 ecx, DWORD PTR __Wherenode$[ebp]
  0007f	89 08		 mov	 DWORD PTR [eax], ecx
$LN5@Rrotate:

; 1241 : 		_Parent(_Pnode) = _Parent(_Wherenode);

  00081	8b 55 08	 mov	 edx, DWORD PTR __Wherenode$[ebp]
  00084	52		 push	 edx
  00085	e8 00 00 00 00	 call	 ?_Parent@?$_Tree@V?$_Tset_traits@KU?$less@K@std@@V?$KAllocator@K@KMemory@@$0A@@std@@@std@@KAAAPAU_Node@?$_Tree_nod@V?$_Tset_traits@KU?$less@K@std@@V?$KAllocator@K@KMemory@@$0A@@std@@@2@PAU342@@Z ; std::_Tree<std::_Tset_traits<unsigned long,std::less<unsigned long>,KMemory::KAllocator<unsigned long>,0> >::_Parent
  0008a	83 c4 04	 add	 esp, 4
  0008d	8b f0		 mov	 esi, eax
  0008f	8b 45 f8	 mov	 eax, DWORD PTR __Pnode$[ebp]
  00092	50		 push	 eax
  00093	e8 00 00 00 00	 call	 ?_Parent@?$_Tree@V?$_Tset_traits@KU?$less@K@std@@V?$KAllocator@K@KMemory@@$0A@@std@@@std@@KAAAPAU_Node@?$_Tree_nod@V?$_Tset_traits@KU?$less@K@std@@V?$KAllocator@K@KMemory@@$0A@@std@@@2@PAU342@@Z ; std::_Tree<std::_Tset_traits<unsigned long,std::less<unsigned long>,KMemory::KAllocator<unsigned long>,0> >::_Parent
  00098	83 c4 04	 add	 esp, 4
  0009b	8b 0e		 mov	 ecx, DWORD PTR [esi]
  0009d	89 08		 mov	 DWORD PTR [eax], ecx

; 1242 : 
; 1243 : 		if (_Wherenode == _Root())

  0009f	8b 4d fc	 mov	 ecx, DWORD PTR _this$[ebp]
  000a2	e8 00 00 00 00	 call	 ?_Root@?$_Tree@V?$_Tset_traits@KU?$less@K@std@@V?$KAllocator@K@KMemory@@$0A@@std@@@std@@IBEAAPAU_Node@?$_Tree_nod@V?$_Tset_traits@KU?$less@K@std@@V?$KAllocator@K@KMemory@@$0A@@std@@@2@XZ ; std::_Tree<std::_Tset_traits<unsigned long,std::less<unsigned long>,KMemory::KAllocator<unsigned long>,0> >::_Root
  000a7	8b 55 08	 mov	 edx, DWORD PTR __Wherenode$[ebp]
  000aa	3b 10		 cmp	 edx, DWORD PTR [eax]
  000ac	75 0f		 jne	 SHORT $LN4@Rrotate

; 1244 : 			_Root() = _Pnode;

  000ae	8b 4d fc	 mov	 ecx, DWORD PTR _this$[ebp]
  000b1	e8 00 00 00 00	 call	 ?_Root@?$_Tree@V?$_Tset_traits@KU?$less@K@std@@V?$KAllocator@K@KMemory@@$0A@@std@@@std@@IBEAAPAU_Node@?$_Tree_nod@V?$_Tset_traits@KU?$less@K@std@@V?$KAllocator@K@KMemory@@$0A@@std@@@2@XZ ; std::_Tree<std::_Tset_traits<unsigned long,std::less<unsigned long>,KMemory::KAllocator<unsigned long>,0> >::_Root
  000b6	8b 4d f8	 mov	 ecx, DWORD PTR __Pnode$[ebp]
  000b9	89 08		 mov	 DWORD PTR [eax], ecx
  000bb	eb 58		 jmp	 SHORT $LN3@Rrotate
$LN4@Rrotate:

; 1245 : 		else if (_Wherenode == _Right(_Parent(_Wherenode)))

  000bd	8b 55 08	 mov	 edx, DWORD PTR __Wherenode$[ebp]
  000c0	52		 push	 edx
  000c1	e8 00 00 00 00	 call	 ?_Parent@?$_Tree@V?$_Tset_traits@KU?$less@K@std@@V?$KAllocator@K@KMemory@@$0A@@std@@@std@@KAAAPAU_Node@?$_Tree_nod@V?$_Tset_traits@KU?$less@K@std@@V?$KAllocator@K@KMemory@@$0A@@std@@@2@PAU342@@Z ; std::_Tree<std::_Tset_traits<unsigned long,std::less<unsigned long>,KMemory::KAllocator<unsigned long>,0> >::_Parent
  000c6	83 c4 04	 add	 esp, 4
  000c9	8b 00		 mov	 eax, DWORD PTR [eax]
  000cb	50		 push	 eax
  000cc	e8 00 00 00 00	 call	 ?_Right@?$_Tree@V?$_Tset_traits@KU?$less@K@std@@V?$KAllocator@K@KMemory@@$0A@@std@@@std@@KAAAPAU_Node@?$_Tree_nod@V?$_Tset_traits@KU?$less@K@std@@V?$KAllocator@K@KMemory@@$0A@@std@@@2@PAU342@@Z ; std::_Tree<std::_Tset_traits<unsigned long,std::less<unsigned long>,KMemory::KAllocator<unsigned long>,0> >::_Right
  000d1	83 c4 04	 add	 esp, 4
  000d4	8b 4d 08	 mov	 ecx, DWORD PTR __Wherenode$[ebp]
  000d7	3b 08		 cmp	 ecx, DWORD PTR [eax]
  000d9	75 1e		 jne	 SHORT $LN2@Rrotate

; 1246 : 			_Right(_Parent(_Wherenode)) = _Pnode;

  000db	8b 55 08	 mov	 edx, DWORD PTR __Wherenode$[ebp]
  000de	52		 push	 edx
  000df	e8 00 00 00 00	 call	 ?_Parent@?$_Tree@V?$_Tset_traits@KU?$less@K@std@@V?$KAllocator@K@KMemory@@$0A@@std@@@std@@KAAAPAU_Node@?$_Tree_nod@V?$_Tset_traits@KU?$less@K@std@@V?$KAllocator@K@KMemory@@$0A@@std@@@2@PAU342@@Z ; std::_Tree<std::_Tset_traits<unsigned long,std::less<unsigned long>,KMemory::KAllocator<unsigned long>,0> >::_Parent
  000e4	83 c4 04	 add	 esp, 4
  000e7	8b 00		 mov	 eax, DWORD PTR [eax]
  000e9	50		 push	 eax
  000ea	e8 00 00 00 00	 call	 ?_Right@?$_Tree@V?$_Tset_traits@KU?$less@K@std@@V?$KAllocator@K@KMemory@@$0A@@std@@@std@@KAAAPAU_Node@?$_Tree_nod@V?$_Tset_traits@KU?$less@K@std@@V?$KAllocator@K@KMemory@@$0A@@std@@@2@PAU342@@Z ; std::_Tree<std::_Tset_traits<unsigned long,std::less<unsigned long>,KMemory::KAllocator<unsigned long>,0> >::_Right
  000ef	83 c4 04	 add	 esp, 4
  000f2	8b 4d f8	 mov	 ecx, DWORD PTR __Pnode$[ebp]
  000f5	89 08		 mov	 DWORD PTR [eax], ecx

; 1247 : 		else

  000f7	eb 1c		 jmp	 SHORT $LN3@Rrotate
$LN2@Rrotate:

; 1248 : 			_Left(_Parent(_Wherenode)) = _Pnode;

  000f9	8b 55 08	 mov	 edx, DWORD PTR __Wherenode$[ebp]
  000fc	52		 push	 edx
  000fd	e8 00 00 00 00	 call	 ?_Parent@?$_Tree@V?$_Tset_traits@KU?$less@K@std@@V?$KAllocator@K@KMemory@@$0A@@std@@@std@@KAAAPAU_Node@?$_Tree_nod@V?$_Tset_traits@KU?$less@K@std@@V?$KAllocator@K@KMemory@@$0A@@std@@@2@PAU342@@Z ; std::_Tree<std::_Tset_traits<unsigned long,std::less<unsigned long>,KMemory::KAllocator<unsigned long>,0> >::_Parent
  00102	83 c4 04	 add	 esp, 4
  00105	8b 00		 mov	 eax, DWORD PTR [eax]
  00107	50		 push	 eax
  00108	e8 00 00 00 00	 call	 ?_Left@?$_Tree@V?$_Tset_traits@KU?$less@K@std@@V?$KAllocator@K@KMemory@@$0A@@std@@@std@@KAAAPAU_Node@?$_Tree_nod@V?$_Tset_traits@KU?$less@K@std@@V?$KAllocator@K@KMemory@@$0A@@std@@@2@PAU342@@Z ; std::_Tree<std::_Tset_traits<unsigned long,std::less<unsigned long>,KMemory::KAllocator<unsigned long>,0> >::_Left
  0010d	83 c4 04	 add	 esp, 4
  00110	8b 4d f8	 mov	 ecx, DWORD PTR __Pnode$[ebp]
  00113	89 08		 mov	 DWORD PTR [eax], ecx
$LN3@Rrotate:

; 1249 : 
; 1250 : 		_Right(_Pnode) = _Wherenode;

  00115	8b 55 f8	 mov	 edx, DWORD PTR __Pnode$[ebp]
  00118	52		 push	 edx
  00119	e8 00 00 00 00	 call	 ?_Right@?$_Tree@V?$_Tset_traits@KU?$less@K@std@@V?$KAllocator@K@KMemory@@$0A@@std@@@std@@KAAAPAU_Node@?$_Tree_nod@V?$_Tset_traits@KU?$less@K@std@@V?$KAllocator@K@KMemory@@$0A@@std@@@2@PAU342@@Z ; std::_Tree<std::_Tset_traits<unsigned long,std::less<unsigned long>,KMemory::KAllocator<unsigned long>,0> >::_Right
  0011e	83 c4 04	 add	 esp, 4
  00121	8b 4d 08	 mov	 ecx, DWORD PTR __Wherenode$[ebp]
  00124	89 08		 mov	 DWORD PTR [eax], ecx

; 1251 : 		_Parent(_Wherenode) = _Pnode;

  00126	8b 55 08	 mov	 edx, DWORD PTR __Wherenode$[ebp]
  00129	52		 push	 edx
  0012a	e8 00 00 00 00	 call	 ?_Parent@?$_Tree@V?$_Tset_traits@KU?$less@K@std@@V?$KAllocator@K@KMemory@@$0A@@std@@@std@@KAAAPAU_Node@?$_Tree_nod@V?$_Tset_traits@KU?$less@K@std@@V?$KAllocator@K@KMemory@@$0A@@std@@@2@PAU342@@Z ; std::_Tree<std::_Tset_traits<unsigned long,std::less<unsigned long>,KMemory::KAllocator<unsigned long>,0> >::_Parent
  0012f	83 c4 04	 add	 esp, 4
  00132	8b 4d f8	 mov	 ecx, DWORD PTR __Pnode$[ebp]
  00135	89 08		 mov	 DWORD PTR [eax], ecx

; 1252 : 		}

  00137	5e		 pop	 esi
  00138	83 c4 08	 add	 esp, 8
  0013b	3b ec		 cmp	 ebp, esp
  0013d	e8 00 00 00 00	 call	 __RTC_CheckEsp
  00142	8b e5		 mov	 esp, ebp
  00144	5d		 pop	 ebp
  00145	c2 04 00	 ret	 4
?_Rrotate@?$_Tree@V?$_Tset_traits@KU?$less@K@std@@V?$KAllocator@K@KMemory@@$0A@@std@@@std@@IAEXPAU_Node@?$_Tree_nod@V?$_Tset_traits@KU?$less@K@std@@V?$KAllocator@K@KMemory@@$0A@@std@@@2@@Z ENDP ; std::_Tree<std::_Tset_traits<unsigned long,std::less<unsigned long>,KMemory::KAllocator<unsigned long>,0> >::_Rrotate
_TEXT	ENDS
PUBLIC	??3@YAXPAX0@Z					; operator delete
PUBLIC	?deallocate@?$KAllocator@U_Node@?$_Tree_nod@V?$_Tset_traits@KU?$less@K@std@@V?$KAllocator@K@KMemory@@$0A@@std@@@std@@@KMemory@@QAEXPAU_Node@?$_Tree_nod@V?$_Tset_traits@KU?$less@K@std@@V?$KAllocator@K@KMemory@@$0A@@std@@@std@@I@Z ; KMemory::KAllocator<std::_Tree_nod<std::_Tset_traits<unsigned long,std::less<unsigned long>,KMemory::KAllocator<unsigned long>,0> >::_Node>::deallocate
PUBLIC	??0_Node@?$_Tree_nod@V?$_Tset_traits@KU?$less@K@std@@V?$KAllocator@K@KMemory@@$0A@@std@@@std@@QAE@PAU012@00ABKD@Z ; std::_Tree_nod<std::_Tset_traits<unsigned long,std::less<unsigned long>,KMemory::KAllocator<unsigned long>,0> >::_Node::_Node
PUBLIC	??2@YAPAXIPAX@Z					; operator new
PUBLIC	?allocate@?$KAllocator@U_Node@?$_Tree_nod@V?$_Tset_traits@KU?$less@K@std@@V?$KAllocator@K@KMemory@@$0A@@std@@@std@@@KMemory@@QAEPAU_Node@?$_Tree_nod@V?$_Tset_traits@KU?$less@K@std@@V?$KAllocator@K@KMemory@@$0A@@std@@@std@@IPBU345@@Z ; KMemory::KAllocator<std::_Tree_nod<std::_Tset_traits<unsigned long,std::less<unsigned long>,KMemory::KAllocator<unsigned long>,0> >::_Node>::allocate
;	COMDAT xdata$x
xdata$x	SEGMENT
__catchsym$?_Buynode@?$_Tree@V?$_Tset_traits@KU?$less@K@std@@V?$KAllocator@K@KMemory@@$0A@@std@@@std@@IAEPAU_Node@?$_Tree_nod@V?$_Tset_traits@KU?$less@K@std@@V?$KAllocator@K@KMemory@@$0A@@std@@@2@PAU342@00ABKD@Z$3 DD 040H
	DD	00H
	DD	00H
	DD	FLAT:__catch$?_Buynode@?$_Tree@V?$_Tset_traits@KU?$less@K@std@@V?$KAllocator@K@KMemory@@$0A@@std@@@std@@IAEPAU_Node@?$_Tree_nod@V?$_Tset_traits@KU?$less@K@std@@V?$KAllocator@K@KMemory@@$0A@@std@@@2@PAU342@00ABKD@Z$0
__tryblocktable$?_Buynode@?$_Tree@V?$_Tset_traits@KU?$less@K@std@@V?$KAllocator@K@KMemory@@$0A@@std@@@std@@IAEPAU_Node@?$_Tree_nod@V?$_Tset_traits@KU?$less@K@std@@V?$KAllocator@K@KMemory@@$0A@@std@@@2@PAU342@00ABKD@Z DD 00H
	DD	01H
	DD	02H
	DD	01H
	DD	FLAT:__catchsym$?_Buynode@?$_Tree@V?$_Tset_traits@KU?$less@K@std@@V?$KAllocator@K@KMemory@@$0A@@std@@@std@@IAEPAU_Node@?$_Tree_nod@V?$_Tset_traits@KU?$less@K@std@@V?$KAllocator@K@KMemory@@$0A@@std@@@2@PAU342@00ABKD@Z$3
__unwindtable$?_Buynode@?$_Tree@V?$_Tset_traits@KU?$less@K@std@@V?$KAllocator@K@KMemory@@$0A@@std@@@std@@IAEPAU_Node@?$_Tree_nod@V?$_Tset_traits@KU?$less@K@std@@V?$KAllocator@K@KMemory@@$0A@@std@@@2@PAU342@00ABKD@Z DD 0ffffffffH
	DD	00H
	DD	00H
	DD	FLAT:__unwindfunclet$?_Buynode@?$_Tree@V?$_Tset_traits@KU?$less@K@std@@V?$KAllocator@K@KMemory@@$0A@@std@@@std@@IAEPAU_Node@?$_Tree_nod@V?$_Tset_traits@KU?$less@K@std@@V?$KAllocator@K@KMemory@@$0A@@std@@@2@PAU342@00ABKD@Z$2
	DD	0ffffffffH
	DD	00H
__ehfuncinfo$?_Buynode@?$_Tree@V?$_Tset_traits@KU?$less@K@std@@V?$KAllocator@K@KMemory@@$0A@@std@@@std@@IAEPAU_Node@?$_Tree_nod@V?$_Tset_traits@KU?$less@K@std@@V?$KAllocator@K@KMemory@@$0A@@std@@@2@PAU342@00ABKD@Z DD 019930522H
	DD	03H
	DD	FLAT:__unwindtable$?_Buynode@?$_Tree@V?$_Tset_traits@KU?$less@K@std@@V?$KAllocator@K@KMemory@@$0A@@std@@@std@@IAEPAU_Node@?$_Tree_nod@V?$_Tset_traits@KU?$less@K@std@@V?$KAllocator@K@KMemory@@$0A@@std@@@2@PAU342@00ABKD@Z
	DD	01H
	DD	FLAT:__tryblocktable$?_Buynode@?$_Tree@V?$_Tset_traits@KU?$less@K@std@@V?$KAllocator@K@KMemory@@$0A@@std@@@std@@IAEPAU_Node@?$_Tree_nod@V?$_Tset_traits@KU?$less@K@std@@V?$KAllocator@K@KMemory@@$0A@@std@@@2@PAU342@00ABKD@Z
	DD	2 DUP(00H)
	DD	00H
	DD	01H
; Function compile flags: /Odtp /RTCsu
xdata$x	ENDS
;	COMDAT ?_Buynode@?$_Tree@V?$_Tset_traits@KU?$less@K@std@@V?$KAllocator@K@KMemory@@$0A@@std@@@std@@IAEPAU_Node@?$_Tree_nod@V?$_Tset_traits@KU?$less@K@std@@V?$KAllocator@K@KMemory@@$0A@@std@@@2@PAU342@00ABKD@Z
_TEXT	SEGMENT
tv83 = -40						; size = 4
tv94 = -36						; size = 4
$T187156 = -32						; size = 4
$T187155 = -28						; size = 4
__Wherenode$ = -24					; size = 4
_this$ = -20						; size = 4
__$EHRec$ = -16						; size = 16
__Larg$ = 8						; size = 4
__Parg$ = 12						; size = 4
__Rarg$ = 16						; size = 4
__Val$ = 20						; size = 4
__Carg$ = 24						; size = 1
?_Buynode@?$_Tree@V?$_Tset_traits@KU?$less@K@std@@V?$KAllocator@K@KMemory@@$0A@@std@@@std@@IAEPAU_Node@?$_Tree_nod@V?$_Tset_traits@KU?$less@K@std@@V?$KAllocator@K@KMemory@@$0A@@std@@@2@PAU342@00ABKD@Z PROC ; std::_Tree<std::_Tset_traits<unsigned long,std::less<unsigned long>,KMemory::KAllocator<unsigned long>,0> >::_Buynode, COMDAT
; _this$ = ecx

; 1314 : 		{	// allocate a node with pointers, value, and color

  00000	55		 push	 ebp
  00001	8b ec		 mov	 ebp, esp
  00003	6a ff		 push	 -1
  00005	68 00 00 00 00	 push	 __ehhandler$?_Buynode@?$_Tree@V?$_Tset_traits@KU?$less@K@std@@V?$KAllocator@K@KMemory@@$0A@@std@@@std@@IAEPAU_Node@?$_Tree_nod@V?$_Tset_traits@KU?$less@K@std@@V?$KAllocator@K@KMemory@@$0A@@std@@@2@PAU342@00ABKD@Z
  0000a	64 a1 00 00 00
	00		 mov	 eax, DWORD PTR fs:0
  00010	50		 push	 eax
  00011	51		 push	 ecx
  00012	83 ec 18	 sub	 esp, 24			; 00000018H
  00015	53		 push	 ebx
  00016	56		 push	 esi
  00017	57		 push	 edi
  00018	b8 cc cc cc cc	 mov	 eax, -858993460		; ccccccccH
  0001d	89 45 d8	 mov	 DWORD PTR [ebp-40], eax
  00020	89 45 dc	 mov	 DWORD PTR [ebp-36], eax
  00023	89 45 e0	 mov	 DWORD PTR [ebp-32], eax
  00026	89 45 e4	 mov	 DWORD PTR [ebp-28], eax
  00029	89 45 e8	 mov	 DWORD PTR [ebp-24], eax
  0002c	89 45 ec	 mov	 DWORD PTR [ebp-20], eax
  0002f	a1 00 00 00 00	 mov	 eax, DWORD PTR ___security_cookie
  00034	33 c5		 xor	 eax, ebp
  00036	50		 push	 eax
  00037	8d 45 f4	 lea	 eax, DWORD PTR __$EHRec$[ebp+4]
  0003a	64 a3 00 00 00
	00		 mov	 DWORD PTR fs:0, eax
  00040	89 65 f0	 mov	 DWORD PTR __$EHRec$[ebp], esp
  00043	89 4d ec	 mov	 DWORD PTR _this$[ebp], ecx

; 1315 : 		_Nodeptr _Wherenode = this->_Alnod.allocate(1);

  00046	6a 00		 push	 0
  00048	6a 01		 push	 1
  0004a	8b 4d ec	 mov	 ecx, DWORD PTR _this$[ebp]
  0004d	83 c1 08	 add	 ecx, 8
  00050	e8 00 00 00 00	 call	 ?allocate@?$KAllocator@U_Node@?$_Tree_nod@V?$_Tset_traits@KU?$less@K@std@@V?$KAllocator@K@KMemory@@$0A@@std@@@std@@@KMemory@@QAEPAU_Node@?$_Tree_nod@V?$_Tset_traits@KU?$less@K@std@@V?$KAllocator@K@KMemory@@$0A@@std@@@std@@IPBU345@@Z ; KMemory::KAllocator<std::_Tree_nod<std::_Tset_traits<unsigned long,std::less<unsigned long>,KMemory::KAllocator<unsigned long>,0> >::_Node>::allocate
  00055	89 45 e8	 mov	 DWORD PTR __Wherenode$[ebp], eax

; 1316 : 		_TRY_BEGIN

  00058	c7 45 fc 00 00
	00 00		 mov	 DWORD PTR __$EHRec$[ebp+12], 0

; 1317 : 		new (_Wherenode) _Node(_Larg, _Parg, _Rarg, _Val, _Carg);

  0005f	8b 45 e8	 mov	 eax, DWORD PTR __Wherenode$[ebp]
  00062	50		 push	 eax
  00063	6a 14		 push	 20			; 00000014H
  00065	e8 00 00 00 00	 call	 ??2@YAPAXIPAX@Z		; operator new
  0006a	83 c4 08	 add	 esp, 8
  0006d	89 45 e0	 mov	 DWORD PTR $T187156[ebp], eax
  00070	c6 45 fc 01	 mov	 BYTE PTR __$EHRec$[ebp+12], 1
  00074	83 7d e0 00	 cmp	 DWORD PTR $T187156[ebp], 0
  00078	74 27		 je	 SHORT $LN4@Buynode
  0007a	8a 4d 18	 mov	 cl, BYTE PTR __Carg$[ebp]
  0007d	51		 push	 ecx
  0007e	8b 55 14	 mov	 edx, DWORD PTR __Val$[ebp]
  00081	52		 push	 edx
  00082	8b 45 10	 mov	 eax, DWORD PTR __Rarg$[ebp]
  00085	50		 push	 eax
  00086	8b 4d 0c	 mov	 ecx, DWORD PTR __Parg$[ebp]
  00089	51		 push	 ecx
  0008a	8b 55 08	 mov	 edx, DWORD PTR __Larg$[ebp]
  0008d	52		 push	 edx
  0008e	8b 4d e0	 mov	 ecx, DWORD PTR $T187156[ebp]
  00091	e8 00 00 00 00	 call	 ??0_Node@?$_Tree_nod@V?$_Tset_traits@KU?$less@K@std@@V?$KAllocator@K@KMemory@@$0A@@std@@@std@@QAE@PAU012@00ABKD@Z ; std::_Tree_nod<std::_Tset_traits<unsigned long,std::less<unsigned long>,KMemory::KAllocator<unsigned long>,0> >::_Node::_Node
  00096	89 45 dc	 mov	 DWORD PTR tv94[ebp], eax
  00099	8b 45 dc	 mov	 eax, DWORD PTR tv94[ebp]
  0009c	89 45 d8	 mov	 DWORD PTR tv83[ebp], eax
  0009f	eb 07		 jmp	 SHORT $LN5@Buynode
$LN4@Buynode:
  000a1	c7 45 d8 00 00
	00 00		 mov	 DWORD PTR tv83[ebp], 0
$LN5@Buynode:
  000a8	8b 4d d8	 mov	 ecx, DWORD PTR tv83[ebp]
  000ab	89 4d e4	 mov	 DWORD PTR $T187155[ebp], ecx
  000ae	c6 45 fc 00	 mov	 BYTE PTR __$EHRec$[ebp+12], 0
  000b2	eb 27		 jmp	 SHORT $LN6@Buynode
__catch$?_Buynode@?$_Tree@V?$_Tset_traits@KU?$less@K@std@@V?$KAllocator@K@KMemory@@$0A@@std@@@std@@IAEPAU_Node@?$_Tree_nod@V?$_Tset_traits@KU?$less@K@std@@V?$KAllocator@K@KMemory@@$0A@@std@@@2@PAU342@00ABKD@Z$0:

; 1318 : 		_CATCH_ALL
; 1319 : 		this->_Alnod.deallocate(_Wherenode, 1);

  000b4	6a 01		 push	 1
  000b6	8b 55 e8	 mov	 edx, DWORD PTR __Wherenode$[ebp]
  000b9	52		 push	 edx
  000ba	8b 4d ec	 mov	 ecx, DWORD PTR _this$[ebp]
  000bd	83 c1 08	 add	 ecx, 8
  000c0	e8 00 00 00 00	 call	 ?deallocate@?$KAllocator@U_Node@?$_Tree_nod@V?$_Tset_traits@KU?$less@K@std@@V?$KAllocator@K@KMemory@@$0A@@std@@@std@@@KMemory@@QAEXPAU_Node@?$_Tree_nod@V?$_Tset_traits@KU?$less@K@std@@V?$KAllocator@K@KMemory@@$0A@@std@@@std@@I@Z ; KMemory::KAllocator<std::_Tree_nod<std::_Tset_traits<unsigned long,std::less<unsigned long>,KMemory::KAllocator<unsigned long>,0> >::_Node>::deallocate

; 1320 : 		_RERAISE;

  000c5	6a 00		 push	 0
  000c7	6a 00		 push	 0
  000c9	e8 00 00 00 00	 call	 __CxxThrowException@8

; 1321 : 		_CATCH_END

  000ce	c7 45 fc ff ff
	ff ff		 mov	 DWORD PTR __$EHRec$[ebp+12], -1
  000d5	b8 00 00 00 00	 mov	 eax, __tryend$?_Buynode@?$_Tree@V?$_Tset_traits@KU?$less@K@std@@V?$KAllocator@K@KMemory@@$0A@@std@@@std@@IAEPAU_Node@?$_Tree_nod@V?$_Tset_traits@KU?$less@K@std@@V?$KAllocator@K@KMemory@@$0A@@std@@@2@PAU342@00ABKD@Z$1
  000da	c3		 ret	 0
$LN6@Buynode:
  000db	c7 45 fc ff ff
	ff ff		 mov	 DWORD PTR __$EHRec$[ebp+12], -1
__tryend$?_Buynode@?$_Tree@V?$_Tset_traits@KU?$less@K@std@@V?$KAllocator@K@KMemory@@$0A@@std@@@std@@IAEPAU_Node@?$_Tree_nod@V?$_Tset_traits@KU?$less@K@std@@V?$KAllocator@K@KMemory@@$0A@@std@@@2@PAU342@00ABKD@Z$1:

; 1322 : 		return (_Wherenode);

  000e2	8b 45 e8	 mov	 eax, DWORD PTR __Wherenode$[ebp]
$LN3@Buynode:

; 1323 : 		}

  000e5	8b 4d f4	 mov	 ecx, DWORD PTR __$EHRec$[ebp+4]
  000e8	64 89 0d 00 00
	00 00		 mov	 DWORD PTR fs:0, ecx
  000ef	59		 pop	 ecx
  000f0	5f		 pop	 edi
  000f1	5e		 pop	 esi
  000f2	5b		 pop	 ebx
  000f3	83 c4 28	 add	 esp, 40			; 00000028H
  000f6	3b ec		 cmp	 ebp, esp
  000f8	e8 00 00 00 00	 call	 __RTC_CheckEsp
  000fd	8b e5		 mov	 esp, ebp
  000ff	5d		 pop	 ebp
  00100	c2 14 00	 ret	 20			; 00000014H
_TEXT	ENDS
;	COMDAT text$x
text$x	SEGMENT
__unwindfunclet$?_Buynode@?$_Tree@V?$_Tset_traits@KU?$less@K@std@@V?$KAllocator@K@KMemory@@$0A@@std@@@std@@IAEPAU_Node@?$_Tree_nod@V?$_Tset_traits@KU?$less@K@std@@V?$KAllocator@K@KMemory@@$0A@@std@@@2@PAU342@00ABKD@Z$2:
  00000	8b 45 e8	 mov	 eax, DWORD PTR __Wherenode$[ebp]
  00003	50		 push	 eax
  00004	8b 4d e0	 mov	 ecx, DWORD PTR $T187156[ebp]
  00007	51		 push	 ecx
  00008	e8 00 00 00 00	 call	 ??3@YAXPAX0@Z		; operator delete
  0000d	83 c4 08	 add	 esp, 8
  00010	c3		 ret	 0
__ehhandler$?_Buynode@?$_Tree@V?$_Tset_traits@KU?$less@K@std@@V?$KAllocator@K@KMemory@@$0A@@std@@@std@@IAEPAU_Node@?$_Tree_nod@V?$_Tset_traits@KU?$less@K@std@@V?$KAllocator@K@KMemory@@$0A@@std@@@2@PAU342@00ABKD@Z:
  00011	8b 54 24 08	 mov	 edx, DWORD PTR [esp+8]
  00015	8d 42 0c	 lea	 eax, DWORD PTR [edx+12]
  00018	8b 4a d4	 mov	 ecx, DWORD PTR [edx-44]
  0001b	33 c8		 xor	 ecx, eax
  0001d	e8 00 00 00 00	 call	 @__security_check_cookie@4
  00022	b8 00 00 00 00	 mov	 eax, OFFSET __ehfuncinfo$?_Buynode@?$_Tree@V?$_Tset_traits@KU?$less@K@std@@V?$KAllocator@K@KMemory@@$0A@@std@@@std@@IAEPAU_Node@?$_Tree_nod@V?$_Tset_traits@KU?$less@K@std@@V?$KAllocator@K@KMemory@@$0A@@std@@@2@PAU342@00ABKD@Z
  00027	e9 00 00 00 00	 jmp	 ___CxxFrameHandler3
text$x	ENDS
?_Buynode@?$_Tree@V?$_Tset_traits@KU?$less@K@std@@V?$KAllocator@K@KMemory@@$0A@@std@@@std@@IAEPAU_Node@?$_Tree_nod@V?$_Tset_traits@KU?$less@K@std@@V?$KAllocator@K@KMemory@@$0A@@std@@@2@PAU342@00ABKD@Z ENDP ; std::_Tree<std::_Tset_traits<unsigned long,std::less<unsigned long>,KMemory::KAllocator<unsigned long>,0> >::_Buynode
; Function compile flags: /Odtp /RTCsu
; File d:\program files\microsoft visual studio 8\vc\include\new
;	COMDAT ??2@YAPAXIPAX@Z
_TEXT	SEGMENT
___formal$ = 8						; size = 4
__Where$ = 12						; size = 4
??2@YAPAXIPAX@Z PROC					; operator new, COMDAT

; 59   : 	{	// construct array with placement at _Where

  00000	55		 push	 ebp
  00001	8b ec		 mov	 ebp, esp

; 60   : 	return (_Where);

  00003	8b 45 0c	 mov	 eax, DWORD PTR __Where$[ebp]

; 61   : 	}

  00006	5d		 pop	 ebp
  00007	c3		 ret	 0
??2@YAPAXIPAX@Z ENDP					; operator new
; Function compile flags: /Odtp /RTCsu
_TEXT	ENDS
;	COMDAT ??3@YAXPAX0@Z
_TEXT	SEGMENT
___formal$ = 8						; size = 4
___formal$ = 12						; size = 4
??3@YAXPAX0@Z PROC					; operator delete, COMDAT

; 64   : 	{	// delete if placement new fails

  00000	55		 push	 ebp
  00001	8b ec		 mov	 ebp, esp

; 65   : 	}

  00003	5d		 pop	 ebp
  00004	c3		 ret	 0
??3@YAXPAX0@Z ENDP					; operator delete
; Function compile flags: /Odtp /RTCsu
; File d:\program files\microsoft visual studio 8\vc\include\list
_TEXT	ENDS
;	COMDAT ?_Nextnode@?$list@UKViewObject@KPlayer@@V?$KAllocator@UKViewObject@KPlayer@@@KMemory@@@std@@KAAAPAU_Node@?$_List_nod@UKViewObject@KPlayer@@V?$KAllocator@UKViewObject@KPlayer@@@KMemory@@@2@PAU342@@Z
_TEXT	SEGMENT
__Pnode$ = 8						; size = 4
?_Nextnode@?$list@UKViewObject@KPlayer@@V?$KAllocator@UKViewObject@KPlayer@@@KMemory@@@std@@KAAAPAU_Node@?$_List_nod@UKViewObject@KPlayer@@V?$KAllocator@UKViewObject@KPlayer@@@KMemory@@@2@PAU342@@Z PROC ; std::list<KPlayer::KViewObject,KMemory::KAllocator<KPlayer::KViewObject> >::_Nextnode, COMDAT

; 110  : 		{	// return reference to successor pointer in node

  00000	55		 push	 ebp
  00001	8b ec		 mov	 ebp, esp

; 111  : 		return ((_Nodepref)(*_Pnode)._Next);

  00003	8b 45 08	 mov	 eax, DWORD PTR __Pnode$[ebp]

; 112  : 		}

  00006	5d		 pop	 ebp
  00007	c3		 ret	 0
?_Nextnode@?$list@UKViewObject@KPlayer@@V?$KAllocator@UKViewObject@KPlayer@@@KMemory@@@std@@KAAAPAU_Node@?$_List_nod@UKViewObject@KPlayer@@V?$KAllocator@UKViewObject@KPlayer@@@KMemory@@@2@PAU342@@Z ENDP ; std::list<KPlayer::KViewObject,KMemory::KAllocator<KPlayer::KViewObject> >::_Nextnode
; Function compile flags: /Odtp /RTCsu
_TEXT	ENDS
;	COMDAT ?_Prevnode@?$list@UKViewObject@KPlayer@@V?$KAllocator@UKViewObject@KPlayer@@@KMemory@@@std@@KAAAPAU_Node@?$_List_nod@UKViewObject@KPlayer@@V?$KAllocator@UKViewObject@KPlayer@@@KMemory@@@2@PAU342@@Z
_TEXT	SEGMENT
__Pnode$ = 8						; size = 4
?_Prevnode@?$list@UKViewObject@KPlayer@@V?$KAllocator@UKViewObject@KPlayer@@@KMemory@@@std@@KAAAPAU_Node@?$_List_nod@UKViewObject@KPlayer@@V?$KAllocator@UKViewObject@KPlayer@@@KMemory@@@2@PAU342@@Z PROC ; std::list<KPlayer::KViewObject,KMemory::KAllocator<KPlayer::KViewObject> >::_Prevnode, COMDAT

; 115  : 		{	// return reference to predecessor pointer in node

  00000	55		 push	 ebp
  00001	8b ec		 mov	 ebp, esp

; 116  : 		return ((_Nodepref)(*_Pnode)._Prev);

  00003	8b 45 08	 mov	 eax, DWORD PTR __Pnode$[ebp]
  00006	83 c0 04	 add	 eax, 4

; 117  : 		}

  00009	5d		 pop	 ebp
  0000a	c3		 ret	 0
?_Prevnode@?$list@UKViewObject@KPlayer@@V?$KAllocator@UKViewObject@KPlayer@@@KMemory@@@std@@KAAAPAU_Node@?$_List_nod@UKViewObject@KPlayer@@V?$KAllocator@UKViewObject@KPlayer@@@KMemory@@@2@PAU342@@Z ENDP ; std::list<KPlayer::KViewObject,KMemory::KAllocator<KPlayer::KViewObject> >::_Prevnode
_TEXT	ENDS
PUBLIC	?deallocate@?$KAllocator@U_Node@?$_List_nod@UKViewObject@KPlayer@@V?$KAllocator@UKViewObject@KPlayer@@@KMemory@@@std@@@KMemory@@QAEXPAU_Node@?$_List_nod@UKViewObject@KPlayer@@V?$KAllocator@UKViewObject@KPlayer@@@KMemory@@@std@@I@Z ; KMemory::KAllocator<std::_List_nod<KPlayer::KViewObject,KMemory::KAllocator<KPlayer::KViewObject> >::_Node>::deallocate
PUBLIC	?destroy@?$KAllocator@PAU_Node@?$_List_nod@UKViewObject@KPlayer@@V?$KAllocator@UKViewObject@KPlayer@@@KMemory@@@std@@@KMemory@@QAEXPAPAU_Node@?$_List_nod@UKViewObject@KPlayer@@V?$KAllocator@UKViewObject@KPlayer@@@KMemory@@@std@@@Z ; KMemory::KAllocator<std::_List_nod<KPlayer::KViewObject,KMemory::KAllocator<KPlayer::KViewObject> >::_Node *>::destroy
PUBLIC	?construct@?$KAllocator@UKViewObject@KPlayer@@@KMemory@@QAEXPAUKViewObject@KPlayer@@ABU34@@Z ; KMemory::KAllocator<KPlayer::KViewObject>::construct
PUBLIC	?_Myval@?$list@UKViewObject@KPlayer@@V?$KAllocator@UKViewObject@KPlayer@@@KMemory@@@std@@KAAAUKViewObject@KPlayer@@PAU_Node@?$_List_nod@UKViewObject@KPlayer@@V?$KAllocator@UKViewObject@KPlayer@@@KMemory@@@2@@Z ; std::list<KPlayer::KViewObject,KMemory::KAllocator<KPlayer::KViewObject> >::_Myval
PUBLIC	?construct@?$KAllocator@PAU_Node@?$_List_nod@UKViewObject@KPlayer@@V?$KAllocator@UKViewObject@KPlayer@@@KMemory@@@std@@@KMemory@@QAEXPAPAU_Node@?$_List_nod@UKViewObject@KPlayer@@V?$KAllocator@UKViewObject@KPlayer@@@KMemory@@@std@@ABQAU345@@Z ; KMemory::KAllocator<std::_List_nod<KPlayer::KViewObject,KMemory::KAllocator<KPlayer::KViewObject> >::_Node *>::construct
PUBLIC	?allocate@?$KAllocator@U_Node@?$_List_nod@UKViewObject@KPlayer@@V?$KAllocator@UKViewObject@KPlayer@@@KMemory@@@std@@@KMemory@@QAEPAU_Node@?$_List_nod@UKViewObject@KPlayer@@V?$KAllocator@UKViewObject@KPlayer@@@KMemory@@@std@@IPBU345@@Z ; KMemory::KAllocator<std::_List_nod<KPlayer::KViewObject,KMemory::KAllocator<KPlayer::KViewObject> >::_Node>::allocate
;	COMDAT xdata$x
xdata$x	SEGMENT
__catchsym$?_Buynode@?$list@UKViewObject@KPlayer@@V?$KAllocator@UKViewObject@KPlayer@@@KMemory@@@std@@IAEPAU_Node@?$_List_nod@UKViewObject@KPlayer@@V?$KAllocator@UKViewObject@KPlayer@@@KMemory@@@2@PAU342@0ABUKViewObject@KPlayer@@@Z$2 DD 040H
	DD	00H
	DD	00H
	DD	FLAT:__catch$?_Buynode@?$list@UKViewObject@KPlayer@@V?$KAllocator@UKViewObject@KPlayer@@@KMemory@@@std@@IAEPAU_Node@?$_List_nod@UKViewObject@KPlayer@@V?$KAllocator@UKViewObject@KPlayer@@@KMemory@@@2@PAU342@0ABUKViewObject@KPlayer@@@Z$0
__unwindtable$?_Buynode@?$list@UKViewObject@KPlayer@@V?$KAllocator@UKViewObject@KPlayer@@@KMemory@@@std@@IAEPAU_Node@?$_List_nod@UKViewObject@KPlayer@@V?$KAllocator@UKViewObject@KPlayer@@@KMemory@@@2@PAU342@0ABUKViewObject@KPlayer@@@Z DD 0ffffffffH
	DD	00H
	DD	0ffffffffH
	DD	00H
__tryblocktable$?_Buynode@?$list@UKViewObject@KPlayer@@V?$KAllocator@UKViewObject@KPlayer@@@KMemory@@@std@@IAEPAU_Node@?$_List_nod@UKViewObject@KPlayer@@V?$KAllocator@UKViewObject@KPlayer@@@KMemory@@@2@PAU342@0ABUKViewObject@KPlayer@@@Z DD 00H
	DD	00H
	DD	01H
	DD	01H
	DD	FLAT:__catchsym$?_Buynode@?$list@UKViewObject@KPlayer@@V?$KAllocator@UKViewObject@KPlayer@@@KMemory@@@std@@IAEPAU_Node@?$_List_nod@UKViewObject@KPlayer@@V?$KAllocator@UKViewObject@KPlayer@@@KMemory@@@2@PAU342@0ABUKViewObject@KPlayer@@@Z$2
__ehfuncinfo$?_Buynode@?$list@UKViewObject@KPlayer@@V?$KAllocator@UKViewObject@KPlayer@@@KMemory@@@std@@IAEPAU_Node@?$_List_nod@UKViewObject@KPlayer@@V?$KAllocator@UKViewObject@KPlayer@@@KMemory@@@2@PAU342@0ABUKViewObject@KPlayer@@@Z DD 019930522H
	DD	02H
	DD	FLAT:__unwindtable$?_Buynode@?$list@UKViewObject@KPlayer@@V?$KAllocator@UKViewObject@KPlayer@@@KMemory@@@std@@IAEPAU_Node@?$_List_nod@UKViewObject@KPlayer@@V?$KAllocator@UKViewObject@KPlayer@@@KMemory@@@2@PAU342@0ABUKViewObject@KPlayer@@@Z
	DD	01H
	DD	FLAT:__tryblocktable$?_Buynode@?$list@UKViewObject@KPlayer@@V?$KAllocator@UKViewObject@KPlayer@@@KMemory@@@std@@IAEPAU_Node@?$_List_nod@UKViewObject@KPlayer@@V?$KAllocator@UKViewObject@KPlayer@@@KMemory@@@2@PAU342@0ABUKViewObject@KPlayer@@@Z
	DD	2 DUP(00H)
	DD	00H
	DD	01H
; Function compile flags: /Odtp /RTCsu
xdata$x	ENDS
;	COMDAT ?_Buynode@?$list@UKViewObject@KPlayer@@V?$KAllocator@UKViewObject@KPlayer@@@KMemory@@@std@@IAEPAU_Node@?$_List_nod@UKViewObject@KPlayer@@V?$KAllocator@UKViewObject@KPlayer@@@KMemory@@@2@PAU342@0ABUKViewObject@KPlayer@@@Z
_TEXT	SEGMENT
tv142 = -40						; size = 4
tv141 = -36						; size = 4
tv140 = -32						; size = 4
__Linkcnt$ = -28					; size = 4
__Pnode$ = -24						; size = 4
_this$ = -20						; size = 4
__$EHRec$ = -16						; size = 16
__Next$ = 8						; size = 4
__Prev$ = 12						; size = 4
__Val$ = 16						; size = 4
?_Buynode@?$list@UKViewObject@KPlayer@@V?$KAllocator@UKViewObject@KPlayer@@@KMemory@@@std@@IAEPAU_Node@?$_List_nod@UKViewObject@KPlayer@@V?$KAllocator@UKViewObject@KPlayer@@@KMemory@@@2@PAU342@0ABUKViewObject@KPlayer@@@Z PROC ; std::list<KPlayer::KViewObject,KMemory::KAllocator<KPlayer::KViewObject> >::_Buynode, COMDAT
; _this$ = ecx

; 1161 : 		{	// allocate a node and set links and value

  00000	55		 push	 ebp
  00001	8b ec		 mov	 ebp, esp
  00003	6a ff		 push	 -1
  00005	68 00 00 00 00	 push	 __ehhandler$?_Buynode@?$list@UKViewObject@KPlayer@@V?$KAllocator@UKViewObject@KPlayer@@@KMemory@@@std@@IAEPAU_Node@?$_List_nod@UKViewObject@KPlayer@@V?$KAllocator@UKViewObject@KPlayer@@@KMemory@@@2@PAU342@0ABUKViewObject@KPlayer@@@Z
  0000a	64 a1 00 00 00
	00		 mov	 eax, DWORD PTR fs:0
  00010	50		 push	 eax
  00011	51		 push	 ecx
  00012	83 ec 18	 sub	 esp, 24			; 00000018H
  00015	53		 push	 ebx
  00016	56		 push	 esi
  00017	57		 push	 edi
  00018	b8 cc cc cc cc	 mov	 eax, -858993460		; ccccccccH
  0001d	89 45 d8	 mov	 DWORD PTR [ebp-40], eax
  00020	89 45 dc	 mov	 DWORD PTR [ebp-36], eax
  00023	89 45 e0	 mov	 DWORD PTR [ebp-32], eax
  00026	89 45 e4	 mov	 DWORD PTR [ebp-28], eax
  00029	89 45 e8	 mov	 DWORD PTR [ebp-24], eax
  0002c	89 45 ec	 mov	 DWORD PTR [ebp-20], eax
  0002f	a1 00 00 00 00	 mov	 eax, DWORD PTR ___security_cookie
  00034	33 c5		 xor	 eax, ebp
  00036	50		 push	 eax
  00037	8d 45 f4	 lea	 eax, DWORD PTR __$EHRec$[ebp+4]
  0003a	64 a3 00 00 00
	00		 mov	 DWORD PTR fs:0, eax
  00040	89 65 f0	 mov	 DWORD PTR __$EHRec$[ebp], esp
  00043	89 4d ec	 mov	 DWORD PTR _this$[ebp], ecx

; 1162 : 		_Nodeptr _Pnode = this->_Alnod.allocate(1);

  00046	6a 00		 push	 0
  00048	6a 01		 push	 1
  0004a	8b 4d ec	 mov	 ecx, DWORD PTR _this$[ebp]
  0004d	83 c1 04	 add	 ecx, 4
  00050	e8 00 00 00 00	 call	 ?allocate@?$KAllocator@U_Node@?$_List_nod@UKViewObject@KPlayer@@V?$KAllocator@UKViewObject@KPlayer@@@KMemory@@@std@@@KMemory@@QAEPAU_Node@?$_List_nod@UKViewObject@KPlayer@@V?$KAllocator@UKViewObject@KPlayer@@@KMemory@@@std@@IPBU345@@Z ; KMemory::KAllocator<std::_List_nod<KPlayer::KViewObject,KMemory::KAllocator<KPlayer::KViewObject> >::_Node>::allocate
  00055	89 45 e8	 mov	 DWORD PTR __Pnode$[ebp], eax

; 1163 : 		int _Linkcnt = 0;

  00058	c7 45 e4 00 00
	00 00		 mov	 DWORD PTR __Linkcnt$[ebp], 0

; 1164 : 
; 1165 : 		_TRY_BEGIN

  0005f	c7 45 fc 00 00
	00 00		 mov	 DWORD PTR __$EHRec$[ebp+12], 0

; 1166 : 		this->_Alptr.construct(&_Nextnode(_Pnode), _Next);

  00066	8b 45 e8	 mov	 eax, DWORD PTR __Pnode$[ebp]
  00069	50		 push	 eax
  0006a	e8 00 00 00 00	 call	 ?_Nextnode@?$list@UKViewObject@KPlayer@@V?$KAllocator@UKViewObject@KPlayer@@@KMemory@@@std@@KAAAPAU_Node@?$_List_nod@UKViewObject@KPlayer@@V?$KAllocator@UKViewObject@KPlayer@@@KMemory@@@2@PAU342@@Z ; std::list<KPlayer::KViewObject,KMemory::KAllocator<KPlayer::KViewObject> >::_Nextnode
  0006f	83 c4 04	 add	 esp, 4
  00072	89 45 e0	 mov	 DWORD PTR tv140[ebp], eax
  00075	8d 4d 08	 lea	 ecx, DWORD PTR __Next$[ebp]
  00078	51		 push	 ecx
  00079	8b 55 e0	 mov	 edx, DWORD PTR tv140[ebp]
  0007c	52		 push	 edx
  0007d	8b 4d ec	 mov	 ecx, DWORD PTR _this$[ebp]
  00080	83 c1 08	 add	 ecx, 8
  00083	e8 00 00 00 00	 call	 ?construct@?$KAllocator@PAU_Node@?$_List_nod@UKViewObject@KPlayer@@V?$KAllocator@UKViewObject@KPlayer@@@KMemory@@@std@@@KMemory@@QAEXPAPAU_Node@?$_List_nod@UKViewObject@KPlayer@@V?$KAllocator@UKViewObject@KPlayer@@@KMemory@@@std@@ABQAU345@@Z ; KMemory::KAllocator<std::_List_nod<KPlayer::KViewObject,KMemory::KAllocator<KPlayer::KViewObject> >::_Node *>::construct

; 1167 : 		++_Linkcnt;

  00088	8b 45 e4	 mov	 eax, DWORD PTR __Linkcnt$[ebp]
  0008b	83 c0 01	 add	 eax, 1
  0008e	89 45 e4	 mov	 DWORD PTR __Linkcnt$[ebp], eax

; 1168 : 		this->_Alptr.construct(&_Prevnode(_Pnode), _Prev);

  00091	8b 4d e8	 mov	 ecx, DWORD PTR __Pnode$[ebp]
  00094	51		 push	 ecx
  00095	e8 00 00 00 00	 call	 ?_Prevnode@?$list@UKViewObject@KPlayer@@V?$KAllocator@UKViewObject@KPlayer@@@KMemory@@@std@@KAAAPAU_Node@?$_List_nod@UKViewObject@KPlayer@@V?$KAllocator@UKViewObject@KPlayer@@@KMemory@@@2@PAU342@@Z ; std::list<KPlayer::KViewObject,KMemory::KAllocator<KPlayer::KViewObject> >::_Prevnode
  0009a	83 c4 04	 add	 esp, 4
  0009d	89 45 dc	 mov	 DWORD PTR tv141[ebp], eax
  000a0	8d 55 0c	 lea	 edx, DWORD PTR __Prev$[ebp]
  000a3	52		 push	 edx
  000a4	8b 45 dc	 mov	 eax, DWORD PTR tv141[ebp]
  000a7	50		 push	 eax
  000a8	8b 4d ec	 mov	 ecx, DWORD PTR _this$[ebp]
  000ab	83 c1 08	 add	 ecx, 8
  000ae	e8 00 00 00 00	 call	 ?construct@?$KAllocator@PAU_Node@?$_List_nod@UKViewObject@KPlayer@@V?$KAllocator@UKViewObject@KPlayer@@@KMemory@@@std@@@KMemory@@QAEXPAPAU_Node@?$_List_nod@UKViewObject@KPlayer@@V?$KAllocator@UKViewObject@KPlayer@@@KMemory@@@std@@ABQAU345@@Z ; KMemory::KAllocator<std::_List_nod<KPlayer::KViewObject,KMemory::KAllocator<KPlayer::KViewObject> >::_Node *>::construct

; 1169 : 		++_Linkcnt;

  000b3	8b 4d e4	 mov	 ecx, DWORD PTR __Linkcnt$[ebp]
  000b6	83 c1 01	 add	 ecx, 1
  000b9	89 4d e4	 mov	 DWORD PTR __Linkcnt$[ebp], ecx

; 1170 : 		this->_Alval.construct(&_Myval(_Pnode), _Val);

  000bc	8b 55 e8	 mov	 edx, DWORD PTR __Pnode$[ebp]
  000bf	52		 push	 edx
  000c0	e8 00 00 00 00	 call	 ?_Myval@?$list@UKViewObject@KPlayer@@V?$KAllocator@UKViewObject@KPlayer@@@KMemory@@@std@@KAAAUKViewObject@KPlayer@@PAU_Node@?$_List_nod@UKViewObject@KPlayer@@V?$KAllocator@UKViewObject@KPlayer@@@KMemory@@@2@@Z ; std::list<KPlayer::KViewObject,KMemory::KAllocator<KPlayer::KViewObject> >::_Myval
  000c5	83 c4 04	 add	 esp, 4
  000c8	89 45 d8	 mov	 DWORD PTR tv142[ebp], eax
  000cb	8b 45 10	 mov	 eax, DWORD PTR __Val$[ebp]
  000ce	50		 push	 eax
  000cf	8b 4d d8	 mov	 ecx, DWORD PTR tv142[ebp]
  000d2	51		 push	 ecx
  000d3	8b 4d ec	 mov	 ecx, DWORD PTR _this$[ebp]
  000d6	83 c1 0c	 add	 ecx, 12			; 0000000cH
  000d9	e8 00 00 00 00	 call	 ?construct@?$KAllocator@UKViewObject@KPlayer@@@KMemory@@QAEXPAUKViewObject@KPlayer@@ABU34@@Z ; KMemory::KAllocator<KPlayer::KViewObject>::construct
  000de	eb 63		 jmp	 SHORT $LN6@Buynode@2
__catch$?_Buynode@?$list@UKViewObject@KPlayer@@V?$KAllocator@UKViewObject@KPlayer@@@KMemory@@@std@@IAEPAU_Node@?$_List_nod@UKViewObject@KPlayer@@V?$KAllocator@UKViewObject@KPlayer@@@KMemory@@@2@PAU342@0ABUKViewObject@KPlayer@@@Z$0:

; 1171 : 		_CATCH_ALL
; 1172 : 		if (1 < _Linkcnt)

  000e0	83 7d e4 01	 cmp	 DWORD PTR __Linkcnt$[ebp], 1
  000e4	7e 18		 jle	 SHORT $LN2@Buynode@2

; 1173 : 			this->_Alptr.destroy(&_Prevnode(_Pnode));

  000e6	8b 55 e8	 mov	 edx, DWORD PTR __Pnode$[ebp]
  000e9	52		 push	 edx
  000ea	e8 00 00 00 00	 call	 ?_Prevnode@?$list@UKViewObject@KPlayer@@V?$KAllocator@UKViewObject@KPlayer@@@KMemory@@@std@@KAAAPAU_Node@?$_List_nod@UKViewObject@KPlayer@@V?$KAllocator@UKViewObject@KPlayer@@@KMemory@@@2@PAU342@@Z ; std::list<KPlayer::KViewObject,KMemory::KAllocator<KPlayer::KViewObject> >::_Prevnode
  000ef	83 c4 04	 add	 esp, 4
  000f2	50		 push	 eax
  000f3	8b 4d ec	 mov	 ecx, DWORD PTR _this$[ebp]
  000f6	83 c1 08	 add	 ecx, 8
  000f9	e8 00 00 00 00	 call	 ?destroy@?$KAllocator@PAU_Node@?$_List_nod@UKViewObject@KPlayer@@V?$KAllocator@UKViewObject@KPlayer@@@KMemory@@@std@@@KMemory@@QAEXPAPAU_Node@?$_List_nod@UKViewObject@KPlayer@@V?$KAllocator@UKViewObject@KPlayer@@@KMemory@@@std@@@Z ; KMemory::KAllocator<std::_List_nod<KPlayer::KViewObject,KMemory::KAllocator<KPlayer::KViewObject> >::_Node *>::destroy
$LN2@Buynode@2:

; 1174 : 		if (0 < _Linkcnt)

  000fe	83 7d e4 00	 cmp	 DWORD PTR __Linkcnt$[ebp], 0
  00102	7e 18		 jle	 SHORT $LN1@Buynode@2

; 1175 : 			this->_Alptr.destroy(&_Nextnode(_Pnode));

  00104	8b 45 e8	 mov	 eax, DWORD PTR __Pnode$[ebp]
  00107	50		 push	 eax
  00108	e8 00 00 00 00	 call	 ?_Nextnode@?$list@UKViewObject@KPlayer@@V?$KAllocator@UKViewObject@KPlayer@@@KMemory@@@std@@KAAAPAU_Node@?$_List_nod@UKViewObject@KPlayer@@V?$KAllocator@UKViewObject@KPlayer@@@KMemory@@@2@PAU342@@Z ; std::list<KPlayer::KViewObject,KMemory::KAllocator<KPlayer::KViewObject> >::_Nextnode
  0010d	83 c4 04	 add	 esp, 4
  00110	50		 push	 eax
  00111	8b 4d ec	 mov	 ecx, DWORD PTR _this$[ebp]
  00114	83 c1 08	 add	 ecx, 8
  00117	e8 00 00 00 00	 call	 ?destroy@?$KAllocator@PAU_Node@?$_List_nod@UKViewObject@KPlayer@@V?$KAllocator@UKViewObject@KPlayer@@@KMemory@@@std@@@KMemory@@QAEXPAPAU_Node@?$_List_nod@UKViewObject@KPlayer@@V?$KAllocator@UKViewObject@KPlayer@@@KMemory@@@std@@@Z ; KMemory::KAllocator<std::_List_nod<KPlayer::KViewObject,KMemory::KAllocator<KPlayer::KViewObject> >::_Node *>::destroy
$LN1@Buynode@2:

; 1176 : 		this->_Alnod.deallocate(_Pnode, 1);

  0011c	6a 01		 push	 1
  0011e	8b 4d e8	 mov	 ecx, DWORD PTR __Pnode$[ebp]
  00121	51		 push	 ecx
  00122	8b 4d ec	 mov	 ecx, DWORD PTR _this$[ebp]
  00125	83 c1 04	 add	 ecx, 4
  00128	e8 00 00 00 00	 call	 ?deallocate@?$KAllocator@U_Node@?$_List_nod@UKViewObject@KPlayer@@V?$KAllocator@UKViewObject@KPlayer@@@KMemory@@@std@@@KMemory@@QAEXPAU_Node@?$_List_nod@UKViewObject@KPlayer@@V?$KAllocator@UKViewObject@KPlayer@@@KMemory@@@std@@I@Z ; KMemory::KAllocator<std::_List_nod<KPlayer::KViewObject,KMemory::KAllocator<KPlayer::KViewObject> >::_Node>::deallocate

; 1177 : 		_RERAISE;

  0012d	6a 00		 push	 0
  0012f	6a 00		 push	 0
  00131	e8 00 00 00 00	 call	 __CxxThrowException@8

; 1178 : 		_CATCH_END

  00136	c7 45 fc ff ff
	ff ff		 mov	 DWORD PTR __$EHRec$[ebp+12], -1
  0013d	b8 00 00 00 00	 mov	 eax, __tryend$?_Buynode@?$list@UKViewObject@KPlayer@@V?$KAllocator@UKViewObject@KPlayer@@@KMemory@@@std@@IAEPAU_Node@?$_List_nod@UKViewObject@KPlayer@@V?$KAllocator@UKViewObject@KPlayer@@@KMemory@@@2@PAU342@0ABUKViewObject@KPlayer@@@Z$1
  00142	c3		 ret	 0
$LN6@Buynode@2:
  00143	c7 45 fc ff ff
	ff ff		 mov	 DWORD PTR __$EHRec$[ebp+12], -1
__tryend$?_Buynode@?$list@UKViewObject@KPlayer@@V?$KAllocator@UKViewObject@KPlayer@@@KMemory@@@std@@IAEPAU_Node@?$_List_nod@UKViewObject@KPlayer@@V?$KAllocator@UKViewObject@KPlayer@@@KMemory@@@2@PAU342@0ABUKViewObject@KPlayer@@@Z$1:

; 1179 : 		return (_Pnode);

  0014a	8b 45 e8	 mov	 eax, DWORD PTR __Pnode$[ebp]
$LN5@Buynode@2:

; 1180 : 		}

  0014d	8b 4d f4	 mov	 ecx, DWORD PTR __$EHRec$[ebp+4]
  00150	64 89 0d 00 00
	00 00		 mov	 DWORD PTR fs:0, ecx
  00157	59		 pop	 ecx
  00158	5f		 pop	 edi
  00159	5e		 pop	 esi
  0015a	5b		 pop	 ebx
  0015b	83 c4 28	 add	 esp, 40			; 00000028H
  0015e	3b ec		 cmp	 ebp, esp
  00160	e8 00 00 00 00	 call	 __RTC_CheckEsp
  00165	8b e5		 mov	 esp, ebp
  00167	5d		 pop	 ebp
  00168	c2 0c 00	 ret	 12			; 0000000cH
_TEXT	ENDS
;	COMDAT text$x
text$x	SEGMENT
__ehhandler$?_Buynode@?$list@UKViewObject@KPlayer@@V?$KAllocator@UKViewObject@KPlayer@@@KMemory@@@std@@IAEPAU_Node@?$_List_nod@UKViewObject@KPlayer@@V?$KAllocator@UKViewObject@KPlayer@@@KMemory@@@2@PAU342@0ABUKViewObject@KPlayer@@@Z:
  00000	8b 54 24 08	 mov	 edx, DWORD PTR [esp+8]
  00004	8d 42 0c	 lea	 eax, DWORD PTR [edx+12]
  00007	8b 4a d4	 mov	 ecx, DWORD PTR [edx-44]
  0000a	33 c8		 xor	 ecx, eax
  0000c	e8 00 00 00 00	 call	 @__security_check_cookie@4
  00011	b8 00 00 00 00	 mov	 eax, OFFSET __ehfuncinfo$?_Buynode@?$list@UKViewObject@KPlayer@@V?$KAllocator@UKViewObject@KPlayer@@@KMemory@@@std@@IAEPAU_Node@?$_List_nod@UKViewObject@KPlayer@@V?$KAllocator@UKViewObject@KPlayer@@@KMemory@@@2@PAU342@0ABUKViewObject@KPlayer@@@Z
  00016	e9 00 00 00 00	 jmp	 ___CxxFrameHandler3
text$x	ENDS
?_Buynode@?$list@UKViewObject@KPlayer@@V?$KAllocator@UKViewObject@KPlayer@@@KMemory@@@std@@IAEPAU_Node@?$_List_nod@UKViewObject@KPlayer@@V?$KAllocator@UKViewObject@KPlayer@@@KMemory@@@2@PAU342@0ABUKViewObject@KPlayer@@@Z ENDP ; std::list<KPlayer::KViewObject,KMemory::KAllocator<KPlayer::KViewObject> >::_Buynode
PUBLIC	??_C@_0BB@MOGOBHAF@list?$DMT?$DO?5too?5long?$AA@ ; `string'
PUBLIC	?max_size@?$list@UKViewObject@KPlayer@@V?$KAllocator@UKViewObject@KPlayer@@@KMemory@@@std@@QBEIXZ ; std::list<KPlayer::KViewObject,KMemory::KAllocator<KPlayer::KViewObject> >::max_size
;	COMDAT ??_C@_0BB@MOGOBHAF@list?$DMT?$DO?5too?5long?$AA@
CONST	SEGMENT
??_C@_0BB@MOGOBHAF@list?$DMT?$DO?5too?5long?$AA@ DB 'list<T> too long', 00H ; `string'
CONST	ENDS
;	COMDAT xdata$x
xdata$x	SEGMENT
__unwindtable$?_Incsize@?$list@UKViewObject@KPlayer@@V?$KAllocator@UKViewObject@KPlayer@@@KMemory@@@std@@IAEXI@Z DD 0ffffffffH
	DD	FLAT:__unwindfunclet$?_Incsize@?$list@UKViewObject@KPlayer@@V?$KAllocator@UKViewObject@KPlayer@@@KMemory@@@std@@IAEXI@Z$0
__ehfuncinfo$?_Incsize@?$list@UKViewObject@KPlayer@@V?$KAllocator@UKViewObject@KPlayer@@@KMemory@@@std@@IAEXI@Z DD 019930522H
	DD	01H
	DD	FLAT:__unwindtable$?_Incsize@?$list@UKViewObject@KPlayer@@V?$KAllocator@UKViewObject@KPlayer@@@KMemory@@@std@@IAEXI@Z
	DD	2 DUP(00H)
	DD	2 DUP(00H)
	DD	00H
	DD	01H
; Function compile flags: /Odtp /RTCsu
xdata$x	ENDS
;	COMDAT ?_Incsize@?$list@UKViewObject@KPlayer@@V?$KAllocator@UKViewObject@KPlayer@@@KMemory@@@std@@IAEXI@Z
_TEXT	SEGMENT
$T187199 = -92						; size = 32
$T187198 = -60						; size = 44
_this$ = -16						; size = 4
__$EHRec$ = -12						; size = 12
__Count$ = 8						; size = 4
?_Incsize@?$list@UKViewObject@KPlayer@@V?$KAllocator@UKViewObject@KPlayer@@@KMemory@@@std@@IAEXI@Z PROC ; std::list<KPlayer::KViewObject,KMemory::KAllocator<KPlayer::KViewObject> >::_Incsize, COMDAT
; _this$ = ecx

; 1210 : 		{	// alter element count, with checking

  00000	55		 push	 ebp
  00001	8b ec		 mov	 ebp, esp
  00003	6a ff		 push	 -1
  00005	68 00 00 00 00	 push	 __ehhandler$?_Incsize@?$list@UKViewObject@KPlayer@@V?$KAllocator@UKViewObject@KPlayer@@@KMemory@@@std@@IAEXI@Z
  0000a	64 a1 00 00 00
	00		 mov	 eax, DWORD PTR fs:0
  00010	50		 push	 eax
  00011	83 ec 50	 sub	 esp, 80			; 00000050H
  00014	56		 push	 esi
  00015	57		 push	 edi
  00016	51		 push	 ecx
  00017	8d 7d a4	 lea	 edi, DWORD PTR [ebp-92]
  0001a	b9 14 00 00 00	 mov	 ecx, 20			; 00000014H
  0001f	b8 cc cc cc cc	 mov	 eax, -858993460		; ccccccccH
  00024	f3 ab		 rep stosd
  00026	59		 pop	 ecx
  00027	a1 00 00 00 00	 mov	 eax, DWORD PTR ___security_cookie
  0002c	33 c5		 xor	 eax, ebp
  0002e	50		 push	 eax
  0002f	8d 45 f4	 lea	 eax, DWORD PTR __$EHRec$[ebp]
  00032	64 a3 00 00 00
	00		 mov	 DWORD PTR fs:0, eax
  00038	89 4d f0	 mov	 DWORD PTR _this$[ebp], ecx

; 1211 : 		if (max_size() - _Mysize < _Count)

  0003b	8b 4d f0	 mov	 ecx, DWORD PTR _this$[ebp]
  0003e	e8 00 00 00 00	 call	 ?max_size@?$list@UKViewObject@KPlayer@@V?$KAllocator@UKViewObject@KPlayer@@@KMemory@@@std@@QBEIXZ ; std::list<KPlayer::KViewObject,KMemory::KAllocator<KPlayer::KViewObject> >::max_size
  00043	8b 4d f0	 mov	 ecx, DWORD PTR _this$[ebp]
  00046	2b 41 14	 sub	 eax, DWORD PTR [ecx+20]
  00049	3b 45 08	 cmp	 eax, DWORD PTR __Count$[ebp]
  0004c	73 51		 jae	 SHORT $LN1@Incsize

; 1212 : 			_THROW(length_error, "list<T> too long");

  0004e	8b f4		 mov	 esi, esp
  00050	68 00 00 00 00	 push	 OFFSET ??_C@_0BB@MOGOBHAF@list?$DMT?$DO?5too?5long?$AA@
  00055	8d 4d a4	 lea	 ecx, DWORD PTR $T187199[ebp]
  00058	ff 15 00 00 00
	00		 call	 DWORD PTR __imp_??0?$basic_string@DU?$char_traits@D@std@@V?$allocator@D@2@@std@@QAE@PBD@Z
  0005e	3b f4		 cmp	 esi, esp
  00060	e8 00 00 00 00	 call	 __RTC_CheckEsp
  00065	c7 45 fc 00 00
	00 00		 mov	 DWORD PTR __$EHRec$[ebp+8], 0
  0006c	8d 55 a4	 lea	 edx, DWORD PTR $T187199[ebp]
  0006f	52		 push	 edx
  00070	8d 4d c4	 lea	 ecx, DWORD PTR $T187198[ebp]
  00073	e8 00 00 00 00	 call	 ??0length_error@std@@QAE@ABV?$basic_string@DU?$char_traits@D@std@@V?$allocator@D@2@@1@@Z ; std::length_error::length_error
  00078	68 00 00 00 00	 push	 OFFSET __TI3?AVlength_error@std@@
  0007d	8d 45 c4	 lea	 eax, DWORD PTR $T187198[ebp]
  00080	50		 push	 eax
  00081	e8 00 00 00 00	 call	 __CxxThrowException@8
  00086	c7 45 fc ff ff
	ff ff		 mov	 DWORD PTR __$EHRec$[ebp+8], -1
  0008d	8b f4		 mov	 esi, esp
  0008f	8d 4d a4	 lea	 ecx, DWORD PTR $T187199[ebp]
  00092	ff 15 00 00 00
	00		 call	 DWORD PTR __imp_??1?$basic_string@DU?$char_traits@D@std@@V?$allocator@D@2@@std@@QAE@XZ
  00098	3b f4		 cmp	 esi, esp
  0009a	e8 00 00 00 00	 call	 __RTC_CheckEsp
$LN1@Incsize:

; 1213 : 		_Mysize += _Count;

  0009f	8b 4d f0	 mov	 ecx, DWORD PTR _this$[ebp]
  000a2	8b 51 14	 mov	 edx, DWORD PTR [ecx+20]
  000a5	03 55 08	 add	 edx, DWORD PTR __Count$[ebp]
  000a8	8b 45 f0	 mov	 eax, DWORD PTR _this$[ebp]
  000ab	89 50 14	 mov	 DWORD PTR [eax+20], edx
$LN3@Incsize:

; 1214 : 		}

  000ae	8b 4d f4	 mov	 ecx, DWORD PTR __$EHRec$[ebp]
  000b1	64 89 0d 00 00
	00 00		 mov	 DWORD PTR fs:0, ecx
  000b8	59		 pop	 ecx
  000b9	5f		 pop	 edi
  000ba	5e		 pop	 esi
  000bb	83 c4 5c	 add	 esp, 92			; 0000005cH
  000be	3b ec		 cmp	 ebp, esp
  000c0	e8 00 00 00 00	 call	 __RTC_CheckEsp
  000c5	8b e5		 mov	 esp, ebp
  000c7	5d		 pop	 ebp
  000c8	c2 04 00	 ret	 4
_TEXT	ENDS
;	COMDAT text$x
text$x	SEGMENT
__unwindfunclet$?_Incsize@?$list@UKViewObject@KPlayer@@V?$KAllocator@UKViewObject@KPlayer@@@KMemory@@@std@@IAEXI@Z$0:
  00000	8b f4		 mov	 esi, esp
  00002	8d 4d a4	 lea	 ecx, DWORD PTR $T187199[ebp]
  00005	ff 15 00 00 00
	00		 call	 DWORD PTR __imp_??1?$basic_string@DU?$char_traits@D@std@@V?$allocator@D@2@@std@@QAE@XZ
  0000b	3b f4		 cmp	 esi, esp
  0000d	e9 00 00 00 00	 jmp	 __RTC_CheckEsp
__ehhandler$?_Incsize@?$list@UKViewObject@KPlayer@@V?$KAllocator@UKViewObject@KPlayer@@@KMemory@@@std@@IAEXI@Z:
  00012	8b 54 24 08	 mov	 edx, DWORD PTR [esp+8]
  00016	8d 42 0c	 lea	 eax, DWORD PTR [edx+12]
  00019	8b 4a a4	 mov	 ecx, DWORD PTR [edx-92]
  0001c	33 c8		 xor	 ecx, eax
  0001e	e8 00 00 00 00	 call	 @__security_check_cookie@4
  00023	b8 00 00 00 00	 mov	 eax, OFFSET __ehfuncinfo$?_Incsize@?$list@UKViewObject@KPlayer@@V?$KAllocator@UKViewObject@KPlayer@@@KMemory@@@std@@IAEXI@Z
  00028	e9 00 00 00 00	 jmp	 ___CxxFrameHandler3
text$x	ENDS
?_Incsize@?$list@UKViewObject@KPlayer@@V?$KAllocator@UKViewObject@KPlayer@@@KMemory@@@std@@IAEXI@Z ENDP ; std::list<KPlayer::KViewObject,KMemory::KAllocator<KPlayer::KViewObject> >::_Incsize
PUBLIC	??0?$_Bidit@KHPBKABK@std@@QAE@XZ		; std::_Bidit<unsigned long,int,unsigned long const *,unsigned long const &>::_Bidit<unsigned long,int,unsigned long const *,unsigned long const &>
; Function compile flags: /Odtp /RTCsu
; File d:\program files\microsoft visual studio 8\vc\include\xtree
;	COMDAT ??0const_iterator@?$_Tree@V?$_Tset_traits@KU?$less@K@std@@V?$KAllocator@K@KMemory@@$0A@@std@@@std@@QAE@XZ
_TEXT	SEGMENT
_this$ = -4						; size = 4
??0const_iterator@?$_Tree@V?$_Tset_traits@KU?$less@K@std@@V?$KAllocator@K@KMemory@@$0A@@std@@@std@@QAE@XZ PROC ; std::_Tree<std::_Tset_traits<unsigned long,std::less<unsigned long>,KMemory::KAllocator<unsigned long>,0> >::const_iterator::const_iterator, COMDAT
; _this$ = ecx

; 207  : 			{	// construct with null node pointer

  00000	55		 push	 ebp
  00001	8b ec		 mov	 ebp, esp
  00003	51		 push	 ecx
  00004	c7 45 fc cc cc
	cc cc		 mov	 DWORD PTR [ebp-4], -858993460 ; ccccccccH
  0000b	89 4d fc	 mov	 DWORD PTR _this$[ebp], ecx
  0000e	8b 4d fc	 mov	 ecx, DWORD PTR _this$[ebp]
  00011	e8 00 00 00 00	 call	 ??0?$_Bidit@KHPBKABK@std@@QAE@XZ
  00016	8b 45 fc	 mov	 eax, DWORD PTR _this$[ebp]
  00019	c7 40 08 00 00
	00 00		 mov	 DWORD PTR [eax+8], 0

; 208  : 			}

  00020	8b 45 fc	 mov	 eax, DWORD PTR _this$[ebp]
  00023	83 c4 04	 add	 esp, 4
  00026	3b ec		 cmp	 ebp, esp
  00028	e8 00 00 00 00	 call	 __RTC_CheckEsp
  0002d	8b e5		 mov	 esp, ebp
  0002f	5d		 pop	 ebp
  00030	c3		 ret	 0
??0const_iterator@?$_Tree@V?$_Tset_traits@KU?$less@K@std@@V?$KAllocator@K@KMemory@@$0A@@std@@@std@@QAE@XZ ENDP ; std::_Tree<std::_Tset_traits<unsigned long,std::less<unsigned long>,KMemory::KAllocator<unsigned long>,0> >::const_iterator::const_iterator
_TEXT	ENDS
;	COMDAT xdata$x
xdata$x	SEGMENT
__unwindtable$??0const_iterator@?$_Tree@V?$_Tset_traits@KU?$less@K@std@@V?$KAllocator@K@KMemory@@$0A@@std@@@std@@QAE@PAU_Node@?$_Tree_nod@V?$_Tset_traits@KU?$less@K@std@@V?$KAllocator@K@KMemory@@$0A@@std@@@2@PBV12@@Z DD 0ffffffffH
	DD	FLAT:__unwindfunclet$??0const_iterator@?$_Tree@V?$_Tset_traits@KU?$less@K@std@@V?$KAllocator@K@KMemory@@$0A@@std@@@std@@QAE@PAU_Node@?$_Tree_nod@V?$_Tset_traits@KU?$less@K@std@@V?$KAllocator@K@KMemory@@$0A@@std@@@2@PBV12@@Z$0
__ehfuncinfo$??0const_iterator@?$_Tree@V?$_Tset_traits@KU?$less@K@std@@V?$KAllocator@K@KMemory@@$0A@@std@@@std@@QAE@PAU_Node@?$_Tree_nod@V?$_Tset_traits@KU?$less@K@std@@V?$KAllocator@K@KMemory@@$0A@@std@@@2@PBV12@@Z DD 019930522H
	DD	01H
	DD	FLAT:__unwindtable$??0const_iterator@?$_Tree@V?$_Tset_traits@KU?$less@K@std@@V?$KAllocator@K@KMemory@@$0A@@std@@@std@@QAE@PAU_Node@?$_Tree_nod@V?$_Tset_traits@KU?$less@K@std@@V?$KAllocator@K@KMemory@@$0A@@std@@@2@PBV12@@Z
	DD	2 DUP(00H)
	DD	2 DUP(00H)
	DD	00H
	DD	01H
; Function compile flags: /Odtp /RTCsu
xdata$x	ENDS
;	COMDAT ??0const_iterator@?$_Tree@V?$_Tset_traits@KU?$less@K@std@@V?$KAllocator@K@KMemory@@$0A@@std@@@std@@QAE@PAU_Node@?$_Tree_nod@V?$_Tset_traits@KU?$less@K@std@@V?$KAllocator@K@KMemory@@$0A@@std@@@2@PBV12@@Z
_TEXT	SEGMENT
_this$ = -16						; size = 4
__$EHRec$ = -12						; size = 12
__Pnode$ = 8						; size = 4
__Plist$ = 12						; size = 4
??0const_iterator@?$_Tree@V?$_Tset_traits@KU?$less@K@std@@V?$KAllocator@K@KMemory@@$0A@@std@@@std@@QAE@PAU_Node@?$_Tree_nod@V?$_Tset_traits@KU?$less@K@std@@V?$KAllocator@K@KMemory@@$0A@@std@@@2@PBV12@@Z PROC ; std::_Tree<std::_Tset_traits<unsigned long,std::less<unsigned long>,KMemory::KAllocator<unsigned long>,0> >::const_iterator::const_iterator, COMDAT
; _this$ = ecx

; 215  : 			{	// construct with node pointer _Pnode

  00000	55		 push	 ebp
  00001	8b ec		 mov	 ebp, esp
  00003	6a ff		 push	 -1
  00005	68 00 00 00 00	 push	 __ehhandler$??0const_iterator@?$_Tree@V?$_Tset_traits@KU?$less@K@std@@V?$KAllocator@K@KMemory@@$0A@@std@@@std@@QAE@PAU_Node@?$_Tree_nod@V?$_Tset_traits@KU?$less@K@std@@V?$KAllocator@K@KMemory@@$0A@@std@@@2@PBV12@@Z
  0000a	64 a1 00 00 00
	00		 mov	 eax, DWORD PTR fs:0
  00010	50		 push	 eax
  00011	51		 push	 ecx
  00012	c7 45 f0 cc cc
	cc cc		 mov	 DWORD PTR [ebp-16], -858993460 ; ccccccccH
  00019	a1 00 00 00 00	 mov	 eax, DWORD PTR ___security_cookie
  0001e	33 c5		 xor	 eax, ebp
  00020	50		 push	 eax
  00021	8d 45 f4	 lea	 eax, DWORD PTR __$EHRec$[ebp]
  00024	64 a3 00 00 00
	00		 mov	 DWORD PTR fs:0, eax
  0002a	89 4d f0	 mov	 DWORD PTR _this$[ebp], ecx
  0002d	8b 4d f0	 mov	 ecx, DWORD PTR _this$[ebp]
  00030	e8 00 00 00 00	 call	 ??0?$_Bidit@KHPBKABK@std@@QAE@XZ
  00035	c7 45 fc 00 00
	00 00		 mov	 DWORD PTR __$EHRec$[ebp+8], 0
  0003c	8b 45 f0	 mov	 eax, DWORD PTR _this$[ebp]
  0003f	8b 4d 08	 mov	 ecx, DWORD PTR __Pnode$[ebp]
  00042	89 48 08	 mov	 DWORD PTR [eax+8], ecx

; 216  : 			this->_Adopt(_Plist);

  00045	8b 55 0c	 mov	 edx, DWORD PTR __Plist$[ebp]
  00048	52		 push	 edx
  00049	8b 4d f0	 mov	 ecx, DWORD PTR _this$[ebp]
  0004c	e8 00 00 00 00	 call	 ?_Adopt@_Iterator_base@std@@QAEXPBV_Container_base@2@@Z ; std::_Iterator_base::_Adopt

; 217  : 			}

  00051	c7 45 fc ff ff
	ff ff		 mov	 DWORD PTR __$EHRec$[ebp+8], -1
  00058	8b 45 f0	 mov	 eax, DWORD PTR _this$[ebp]
  0005b	8b 4d f4	 mov	 ecx, DWORD PTR __$EHRec$[ebp]
  0005e	64 89 0d 00 00
	00 00		 mov	 DWORD PTR fs:0, ecx
  00065	59		 pop	 ecx
  00066	83 c4 10	 add	 esp, 16			; 00000010H
  00069	3b ec		 cmp	 ebp, esp
  0006b	e8 00 00 00 00	 call	 __RTC_CheckEsp
  00070	8b e5		 mov	 esp, ebp
  00072	5d		 pop	 ebp
  00073	c2 08 00	 ret	 8
_TEXT	ENDS
;	COMDAT text$x
text$x	SEGMENT
__unwindfunclet$??0const_iterator@?$_Tree@V?$_Tset_traits@KU?$less@K@std@@V?$KAllocator@K@KMemory@@$0A@@std@@@std@@QAE@PAU_Node@?$_Tree_nod@V?$_Tset_traits@KU?$less@K@std@@V?$KAllocator@K@KMemory@@$0A@@std@@@2@PBV12@@Z$0:
  00000	8b 4d f0	 mov	 ecx, DWORD PTR _this$[ebp]
  00003	e9 00 00 00 00	 jmp	 ??1?$_Bidit@KHPBKABK@std@@QAE@XZ
__ehhandler$??0const_iterator@?$_Tree@V?$_Tset_traits@KU?$less@K@std@@V?$KAllocator@K@KMemory@@$0A@@std@@@std@@QAE@PAU_Node@?$_Tree_nod@V?$_Tset_traits@KU?$less@K@std@@V?$KAllocator@K@KMemory@@$0A@@std@@@2@PBV12@@Z:
  00008	8b 54 24 08	 mov	 edx, DWORD PTR [esp+8]
  0000c	8d 42 0c	 lea	 eax, DWORD PTR [edx+12]
  0000f	8b 4a f8	 mov	 ecx, DWORD PTR [edx-8]
  00012	33 c8		 xor	 ecx, eax
  00014	e8 00 00 00 00	 call	 @__security_check_cookie@4
  00019	b8 00 00 00 00	 mov	 eax, OFFSET __ehfuncinfo$??0const_iterator@?$_Tree@V?$_Tset_traits@KU?$less@K@std@@V?$KAllocator@K@KMemory@@$0A@@std@@@std@@QAE@PAU_Node@?$_Tree_nod@V?$_Tset_traits@KU?$less@K@std@@V?$KAllocator@K@KMemory@@$0A@@std@@@2@PBV12@@Z
  0001e	e9 00 00 00 00	 jmp	 ___CxxFrameHandler3
text$x	ENDS
??0const_iterator@?$_Tree@V?$_Tset_traits@KU?$less@K@std@@V?$KAllocator@K@KMemory@@$0A@@std@@@std@@QAE@PAU_Node@?$_Tree_nod@V?$_Tset_traits@KU?$less@K@std@@V?$KAllocator@K@KMemory@@$0A@@std@@@2@PBV12@@Z ENDP ; std::_Tree<std::_Tset_traits<unsigned long,std::less<unsigned long>,KMemory::KAllocator<unsigned long>,0> >::const_iterator::const_iterator
PUBLIC	?_Dec@const_iterator@?$_Tree@V?$_Tset_traits@KU?$less@K@std@@V?$KAllocator@K@KMemory@@$0A@@std@@@std@@QAEXXZ ; std::_Tree<std::_Tset_traits<unsigned long,std::less<unsigned long>,KMemory::KAllocator<unsigned long>,0> >::const_iterator::_Dec
; Function compile flags: /Odtp /RTCsu
;	COMDAT ??Fconst_iterator@?$_Tree@V?$_Tset_traits@KU?$less@K@std@@V?$KAllocator@K@KMemory@@$0A@@std@@@std@@QAEAAV012@XZ
_TEXT	SEGMENT
_this$ = -4						; size = 4
??Fconst_iterator@?$_Tree@V?$_Tset_traits@KU?$less@K@std@@V?$KAllocator@K@KMemory@@$0A@@std@@@std@@QAEAAV012@XZ PROC ; std::_Tree<std::_Tset_traits<unsigned long,std::less<unsigned long>,KMemory::KAllocator<unsigned long>,0> >::const_iterator::operator--, COMDAT
; _this$ = ecx

; 275  : 			{	// predecrement

  00000	55		 push	 ebp
  00001	8b ec		 mov	 ebp, esp
  00003	51		 push	 ecx
  00004	c7 45 fc cc cc
	cc cc		 mov	 DWORD PTR [ebp-4], -858993460 ; ccccccccH
  0000b	89 4d fc	 mov	 DWORD PTR _this$[ebp], ecx

; 276  : 			_Dec();

  0000e	8b 4d fc	 mov	 ecx, DWORD PTR _this$[ebp]
  00011	e8 00 00 00 00	 call	 ?_Dec@const_iterator@?$_Tree@V?$_Tset_traits@KU?$less@K@std@@V?$KAllocator@K@KMemory@@$0A@@std@@@std@@QAEXXZ ; std::_Tree<std::_Tset_traits<unsigned long,std::less<unsigned long>,KMemory::KAllocator<unsigned long>,0> >::const_iterator::_Dec

; 277  : 			return (*this);

  00016	8b 45 fc	 mov	 eax, DWORD PTR _this$[ebp]

; 278  : 			}

  00019	83 c4 04	 add	 esp, 4
  0001c	3b ec		 cmp	 ebp, esp
  0001e	e8 00 00 00 00	 call	 __RTC_CheckEsp
  00023	8b e5		 mov	 esp, ebp
  00025	5d		 pop	 ebp
  00026	c3		 ret	 0
??Fconst_iterator@?$_Tree@V?$_Tset_traits@KU?$less@K@std@@V?$KAllocator@K@KMemory@@$0A@@std@@@std@@QAEAAV012@XZ ENDP ; std::_Tree<std::_Tset_traits<unsigned long,std::less<unsigned long>,KMemory::KAllocator<unsigned long>,0> >::const_iterator::operator--
_TEXT	ENDS
PUBLIC	??0?$_Const_iterator@$00@?$list@UKViewObject@KPlayer@@V?$KAllocator@UKViewObject@KPlayer@@@KMemory@@@std@@QAE@PAU_Node@?$_List_nod@UKViewObject@KPlayer@@V?$KAllocator@UKViewObject@KPlayer@@@KMemory@@@2@PBV12@@Z ; std::list<KPlayer::KViewObject,KMemory::KAllocator<KPlayer::KViewObject> >::_Const_iterator<1>::_Const_iterator<1>
; Function compile flags: /Odtp /RTCsu
; File d:\program files\microsoft visual studio 8\vc\include\list
;	COMDAT ??0?$_Iterator@$00@?$list@UKViewObject@KPlayer@@V?$KAllocator@UKViewObject@KPlayer@@@KMemory@@@std@@QAE@PAU_Node@?$_List_nod@UKViewObject@KPlayer@@V?$KAllocator@UKViewObject@KPlayer@@@KMemory@@@2@PBV12@@Z
_TEXT	SEGMENT
_this$ = -4						; size = 4
__Pnode$ = 8						; size = 4
__Plist$ = 12						; size = 4
??0?$_Iterator@$00@?$list@UKViewObject@KPlayer@@V?$KAllocator@UKViewObject@KPlayer@@@KMemory@@@std@@QAE@PAU_Node@?$_List_nod@UKViewObject@KPlayer@@V?$KAllocator@UKViewObject@KPlayer@@@KMemory@@@2@PBV12@@Z PROC ; std::list<KPlayer::KViewObject,KMemory::KAllocator<KPlayer::KViewObject> >::_Iterator<1>::_Iterator<1>, COMDAT
; _this$ = ecx

; 349  : 			{	// construct with node pointer _Pnode

  00000	55		 push	 ebp
  00001	8b ec		 mov	 ebp, esp
  00003	51		 push	 ecx
  00004	c7 45 fc cc cc
	cc cc		 mov	 DWORD PTR [ebp-4], -858993460 ; ccccccccH
  0000b	89 4d fc	 mov	 DWORD PTR _this$[ebp], ecx
  0000e	8b 45 0c	 mov	 eax, DWORD PTR __Plist$[ebp]
  00011	50		 push	 eax
  00012	8b 4d 08	 mov	 ecx, DWORD PTR __Pnode$[ebp]
  00015	51		 push	 ecx
  00016	8b 4d fc	 mov	 ecx, DWORD PTR _this$[ebp]
  00019	e8 00 00 00 00	 call	 ??0?$_Const_iterator@$00@?$list@UKViewObject@KPlayer@@V?$KAllocator@UKViewObject@KPlayer@@@KMemory@@@std@@QAE@PAU_Node@?$_List_nod@UKViewObject@KPlayer@@V?$KAllocator@UKViewObject@KPlayer@@@KMemory@@@2@PBV12@@Z ; std::list<KPlayer::KViewObject,KMemory::KAllocator<KPlayer::KViewObject> >::_Const_iterator<1>::_Const_iterator<1>

; 350  : 			}

  0001e	8b 45 fc	 mov	 eax, DWORD PTR _this$[ebp]
  00021	83 c4 04	 add	 esp, 4
  00024	3b ec		 cmp	 ebp, esp
  00026	e8 00 00 00 00	 call	 __RTC_CheckEsp
  0002b	8b e5		 mov	 esp, ebp
  0002d	5d		 pop	 ebp
  0002e	c2 08 00	 ret	 8
??0?$_Iterator@$00@?$list@UKViewObject@KPlayer@@V?$KAllocator@UKViewObject@KPlayer@@@KMemory@@@std@@QAE@PAU_Node@?$_List_nod@UKViewObject@KPlayer@@V?$KAllocator@UKViewObject@KPlayer@@@KMemory@@@2@PBV12@@Z ENDP ; std::list<KPlayer::KViewObject,KMemory::KAllocator<KPlayer::KViewObject> >::_Iterator<1>::_Iterator<1>
; Function compile flags: /Odtp /RTCsu
_TEXT	ENDS
;	COMDAT ?_Mynode@?$_Const_iterator@$00@?$list@UKViewObject@KPlayer@@V?$KAllocator@UKViewObject@KPlayer@@@KMemory@@@std@@QBEPAU_Node@?$_List_nod@UKViewObject@KPlayer@@V?$KAllocator@UKViewObject@KPlayer@@@KMemory@@@3@XZ
_TEXT	SEGMENT
_this$ = -4						; size = 4
?_Mynode@?$_Const_iterator@$00@?$list@UKViewObject@KPlayer@@V?$KAllocator@UKViewObject@KPlayer@@@KMemory@@@std@@QBEPAU_Node@?$_List_nod@UKViewObject@KPlayer@@V?$KAllocator@UKViewObject@KPlayer@@@KMemory@@@3@XZ PROC ; std::list<KPlayer::KViewObject,KMemory::KAllocator<KPlayer::KViewObject> >::_Const_iterator<1>::_Mynode, COMDAT
; _this$ = ecx

; 299  : 			{	// return node pointer

  00000	55		 push	 ebp
  00001	8b ec		 mov	 ebp, esp
  00003	51		 push	 ecx
  00004	c7 45 fc cc cc
	cc cc		 mov	 DWORD PTR [ebp-4], -858993460 ; ccccccccH
  0000b	89 4d fc	 mov	 DWORD PTR _this$[ebp], ecx

; 300  : 			return (_Ptr);

  0000e	8b 45 fc	 mov	 eax, DWORD PTR _this$[ebp]
  00011	8b 40 08	 mov	 eax, DWORD PTR [eax+8]

; 301  : 			}

  00014	8b e5		 mov	 esp, ebp
  00016	5d		 pop	 ebp
  00017	c3		 ret	 0
?_Mynode@?$_Const_iterator@$00@?$list@UKViewObject@KPlayer@@V?$KAllocator@UKViewObject@KPlayer@@@KMemory@@@std@@QBEPAU_Node@?$_List_nod@UKViewObject@KPlayer@@V?$KAllocator@UKViewObject@KPlayer@@@KMemory@@@3@XZ ENDP ; std::list<KPlayer::KViewObject,KMemory::KAllocator<KPlayer::KViewObject> >::_Const_iterator<1>::_Mynode
_TEXT	ENDS
PUBLIC	??0_Iterator_base@std@@QAE@XZ			; std::_Iterator_base::_Iterator_base
; Function compile flags: /Odtp /RTCsu
;	COMDAT ??0?$_Bidit@KHPBKABK@std@@QAE@XZ
_TEXT	SEGMENT
_this$ = -4						; size = 4
??0?$_Bidit@KHPBKABK@std@@QAE@XZ PROC			; std::_Bidit<unsigned long,int,unsigned long const *,unsigned long const &>::_Bidit<unsigned long,int,unsigned long const *,unsigned long const &>, COMDAT
; _this$ = ecx
  00000	55		 push	 ebp
  00001	8b ec		 mov	 ebp, esp
  00003	51		 push	 ecx
  00004	c7 45 fc cc cc
	cc cc		 mov	 DWORD PTR [ebp-4], -858993460 ; ccccccccH
  0000b	89 4d fc	 mov	 DWORD PTR _this$[ebp], ecx
  0000e	8b 4d fc	 mov	 ecx, DWORD PTR _this$[ebp]
  00011	e8 00 00 00 00	 call	 ??0_Iterator_base@std@@QAE@XZ ; std::_Iterator_base::_Iterator_base
  00016	8b 45 fc	 mov	 eax, DWORD PTR _this$[ebp]
  00019	83 c4 04	 add	 esp, 4
  0001c	3b ec		 cmp	 ebp, esp
  0001e	e8 00 00 00 00	 call	 __RTC_CheckEsp
  00023	8b e5		 mov	 esp, ebp
  00025	5d		 pop	 ebp
  00026	c3		 ret	 0
??0?$_Bidit@KHPBKABK@std@@QAE@XZ ENDP			; std::_Bidit<unsigned long,int,unsigned long const *,unsigned long const &>::_Bidit<unsigned long,int,unsigned long const *,unsigned long const &>
; Function compile flags: /Odtp /RTCsu
; File d:\program files\microsoft visual studio 8\vc\include\xutility
_TEXT	ENDS
;	COMDAT ??0_Iterator_base@std@@QAE@XZ
_TEXT	SEGMENT
_this$ = -4						; size = 4
??0_Iterator_base@std@@QAE@XZ PROC			; std::_Iterator_base::_Iterator_base, COMDAT
; _this$ = ecx

; 127  : 		{	// construct orphaned iterator

  00000	55		 push	 ebp
  00001	8b ec		 mov	 ebp, esp
  00003	51		 push	 ecx
  00004	c7 45 fc cc cc
	cc cc		 mov	 DWORD PTR [ebp-4], -858993460 ; ccccccccH
  0000b	89 4d fc	 mov	 DWORD PTR _this$[ebp], ecx
  0000e	8b 45 fc	 mov	 eax, DWORD PTR _this$[ebp]
  00011	c7 00 00 00 00
	00		 mov	 DWORD PTR [eax], 0
  00017	8b 4d fc	 mov	 ecx, DWORD PTR _this$[ebp]
  0001a	c7 41 04 00 00
	00 00		 mov	 DWORD PTR [ecx+4], 0

; 128  : 		}

  00021	8b 45 fc	 mov	 eax, DWORD PTR _this$[ebp]
  00024	8b e5		 mov	 esp, ebp
  00026	5d		 pop	 ebp
  00027	c3		 ret	 0
??0_Iterator_base@std@@QAE@XZ ENDP			; std::_Iterator_base::_Iterator_base
; Function compile flags: /Odtp /RTCsu
; File d:\code\game\base\include\engine\kmemory.h
_TEXT	ENDS
;	COMDAT ?max_size@?$KAllocator@K@KMemory@@QBEIXZ
_TEXT	SEGMENT
_this$ = -4						; size = 4
?max_size@?$KAllocator@K@KMemory@@QBEIXZ PROC		; KMemory::KAllocator<unsigned long>::max_size, COMDAT
; _this$ = ecx

; 102  :     {

  00000	55		 push	 ebp
  00001	8b ec		 mov	 ebp, esp
  00003	51		 push	 ecx
  00004	c7 45 fc cc cc
	cc cc		 mov	 DWORD PTR [ebp-4], -858993460 ; ccccccccH
  0000b	89 4d fc	 mov	 DWORD PTR _this$[ebp], ecx

; 103  :         return (size_type)(-1) / sizeof(value_type);

  0000e	b8 ff ff ff 3f	 mov	 eax, 1073741823		; 3fffffffH

; 104  :     }

  00013	8b e5		 mov	 esp, ebp
  00015	5d		 pop	 ebp
  00016	c3		 ret	 0
?max_size@?$KAllocator@K@KMemory@@QBEIXZ ENDP		; KMemory::KAllocator<unsigned long>::max_size
_TEXT	ENDS
EXTRN	__imp_?RawAlloc@KMemory@@YAPAXI@Z:PROC
; Function compile flags: /Odtp /RTCsu
;	COMDAT ?allocate@?$KAllocator@U_Node@?$_Tree_nod@V?$_Tset_traits@KU?$less@K@std@@V?$KAllocator@K@KMemory@@$0A@@std@@@std@@@KMemory@@QAEPAU_Node@?$_Tree_nod@V?$_Tset_traits@KU?$less@K@std@@V?$KAllocator@K@KMemory@@$0A@@std@@@std@@IPBU345@@Z
_TEXT	SEGMENT
_this$ = -4						; size = 4
_Count$ = 8						; size = 4
___formal$ = 12						; size = 4
?allocate@?$KAllocator@U_Node@?$_Tree_nod@V?$_Tset_traits@KU?$less@K@std@@V?$KAllocator@K@KMemory@@$0A@@std@@@std@@@KMemory@@QAEPAU_Node@?$_Tree_nod@V?$_Tset_traits@KU?$less@K@std@@V?$KAllocator@K@KMemory@@$0A@@std@@@std@@IPBU345@@Z PROC ; KMemory::KAllocator<std::_Tree_nod<std::_Tset_traits<unsigned long,std::less<unsigned long>,KMemory::KAllocator<unsigned long>,0> >::_Node>::allocate, COMDAT
; _this$ = ecx

; 92   :     {

  00000	55		 push	 ebp
  00001	8b ec		 mov	 ebp, esp
  00003	51		 push	 ecx
  00004	56		 push	 esi
  00005	c7 45 fc cc cc
	cc cc		 mov	 DWORD PTR [ebp-4], -858993460 ; ccccccccH
  0000c	89 4d fc	 mov	 DWORD PTR _this$[ebp], ecx

; 93   :         return (pointer)KMemory::RawAlloc(sizeof(value_type) * Count);

  0000f	8b 45 08	 mov	 eax, DWORD PTR _Count$[ebp]
  00012	6b c0 14	 imul	 eax, 20			; 00000014H
  00015	8b f4		 mov	 esi, esp
  00017	50		 push	 eax
  00018	ff 15 00 00 00
	00		 call	 DWORD PTR __imp_?RawAlloc@KMemory@@YAPAXI@Z
  0001e	83 c4 04	 add	 esp, 4
  00021	3b f4		 cmp	 esi, esp
  00023	e8 00 00 00 00	 call	 __RTC_CheckEsp

; 94   :     }

  00028	5e		 pop	 esi
  00029	83 c4 04	 add	 esp, 4
  0002c	3b ec		 cmp	 ebp, esp
  0002e	e8 00 00 00 00	 call	 __RTC_CheckEsp
  00033	8b e5		 mov	 esp, ebp
  00035	5d		 pop	 ebp
  00036	c2 08 00	 ret	 8
?allocate@?$KAllocator@U_Node@?$_Tree_nod@V?$_Tset_traits@KU?$less@K@std@@V?$KAllocator@K@KMemory@@$0A@@std@@@std@@@KMemory@@QAEPAU_Node@?$_Tree_nod@V?$_Tset_traits@KU?$less@K@std@@V?$KAllocator@K@KMemory@@$0A@@std@@@std@@IPBU345@@Z ENDP ; KMemory::KAllocator<std::_Tree_nod<std::_Tset_traits<unsigned long,std::less<unsigned long>,KMemory::KAllocator<unsigned long>,0> >::_Node>::allocate
_TEXT	ENDS
EXTRN	__imp_?RawFree@KMemory@@YAXPAXI@Z:PROC
; Function compile flags: /Odtp /RTCsu
;	COMDAT ?deallocate@?$KAllocator@U_Node@?$_Tree_nod@V?$_Tset_traits@KU?$less@K@std@@V?$KAllocator@K@KMemory@@$0A@@std@@@std@@@KMemory@@QAEXPAU_Node@?$_Tree_nod@V?$_Tset_traits@KU?$less@K@std@@V?$KAllocator@K@KMemory@@$0A@@std@@@std@@I@Z
_TEXT	SEGMENT
_this$ = -4						; size = 4
_p$ = 8							; size = 4
_Count$ = 12						; size = 4
?deallocate@?$KAllocator@U_Node@?$_Tree_nod@V?$_Tset_traits@KU?$less@K@std@@V?$KAllocator@K@KMemory@@$0A@@std@@@std@@@KMemory@@QAEXPAU_Node@?$_Tree_nod@V?$_Tset_traits@KU?$less@K@std@@V?$KAllocator@K@KMemory@@$0A@@std@@@std@@I@Z PROC ; KMemory::KAllocator<std::_Tree_nod<std::_Tset_traits<unsigned long,std::less<unsigned long>,KMemory::KAllocator<unsigned long>,0> >::_Node>::deallocate, COMDAT
; _this$ = ecx

; 97   :     { 

  00000	55		 push	 ebp
  00001	8b ec		 mov	 ebp, esp
  00003	51		 push	 ecx
  00004	56		 push	 esi
  00005	c7 45 fc cc cc
	cc cc		 mov	 DWORD PTR [ebp-4], -858993460 ; ccccccccH
  0000c	89 4d fc	 mov	 DWORD PTR _this$[ebp], ecx

; 98   :         KMemory::RawFree(p, sizeof(value_type) * Count);

  0000f	8b 45 0c	 mov	 eax, DWORD PTR _Count$[ebp]
  00012	6b c0 14	 imul	 eax, 20			; 00000014H
  00015	8b f4		 mov	 esi, esp
  00017	50		 push	 eax
  00018	8b 4d 08	 mov	 ecx, DWORD PTR _p$[ebp]
  0001b	51		 push	 ecx
  0001c	ff 15 00 00 00
	00		 call	 DWORD PTR __imp_?RawFree@KMemory@@YAXPAXI@Z
  00022	83 c4 08	 add	 esp, 8
  00025	3b f4		 cmp	 esi, esp
  00027	e8 00 00 00 00	 call	 __RTC_CheckEsp

; 99   :     }

  0002c	5e		 pop	 esi
  0002d	83 c4 04	 add	 esp, 4
  00030	3b ec		 cmp	 ebp, esp
  00032	e8 00 00 00 00	 call	 __RTC_CheckEsp
  00037	8b e5		 mov	 esp, ebp
  00039	5d		 pop	 ebp
  0003a	c2 08 00	 ret	 8
?deallocate@?$KAllocator@U_Node@?$_Tree_nod@V?$_Tset_traits@KU?$less@K@std@@V?$KAllocator@K@KMemory@@$0A@@std@@@std@@@KMemory@@QAEXPAU_Node@?$_Tree_nod@V?$_Tset_traits@KU?$less@K@std@@V?$KAllocator@K@KMemory@@$0A@@std@@@std@@I@Z ENDP ; KMemory::KAllocator<std::_Tree_nod<std::_Tset_traits<unsigned long,std::less<unsigned long>,KMemory::KAllocator<unsigned long>,0> >::_Node>::deallocate
; Function compile flags: /Odtp /RTCsu
; File d:\program files\microsoft visual studio 8\vc\include\list
_TEXT	ENDS
;	COMDAT ?_Myval@?$list@UKViewObject@KPlayer@@V?$KAllocator@UKViewObject@KPlayer@@@KMemory@@@std@@KAAAUKViewObject@KPlayer@@PAU_Node@?$_List_nod@UKViewObject@KPlayer@@V?$KAllocator@UKViewObject@KPlayer@@@KMemory@@@2@@Z
_TEXT	SEGMENT
__Pnode$ = 8						; size = 4
?_Myval@?$list@UKViewObject@KPlayer@@V?$KAllocator@UKViewObject@KPlayer@@@KMemory@@@std@@KAAAUKViewObject@KPlayer@@PAU_Node@?$_List_nod@UKViewObject@KPlayer@@V?$KAllocator@UKViewObject@KPlayer@@@KMemory@@@2@@Z PROC ; std::list<KPlayer::KViewObject,KMemory::KAllocator<KPlayer::KViewObject> >::_Myval, COMDAT

; 120  : 		{	// return reference to value in node

  00000	55		 push	 ebp
  00001	8b ec		 mov	 ebp, esp

; 121  : 		return ((_Vref)(*_Pnode)._Myval);

  00003	8b 45 08	 mov	 eax, DWORD PTR __Pnode$[ebp]
  00006	83 c0 08	 add	 eax, 8

; 122  : 		}

  00009	5d		 pop	 ebp
  0000a	c3		 ret	 0
?_Myval@?$list@UKViewObject@KPlayer@@V?$KAllocator@UKViewObject@KPlayer@@@KMemory@@@std@@KAAAUKViewObject@KPlayer@@PAU_Node@?$_List_nod@UKViewObject@KPlayer@@V?$KAllocator@UKViewObject@KPlayer@@@KMemory@@@2@@Z ENDP ; std::list<KPlayer::KViewObject,KMemory::KAllocator<KPlayer::KViewObject> >::_Myval
_TEXT	ENDS
PUBLIC	?max_size@?$KAllocator@UKViewObject@KPlayer@@@KMemory@@QBEIXZ ; KMemory::KAllocator<KPlayer::KViewObject>::max_size
; Function compile flags: /Odtp /RTCsu
;	COMDAT ?max_size@?$list@UKViewObject@KPlayer@@V?$KAllocator@UKViewObject@KPlayer@@@KMemory@@@std@@QBEIXZ
_TEXT	SEGMENT
_this$ = -4						; size = 4
?max_size@?$list@UKViewObject@KPlayer@@V?$KAllocator@UKViewObject@KPlayer@@@KMemory@@@std@@QBEIXZ PROC ; std::list<KPlayer::KViewObject,KMemory::KAllocator<KPlayer::KViewObject> >::max_size, COMDAT
; _this$ = ecx

; 608  : 		{	// return maximum possible length of sequence

  00000	55		 push	 ebp
  00001	8b ec		 mov	 ebp, esp
  00003	51		 push	 ecx
  00004	c7 45 fc cc cc
	cc cc		 mov	 DWORD PTR [ebp-4], -858993460 ; ccccccccH
  0000b	89 4d fc	 mov	 DWORD PTR _this$[ebp], ecx

; 609  : 		return (this->_Alval.max_size());

  0000e	8b 4d fc	 mov	 ecx, DWORD PTR _this$[ebp]
  00011	83 c1 0c	 add	 ecx, 12			; 0000000cH
  00014	e8 00 00 00 00	 call	 ?max_size@?$KAllocator@UKViewObject@KPlayer@@@KMemory@@QBEIXZ ; KMemory::KAllocator<KPlayer::KViewObject>::max_size

; 610  : 		}

  00019	83 c4 04	 add	 esp, 4
  0001c	3b ec		 cmp	 ebp, esp
  0001e	e8 00 00 00 00	 call	 __RTC_CheckEsp
  00023	8b e5		 mov	 esp, ebp
  00025	5d		 pop	 ebp
  00026	c3		 ret	 0
?max_size@?$list@UKViewObject@KPlayer@@V?$KAllocator@UKViewObject@KPlayer@@@KMemory@@@std@@QBEIXZ ENDP ; std::list<KPlayer::KViewObject,KMemory::KAllocator<KPlayer::KViewObject> >::max_size
; Function compile flags: /Odtp /RTCsu
; File d:\code\game\base\include\engine\kmemory.h
_TEXT	ENDS
;	COMDAT ?construct@?$KAllocator@UKViewObject@KPlayer@@@KMemory@@QAEXPAUKViewObject@KPlayer@@ABU34@@Z
_TEXT	SEGMENT
tv69 = -12						; size = 4
$T187243 = -8						; size = 4
_this$ = -4						; size = 4
_p$ = 8							; size = 4
_x$ = 12						; size = 4
?construct@?$KAllocator@UKViewObject@KPlayer@@@KMemory@@QAEXPAUKViewObject@KPlayer@@ABU34@@Z PROC ; KMemory::KAllocator<KPlayer::KViewObject>::construct, COMDAT
; _this$ = ecx

; 107  :     {

  00000	55		 push	 ebp
  00001	8b ec		 mov	 ebp, esp
  00003	83 ec 0c	 sub	 esp, 12			; 0000000cH
  00006	c7 45 f4 cc cc
	cc cc		 mov	 DWORD PTR [ebp-12], -858993460 ; ccccccccH
  0000d	c7 45 f8 cc cc
	cc cc		 mov	 DWORD PTR [ebp-8], -858993460 ; ccccccccH
  00014	c7 45 fc cc cc
	cc cc		 mov	 DWORD PTR [ebp-4], -858993460 ; ccccccccH
  0001b	89 4d fc	 mov	 DWORD PTR _this$[ebp], ecx

; 108  :         new(p) value_type(x);

  0001e	8b 45 08	 mov	 eax, DWORD PTR _p$[ebp]
  00021	50		 push	 eax
  00022	6a 08		 push	 8
  00024	e8 00 00 00 00	 call	 ??2@YAPAXIPAX@Z		; operator new
  00029	83 c4 08	 add	 esp, 8
  0002c	89 45 f8	 mov	 DWORD PTR $T187243[ebp], eax
  0002f	83 7d f8 00	 cmp	 DWORD PTR $T187243[ebp], 0
  00033	74 18		 je	 SHORT $LN3@construct
  00035	8b 4d 0c	 mov	 ecx, DWORD PTR _x$[ebp]
  00038	8b 11		 mov	 edx, DWORD PTR [ecx]
  0003a	8b 41 04	 mov	 eax, DWORD PTR [ecx+4]
  0003d	8b 4d f8	 mov	 ecx, DWORD PTR $T187243[ebp]
  00040	89 11		 mov	 DWORD PTR [ecx], edx
  00042	89 41 04	 mov	 DWORD PTR [ecx+4], eax
  00045	8b 55 f8	 mov	 edx, DWORD PTR $T187243[ebp]
  00048	89 55 f4	 mov	 DWORD PTR tv69[ebp], edx
  0004b	eb 07		 jmp	 SHORT $LN1@construct
$LN3@construct:
  0004d	c7 45 f4 00 00
	00 00		 mov	 DWORD PTR tv69[ebp], 0
$LN1@construct:

; 109  :     }

  00054	83 c4 0c	 add	 esp, 12			; 0000000cH
  00057	3b ec		 cmp	 ebp, esp
  00059	e8 00 00 00 00	 call	 __RTC_CheckEsp
  0005e	8b e5		 mov	 esp, ebp
  00060	5d		 pop	 ebp
  00061	c2 08 00	 ret	 8
?construct@?$KAllocator@UKViewObject@KPlayer@@@KMemory@@QAEXPAUKViewObject@KPlayer@@ABU34@@Z ENDP ; KMemory::KAllocator<KPlayer::KViewObject>::construct
; Function compile flags: /Odtp /RTCsu
_TEXT	ENDS
;	COMDAT ?allocate@?$KAllocator@U_Node@?$_List_nod@UKViewObject@KPlayer@@V?$KAllocator@UKViewObject@KPlayer@@@KMemory@@@std@@@KMemory@@QAEPAU_Node@?$_List_nod@UKViewObject@KPlayer@@V?$KAllocator@UKViewObject@KPlayer@@@KMemory@@@std@@IPBU345@@Z
_TEXT	SEGMENT
_this$ = -4						; size = 4
_Count$ = 8						; size = 4
___formal$ = 12						; size = 4
?allocate@?$KAllocator@U_Node@?$_List_nod@UKViewObject@KPlayer@@V?$KAllocator@UKViewObject@KPlayer@@@KMemory@@@std@@@KMemory@@QAEPAU_Node@?$_List_nod@UKViewObject@KPlayer@@V?$KAllocator@UKViewObject@KPlayer@@@KMemory@@@std@@IPBU345@@Z PROC ; KMemory::KAllocator<std::_List_nod<KPlayer::KViewObject,KMemory::KAllocator<KPlayer::KViewObject> >::_Node>::allocate, COMDAT
; _this$ = ecx

; 92   :     {

  00000	55		 push	 ebp
  00001	8b ec		 mov	 ebp, esp
  00003	51		 push	 ecx
  00004	56		 push	 esi
  00005	c7 45 fc cc cc
	cc cc		 mov	 DWORD PTR [ebp-4], -858993460 ; ccccccccH
  0000c	89 4d fc	 mov	 DWORD PTR _this$[ebp], ecx

; 93   :         return (pointer)KMemory::RawAlloc(sizeof(value_type) * Count);

  0000f	8b 45 08	 mov	 eax, DWORD PTR _Count$[ebp]
  00012	c1 e0 04	 shl	 eax, 4
  00015	8b f4		 mov	 esi, esp
  00017	50		 push	 eax
  00018	ff 15 00 00 00
	00		 call	 DWORD PTR __imp_?RawAlloc@KMemory@@YAPAXI@Z
  0001e	83 c4 04	 add	 esp, 4
  00021	3b f4		 cmp	 esi, esp
  00023	e8 00 00 00 00	 call	 __RTC_CheckEsp

; 94   :     }

  00028	5e		 pop	 esi
  00029	83 c4 04	 add	 esp, 4
  0002c	3b ec		 cmp	 ebp, esp
  0002e	e8 00 00 00 00	 call	 __RTC_CheckEsp
  00033	8b e5		 mov	 esp, ebp
  00035	5d		 pop	 ebp
  00036	c2 08 00	 ret	 8
?allocate@?$KAllocator@U_Node@?$_List_nod@UKViewObject@KPlayer@@V?$KAllocator@UKViewObject@KPlayer@@@KMemory@@@std@@@KMemory@@QAEPAU_Node@?$_List_nod@UKViewObject@KPlayer@@V?$KAllocator@UKViewObject@KPlayer@@@KMemory@@@std@@IPBU345@@Z ENDP ; KMemory::KAllocator<std::_List_nod<KPlayer::KViewObject,KMemory::KAllocator<KPlayer::KViewObject> >::_Node>::allocate
; Function compile flags: /Odtp /RTCsu
_TEXT	ENDS
;	COMDAT ?deallocate@?$KAllocator@U_Node@?$_List_nod@UKViewObject@KPlayer@@V?$KAllocator@UKViewObject@KPlayer@@@KMemory@@@std@@@KMemory@@QAEXPAU_Node@?$_List_nod@UKViewObject@KPlayer@@V?$KAllocator@UKViewObject@KPlayer@@@KMemory@@@std@@I@Z
_TEXT	SEGMENT
_this$ = -4						; size = 4
_p$ = 8							; size = 4
_Count$ = 12						; size = 4
?deallocate@?$KAllocator@U_Node@?$_List_nod@UKViewObject@KPlayer@@V?$KAllocator@UKViewObject@KPlayer@@@KMemory@@@std@@@KMemory@@QAEXPAU_Node@?$_List_nod@UKViewObject@KPlayer@@V?$KAllocator@UKViewObject@KPlayer@@@KMemory@@@std@@I@Z PROC ; KMemory::KAllocator<std::_List_nod<KPlayer::KViewObject,KMemory::KAllocator<KPlayer::KViewObject> >::_Node>::deallocate, COMDAT
; _this$ = ecx

; 97   :     { 

  00000	55		 push	 ebp
  00001	8b ec		 mov	 ebp, esp
  00003	51		 push	 ecx
  00004	56		 push	 esi
  00005	c7 45 fc cc cc
	cc cc		 mov	 DWORD PTR [ebp-4], -858993460 ; ccccccccH
  0000c	89 4d fc	 mov	 DWORD PTR _this$[ebp], ecx

; 98   :         KMemory::RawFree(p, sizeof(value_type) * Count);

  0000f	8b 45 0c	 mov	 eax, DWORD PTR _Count$[ebp]
  00012	c1 e0 04	 shl	 eax, 4
  00015	8b f4		 mov	 esi, esp
  00017	50		 push	 eax
  00018	8b 4d 08	 mov	 ecx, DWORD PTR _p$[ebp]
  0001b	51		 push	 ecx
  0001c	ff 15 00 00 00
	00		 call	 DWORD PTR __imp_?RawFree@KMemory@@YAXPAXI@Z
  00022	83 c4 08	 add	 esp, 8
  00025	3b f4		 cmp	 esi, esp
  00027	e8 00 00 00 00	 call	 __RTC_CheckEsp

; 99   :     }

  0002c	5e		 pop	 esi
  0002d	83 c4 04	 add	 esp, 4
  00030	3b ec		 cmp	 ebp, esp
  00032	e8 00 00 00 00	 call	 __RTC_CheckEsp
  00037	8b e5		 mov	 esp, ebp
  00039	5d		 pop	 ebp
  0003a	c2 08 00	 ret	 8
?deallocate@?$KAllocator@U_Node@?$_List_nod@UKViewObject@KPlayer@@V?$KAllocator@UKViewObject@KPlayer@@@KMemory@@@std@@@KMemory@@QAEXPAU_Node@?$_List_nod@UKViewObject@KPlayer@@V?$KAllocator@UKViewObject@KPlayer@@@KMemory@@@std@@I@Z ENDP ; KMemory::KAllocator<std::_List_nod<KPlayer::KViewObject,KMemory::KAllocator<KPlayer::KViewObject> >::_Node>::deallocate
; Function compile flags: /Odtp /RTCsu
_TEXT	ENDS
;	COMDAT ?construct@?$KAllocator@PAU_Node@?$_List_nod@UKViewObject@KPlayer@@V?$KAllocator@UKViewObject@KPlayer@@@KMemory@@@std@@@KMemory@@QAEXPAPAU_Node@?$_List_nod@UKViewObject@KPlayer@@V?$KAllocator@UKViewObject@KPlayer@@@KMemory@@@std@@ABQAU345@@Z
_TEXT	SEGMENT
tv68 = -12						; size = 4
$T187252 = -8						; size = 4
_this$ = -4						; size = 4
_p$ = 8							; size = 4
_x$ = 12						; size = 4
?construct@?$KAllocator@PAU_Node@?$_List_nod@UKViewObject@KPlayer@@V?$KAllocator@UKViewObject@KPlayer@@@KMemory@@@std@@@KMemory@@QAEXPAPAU_Node@?$_List_nod@UKViewObject@KPlayer@@V?$KAllocator@UKViewObject@KPlayer@@@KMemory@@@std@@ABQAU345@@Z PROC ; KMemory::KAllocator<std::_List_nod<KPlayer::KViewObject,KMemory::KAllocator<KPlayer::KViewObject> >::_Node *>::construct, COMDAT
; _this$ = ecx

; 107  :     {

  00000	55		 push	 ebp
  00001	8b ec		 mov	 ebp, esp
  00003	83 ec 0c	 sub	 esp, 12			; 0000000cH
  00006	c7 45 f4 cc cc
	cc cc		 mov	 DWORD PTR [ebp-12], -858993460 ; ccccccccH
  0000d	c7 45 f8 cc cc
	cc cc		 mov	 DWORD PTR [ebp-8], -858993460 ; ccccccccH
  00014	c7 45 fc cc cc
	cc cc		 mov	 DWORD PTR [ebp-4], -858993460 ; ccccccccH
  0001b	89 4d fc	 mov	 DWORD PTR _this$[ebp], ecx

; 108  :         new(p) value_type(x);

  0001e	8b 45 08	 mov	 eax, DWORD PTR _p$[ebp]
  00021	50		 push	 eax
  00022	6a 04		 push	 4
  00024	e8 00 00 00 00	 call	 ??2@YAPAXIPAX@Z		; operator new
  00029	83 c4 08	 add	 esp, 8
  0002c	89 45 f8	 mov	 DWORD PTR $T187252[ebp], eax
  0002f	83 7d f8 00	 cmp	 DWORD PTR $T187252[ebp], 0
  00033	74 12		 je	 SHORT $LN3@construct@2
  00035	8b 4d f8	 mov	 ecx, DWORD PTR $T187252[ebp]
  00038	8b 55 0c	 mov	 edx, DWORD PTR _x$[ebp]
  0003b	8b 02		 mov	 eax, DWORD PTR [edx]
  0003d	89 01		 mov	 DWORD PTR [ecx], eax
  0003f	8b 4d f8	 mov	 ecx, DWORD PTR $T187252[ebp]
  00042	89 4d f4	 mov	 DWORD PTR tv68[ebp], ecx
  00045	eb 07		 jmp	 SHORT $LN1@construct@2
$LN3@construct@2:
  00047	c7 45 f4 00 00
	00 00		 mov	 DWORD PTR tv68[ebp], 0
$LN1@construct@2:

; 109  :     }

  0004e	83 c4 0c	 add	 esp, 12			; 0000000cH
  00051	3b ec		 cmp	 ebp, esp
  00053	e8 00 00 00 00	 call	 __RTC_CheckEsp
  00058	8b e5		 mov	 esp, ebp
  0005a	5d		 pop	 ebp
  0005b	c2 08 00	 ret	 8
?construct@?$KAllocator@PAU_Node@?$_List_nod@UKViewObject@KPlayer@@V?$KAllocator@UKViewObject@KPlayer@@@KMemory@@@std@@@KMemory@@QAEXPAPAU_Node@?$_List_nod@UKViewObject@KPlayer@@V?$KAllocator@UKViewObject@KPlayer@@@KMemory@@@std@@ABQAU345@@Z ENDP ; KMemory::KAllocator<std::_List_nod<KPlayer::KViewObject,KMemory::KAllocator<KPlayer::KViewObject> >::_Node *>::construct
; Function compile flags: /Odtp /RTCsu
_TEXT	ENDS
;	COMDAT ?destroy@?$KAllocator@PAU_Node@?$_List_nod@UKViewObject@KPlayer@@V?$KAllocator@UKViewObject@KPlayer@@@KMemory@@@std@@@KMemory@@QAEXPAPAU_Node@?$_List_nod@UKViewObject@KPlayer@@V?$KAllocator@UKViewObject@KPlayer@@@KMemory@@@std@@@Z
_TEXT	SEGMENT
_this$ = -4						; size = 4
_p$ = 8							; size = 4
?destroy@?$KAllocator@PAU_Node@?$_List_nod@UKViewObject@KPlayer@@V?$KAllocator@UKViewObject@KPlayer@@@KMemory@@@std@@@KMemory@@QAEXPAPAU_Node@?$_List_nod@UKViewObject@KPlayer@@V?$KAllocator@UKViewObject@KPlayer@@@KMemory@@@std@@@Z PROC ; KMemory::KAllocator<std::_List_nod<KPlayer::KViewObject,KMemory::KAllocator<KPlayer::KViewObject> >::_Node *>::destroy, COMDAT
; _this$ = ecx

; 112  :     {

  00000	55		 push	 ebp
  00001	8b ec		 mov	 ebp, esp
  00003	51		 push	 ecx
  00004	c7 45 fc cc cc
	cc cc		 mov	 DWORD PTR [ebp-4], -858993460 ; ccccccccH
  0000b	89 4d fc	 mov	 DWORD PTR _this$[ebp], ecx

; 113  :         p->~value_type();
; 114  :     }

  0000e	8b e5		 mov	 esp, ebp
  00010	5d		 pop	 ebp
  00011	c2 04 00	 ret	 4
?destroy@?$KAllocator@PAU_Node@?$_List_nod@UKViewObject@KPlayer@@V?$KAllocator@UKViewObject@KPlayer@@@KMemory@@@std@@@KMemory@@QAEXPAPAU_Node@?$_List_nod@UKViewObject@KPlayer@@V?$KAllocator@UKViewObject@KPlayer@@@KMemory@@@std@@@Z ENDP ; KMemory::KAllocator<std::_List_nod<KPlayer::KViewObject,KMemory::KAllocator<KPlayer::KViewObject> >::_Node *>::destroy
_TEXT	ENDS
PUBLIC	?_Max@?$_Tree@V?$_Tset_traits@KU?$less@K@std@@V?$KAllocator@K@KMemory@@$0A@@std@@@std@@KAPAU_Node@?$_Tree_nod@V?$_Tset_traits@KU?$less@K@std@@V?$KAllocator@K@KMemory@@$0A@@std@@@2@PAU342@@Z ; std::_Tree<std::_Tset_traits<unsigned long,std::less<unsigned long>,KMemory::KAllocator<unsigned long>,0> >::_Max
PUBLIC	??_C@_1BO@MEPPHOO@?$AA?$CC?$AAo?$AAu?$AAt?$AA?5?$AAo?$AAf?$AA?5?$AAr?$AAa?$AAn?$AAg?$AAe?$AA?$CC?$AA?$AA@ ; `string'
PUBLIC	??_C@_1FG@CMLDHNON@?$AA?$CI?$AA?$CC?$AAS?$AAt?$AAa?$AAn?$AAd?$AAa?$AAr?$AAd?$AA?5?$AAC?$AA?$CL?$AA?$CL?$AA?5?$AAL?$AAi?$AAb?$AAr?$AAa?$AAr?$AAi?$AAe?$AAs?$AA?5?$AAO?$AAu?$AAt?$AA?5?$AAo?$AAf?$AA?5@ ; `string'
PUBLIC	??_C@_1BCK@NINKANE@?$AAs?$AAt?$AAd?$AA?3?$AA?3?$AA_?$AAT?$AAr?$AAe?$AAe?$AA?$DM?$AAc?$AAl?$AAa?$AAs?$AAs?$AA?5?$AAs?$AAt?$AAd?$AA?3?$AA?3?$AA_?$AAT?$AAs?$AAe?$AAt?$AA_?$AAt?$AAr?$AAa?$AAi@ ; `string'
PUBLIC	??_C@_1EG@OKCGOALM@?$AAm?$AAa?$AAp?$AA?1?$AAs?$AAe?$AAt?$AA?5?$AAi?$AAt?$AAe?$AAr?$AAa?$AAt?$AAo?$AAr?$AA?5?$AAn?$AAo?$AAt?$AA?5?$AAd?$AAe?$AAc?$AAr?$AAe?$AAm?$AAe?$AAn?$AAt?$AAa?$AAb@ ; `string'
;	COMDAT ??_C@_1BO@MEPPHOO@?$AA?$CC?$AAo?$AAu?$AAt?$AA?5?$AAo?$AAf?$AA?5?$AAr?$AAa?$AAn?$AAg?$AAe?$AA?$CC?$AA?$AA@
; File d:\program files\microsoft visual studio 8\vc\include\xtree
CONST	SEGMENT
??_C@_1BO@MEPPHOO@?$AA?$CC?$AAo?$AAu?$AAt?$AA?5?$AAo?$AAf?$AA?5?$AAr?$AAa?$AAn?$AAg?$AAe?$AA?$CC?$AA?$AA@ DB '"'
	DB	00H, 'o', 00H, 'u', 00H, 't', 00H, ' ', 00H, 'o', 00H, 'f', 00H
	DB	' ', 00H, 'r', 00H, 'a', 00H, 'n', 00H, 'g', 00H, 'e', 00H, '"'
	DB	00H, 00H, 00H				; `string'
CONST	ENDS
;	COMDAT ??_C@_1FG@CMLDHNON@?$AA?$CI?$AA?$CC?$AAS?$AAt?$AAa?$AAn?$AAd?$AAa?$AAr?$AAd?$AA?5?$AAC?$AA?$CL?$AA?$CL?$AA?5?$AAL?$AAi?$AAb?$AAr?$AAa?$AAr?$AAi?$AAe?$AAs?$AA?5?$AAO?$AAu?$AAt?$AA?5?$AAo?$AAf?$AA?5@
CONST	SEGMENT
??_C@_1FG@CMLDHNON@?$AA?$CI?$AA?$CC?$AAS?$AAt?$AAa?$AAn?$AAd?$AAa?$AAr?$AAd?$AA?5?$AAC?$AA?$CL?$AA?$CL?$AA?5?$AAL?$AAi?$AAb?$AAr?$AAa?$AAr?$AAi?$AAe?$AAs?$AA?5?$AAO?$AAu?$AAt?$AA?5?$AAo?$AAf?$AA?5@ DB '('
	DB	00H, '"', 00H, 'S', 00H, 't', 00H, 'a', 00H, 'n', 00H, 'd', 00H
	DB	'a', 00H, 'r', 00H, 'd', 00H, ' ', 00H, 'C', 00H, '+', 00H, '+'
	DB	00H, ' ', 00H, 'L', 00H, 'i', 00H, 'b', 00H, 'r', 00H, 'a', 00H
	DB	'r', 00H, 'i', 00H, 'e', 00H, 's', 00H, ' ', 00H, 'O', 00H, 'u'
	DB	00H, 't', 00H, ' ', 00H, 'o', 00H, 'f', 00H, ' ', 00H, 'R', 00H
	DB	'a', 00H, 'n', 00H, 'g', 00H, 'e', 00H, '"', 00H, ',', 00H, ' '
	DB	00H, '0', 00H, ')', 00H, 00H, 00H		; `string'
CONST	ENDS
;	COMDAT ??_C@_1BCK@NINKANE@?$AAs?$AAt?$AAd?$AA?3?$AA?3?$AA_?$AAT?$AAr?$AAe?$AAe?$AA?$DM?$AAc?$AAl?$AAa?$AAs?$AAs?$AA?5?$AAs?$AAt?$AAd?$AA?3?$AA?3?$AA_?$AAT?$AAs?$AAe?$AAt?$AA_?$AAt?$AAr?$AAa?$AAi@
CONST	SEGMENT
??_C@_1BCK@NINKANE@?$AAs?$AAt?$AAd?$AA?3?$AA?3?$AA_?$AAT?$AAr?$AAe?$AAe?$AA?$DM?$AAc?$AAl?$AAa?$AAs?$AAs?$AA?5?$AAs?$AAt?$AAd?$AA?3?$AA?3?$AA_?$AAT?$AAs?$AAe?$AAt?$AA_?$AAt?$AAr?$AAa?$AAi@ DB 's'
	DB	00H, 't', 00H, 'd', 00H, ':', 00H, ':', 00H, '_', 00H, 'T', 00H
	DB	'r', 00H, 'e', 00H, 'e', 00H, '<', 00H, 'c', 00H, 'l', 00H, 'a'
	DB	00H, 's', 00H, 's', 00H, ' ', 00H, 's', 00H, 't', 00H, 'd', 00H
	DB	':', 00H, ':', 00H, '_', 00H, 'T', 00H, 's', 00H, 'e', 00H, 't'
	DB	00H, '_', 00H, 't', 00H, 'r', 00H, 'a', 00H, 'i', 00H, 't', 00H
	DB	's', 00H, '<', 00H, 'u', 00H, 'n', 00H, 's', 00H, 'i', 00H, 'g'
	DB	00H, 'n', 00H, 'e', 00H, 'd', 00H, ' ', 00H, 'l', 00H, 'o', 00H
	DB	'n', 00H, 'g', 00H, ',', 00H, 's', 00H, 't', 00H, 'r', 00H, 'u'
	DB	00H, 'c', 00H, 't', 00H, ' ', 00H, 's', 00H, 't', 00H, 'd', 00H
	DB	':', 00H, ':', 00H, 'l', 00H, 'e', 00H, 's', 00H, 's', 00H, '<'
	DB	00H, 'u', 00H, 'n', 00H, 's', 00H, 'i', 00H, 'g', 00H, 'n', 00H
	DB	'e', 00H, 'd', 00H, ' ', 00H, 'l', 00H, 'o', 00H, 'n', 00H, 'g'
	DB	00H, '>', 00H, ',', 00H, 'c', 00H, 'l', 00H, 'a', 00H, 's', 00H
	DB	's', 00H, ' ', 00H, 'K', 00H, 'M', 00H, 'e', 00H, 'm', 00H, 'o'
	DB	00H, 'r', 00H, 'y', 00H, ':', 00H, ':', 00H, 'K', 00H, 'A', 00H
	DB	'l', 00H, 'l', 00H, 'o', 00H, 'c', 00H, 'a', 00H, 't', 00H, 'o'
	DB	00H, 'r', 00H, '<', 00H, 'u', 00H, 'n', 00H, 's', 00H, 'i', 00H
	DB	'g', 00H, 'n', 00H, 'e', 00H, 'd', 00H, ' ', 00H, 'l', 00H, 'o'
	DB	00H, 'n', 00H, 'g', 00H, '>', 00H, ',', 00H, '0', 00H, '>', 00H
	DB	' ', 00H, '>', 00H, ':', 00H, ':', 00H, 'c', 00H, 'o', 00H, 'n'
	DB	00H, 's', 00H, 't', 00H, '_', 00H, 'i', 00H, 't', 00H, 'e', 00H
	DB	'r', 00H, 'a', 00H, 't', 00H, 'o', 00H, 'r', 00H, ':', 00H, ':'
	DB	00H, '_', 00H, 'D', 00H, 'e', 00H, 'c', 00H, 00H, 00H ; `string'
CONST	ENDS
;	COMDAT ??_C@_1EG@OKCGOALM@?$AAm?$AAa?$AAp?$AA?1?$AAs?$AAe?$AAt?$AA?5?$AAi?$AAt?$AAe?$AAr?$AAa?$AAt?$AAo?$AAr?$AA?5?$AAn?$AAo?$AAt?$AA?5?$AAd?$AAe?$AAc?$AAr?$AAe?$AAm?$AAe?$AAn?$AAt?$AAa?$AAb@
CONST	SEGMENT
??_C@_1EG@OKCGOALM@?$AAm?$AAa?$AAp?$AA?1?$AAs?$AAe?$AAt?$AA?5?$AAi?$AAt?$AAe?$AAr?$AAa?$AAt?$AAo?$AAr?$AA?5?$AAn?$AAo?$AAt?$AA?5?$AAd?$AAe?$AAc?$AAr?$AAe?$AAm?$AAe?$AAn?$AAt?$AAa?$AAb@ DB 'm'
	DB	00H, 'a', 00H, 'p', 00H, '/', 00H, 's', 00H, 'e', 00H, 't', 00H
	DB	' ', 00H, 'i', 00H, 't', 00H, 'e', 00H, 'r', 00H, 'a', 00H, 't'
	DB	00H, 'o', 00H, 'r', 00H, ' ', 00H, 'n', 00H, 'o', 00H, 't', 00H
	DB	' ', 00H, 'd', 00H, 'e', 00H, 'c', 00H, 'r', 00H, 'e', 00H, 'm'
	DB	00H, 'e', 00H, 'n', 00H, 't', 00H, 'a', 00H, 'b', 00H, 'l', 00H
	DB	'e', 00H, 00H, 00H				; `string'
; Function compile flags: /Odtp /RTCsu
CONST	ENDS
;	COMDAT ?_Dec@const_iterator@?$_Tree@V?$_Tset_traits@KU?$less@K@std@@V?$KAllocator@K@KMemory@@$0A@@std@@@std@@QAEXXZ
_TEXT	SEGMENT
__Pnode$183288 = -8					; size = 4
_this$ = -4						; size = 4
?_Dec@const_iterator@?$_Tree@V?$_Tset_traits@KU?$less@K@std@@V?$KAllocator@K@KMemory@@$0A@@std@@@std@@QAEXXZ PROC ; std::_Tree<std::_Tset_traits<unsigned long,std::less<unsigned long>,KMemory::KAllocator<unsigned long>,0> >::const_iterator::_Dec, COMDAT
; _this$ = ecx

; 309  : 			{	// move to node with next smaller value

  00000	55		 push	 ebp
  00001	8b ec		 mov	 ebp, esp
  00003	83 ec 08	 sub	 esp, 8
  00006	56		 push	 esi
  00007	c7 45 f8 cc cc
	cc cc		 mov	 DWORD PTR [ebp-8], -858993460 ; ccccccccH
  0000e	c7 45 fc cc cc
	cc cc		 mov	 DWORD PTR [ebp-4], -858993460 ; ccccccccH
  00015	89 4d fc	 mov	 DWORD PTR _this$[ebp], ecx

; 310  : 
; 311  :  #if _HAS_ITERATOR_DEBUGGING
; 312  : 			if (this->_Mycont == 0)

  00018	8b 45 fc	 mov	 eax, DWORD PTR _this$[ebp]
  0001b	83 38 00	 cmp	 DWORD PTR [eax], 0
  0001e	75 78		 jne	 SHORT $LN10@Dec

; 313  : 				{
; 314  : 				_DEBUG_ERROR("map/set iterator not decrementable");

  00020	8b f4		 mov	 esi, esp
  00022	68 3a 01 00 00	 push	 314			; 0000013aH
  00027	68 00 00 00 00	 push	 OFFSET ??_C@_1HI@LGPIFNJI@?$AAD?$AA?3?$AA?2?$AAP?$AAr?$AAo?$AAg?$AAr?$AAa?$AAm?$AA?5?$AAF?$AAi?$AAl?$AAe?$AAs?$AA?2?$AAM?$AAi?$AAc?$AAr?$AAo?$AAs?$AAo?$AAf?$AAt?$AA?5?$AAV?$AAi?$AAs?$AAu?$AAa@
  0002c	68 00 00 00 00	 push	 OFFSET ??_C@_1EG@OKCGOALM@?$AAm?$AAa?$AAp?$AA?1?$AAs?$AAe?$AAt?$AA?5?$AAi?$AAt?$AAe?$AAr?$AAa?$AAt?$AAo?$AAr?$AA?5?$AAn?$AAo?$AAt?$AA?5?$AAd?$AAe?$AAc?$AAr?$AAe?$AAm?$AAe?$AAn?$AAt?$AAa?$AAb@
  00031	ff 15 00 00 00
	00		 call	 DWORD PTR __imp_?_Debug_message@std@@YAXPB_W0I@Z
  00037	83 c4 0c	 add	 esp, 12			; 0000000cH
  0003a	3b f4		 cmp	 esi, esp
  0003c	e8 00 00 00 00	 call	 __RTC_CheckEsp

; 315  : 				_SCL_SECURE_INVALID_ARGUMENT;

  00041	33 c9		 xor	 ecx, ecx
  00043	75 2b		 jne	 SHORT $LN13@Dec
  00045	8b f4		 mov	 esi, esp
  00047	68 00 00 00 00	 push	 OFFSET ??_C@_1FO@OCPOOAIA@?$AA?$CI?$AA?$CC?$AAS?$AAt?$AAa?$AAn?$AAd?$AAa?$AAr?$AAd?$AA?5?$AAC?$AA?$CL?$AA?$CL?$AA?5?$AAL?$AAi?$AAb?$AAr?$AAa?$AAr?$AAi?$AAe?$AAs?$AA?5?$AAI?$AAn?$AAv?$AAa?$AAl?$AAi?$AAd@
  0004c	6a 00		 push	 0
  0004e	68 3b 01 00 00	 push	 315			; 0000013bH
  00053	68 00 00 00 00	 push	 OFFSET ??_C@_1HI@LGPIFNJI@?$AAD?$AA?3?$AA?2?$AAP?$AAr?$AAo?$AAg?$AAr?$AAa?$AAm?$AA?5?$AAF?$AAi?$AAl?$AAe?$AAs?$AA?2?$AAM?$AAi?$AAc?$AAr?$AAo?$AAs?$AAo?$AAf?$AAt?$AA?5?$AAV?$AAi?$AAs?$AAu?$AAa@
  00058	6a 02		 push	 2
  0005a	ff 15 00 00 00
	00		 call	 DWORD PTR __imp___CrtDbgReportW
  00060	83 c4 14	 add	 esp, 20			; 00000014H
  00063	3b f4		 cmp	 esi, esp
  00065	e8 00 00 00 00	 call	 __RTC_CheckEsp
  0006a	83 f8 01	 cmp	 eax, 1
  0006d	75 01		 jne	 SHORT $LN13@Dec
  0006f	cc		 int	 3
$LN13@Dec:
  00070	8b f4		 mov	 esi, esp
  00072	6a 00		 push	 0
  00074	68 3b 01 00 00	 push	 315			; 0000013bH
  00079	68 00 00 00 00	 push	 OFFSET ??_C@_1HI@LGPIFNJI@?$AAD?$AA?3?$AA?2?$AAP?$AAr?$AAo?$AAg?$AAr?$AAa?$AAm?$AA?5?$AAF?$AAi?$AAl?$AAe?$AAs?$AA?2?$AAM?$AAi?$AAc?$AAr?$AAo?$AAs?$AAo?$AAf?$AAt?$AA?5?$AAV?$AAi?$AAs?$AAu?$AAa@
  0007e	68 00 00 00 00	 push	 OFFSET ??_C@_1BCK@NINKANE@?$AAs?$AAt?$AAd?$AA?3?$AA?3?$AA_?$AAT?$AAr?$AAe?$AAe?$AA?$DM?$AAc?$AAl?$AAa?$AAs?$AAs?$AA?5?$AAs?$AAt?$AAd?$AA?3?$AA?3?$AA_?$AAT?$AAs?$AAe?$AAt?$AA_?$AAt?$AAr?$AAa?$AAi@
  00083	68 00 00 00 00	 push	 OFFSET ??_C@_1CG@JNLFBNGN@?$AA?$CC?$AAi?$AAn?$AAv?$AAa?$AAl?$AAi?$AAd?$AA?5?$AAa?$AAr?$AAg?$AAu?$AAm?$AAe?$AAn?$AAt?$AA?$CC?$AA?$AA@
  00088	ff 15 00 00 00
	00		 call	 DWORD PTR __imp___invalid_parameter
  0008e	83 c4 14	 add	 esp, 20			; 00000014H
  00091	3b f4		 cmp	 esi, esp
  00093	e8 00 00 00 00	 call	 __RTC_CheckEsp
$LN10@Dec:

; 316  : 				}
; 317  :  #else
; 318  : 			_SCL_SECURE_VALIDATE(this->_Mycont != NULL);
; 319  :  #endif /* _HAS_ITERATOR_DEBUGGING */
; 320  : 
; 321  : 			if (_Isnil(_Ptr))

  00098	8b 45 fc	 mov	 eax, DWORD PTR _this$[ebp]
  0009b	8b 48 08	 mov	 ecx, DWORD PTR [eax+8]
  0009e	51		 push	 ecx
  0009f	e8 00 00 00 00	 call	 ?_Isnil@?$_Tree@V?$_Tset_traits@KU?$less@K@std@@V?$KAllocator@K@KMemory@@$0A@@std@@@std@@KAAADPAU_Node@?$_Tree_nod@V?$_Tset_traits@KU?$less@K@std@@V?$KAllocator@K@KMemory@@$0A@@std@@@2@@Z ; std::_Tree<std::_Tset_traits<unsigned long,std::less<unsigned long>,KMemory::KAllocator<unsigned long>,0> >::_Isnil
  000a4	83 c4 04	 add	 esp, 4
  000a7	0f be 10	 movsx	 edx, BYTE PTR [eax]
  000aa	85 d2		 test	 edx, edx
  000ac	0f 84 aa 00 00
	00		 je	 $LN9@Dec

; 322  : 			{
; 323  : 				_Ptr = _Right(_Ptr);	// end() ==> rightmost

  000b2	8b 45 fc	 mov	 eax, DWORD PTR _this$[ebp]
  000b5	8b 48 08	 mov	 ecx, DWORD PTR [eax+8]
  000b8	51		 push	 ecx
  000b9	e8 00 00 00 00	 call	 ?_Right@?$_Tree@V?$_Tset_traits@KU?$less@K@std@@V?$KAllocator@K@KMemory@@$0A@@std@@@std@@KAAAPAU_Node@?$_Tree_nod@V?$_Tset_traits@KU?$less@K@std@@V?$KAllocator@K@KMemory@@$0A@@std@@@2@PAU342@@Z ; std::_Tree<std::_Tset_traits<unsigned long,std::less<unsigned long>,KMemory::KAllocator<unsigned long>,0> >::_Right
  000be	83 c4 04	 add	 esp, 4
  000c1	8b 55 fc	 mov	 edx, DWORD PTR _this$[ebp]
  000c4	8b 00		 mov	 eax, DWORD PTR [eax]
  000c6	89 42 08	 mov	 DWORD PTR [edx+8], eax

; 324  :    				if (_Isnil(_Ptr))

  000c9	8b 4d fc	 mov	 ecx, DWORD PTR _this$[ebp]
  000cc	8b 51 08	 mov	 edx, DWORD PTR [ecx+8]
  000cf	52		 push	 edx
  000d0	e8 00 00 00 00	 call	 ?_Isnil@?$_Tree@V?$_Tset_traits@KU?$less@K@std@@V?$KAllocator@K@KMemory@@$0A@@std@@@std@@KAAADPAU_Node@?$_Tree_nod@V?$_Tset_traits@KU?$less@K@std@@V?$KAllocator@K@KMemory@@$0A@@std@@@2@@Z ; std::_Tree<std::_Tset_traits<unsigned long,std::less<unsigned long>,KMemory::KAllocator<unsigned long>,0> >::_Isnil
  000d5	83 c4 04	 add	 esp, 4
  000d8	0f be 00	 movsx	 eax, BYTE PTR [eax]
  000db	85 c0		 test	 eax, eax
  000dd	74 78		 je	 SHORT $LN8@Dec

; 325  : #if _HAS_ITERATOR_DEBUGGING
; 326  : 				{
; 327  : 					_DEBUG_ERROR("map/set iterator not decrementable");

  000df	8b f4		 mov	 esi, esp
  000e1	68 47 01 00 00	 push	 327			; 00000147H
  000e6	68 00 00 00 00	 push	 OFFSET ??_C@_1HI@LGPIFNJI@?$AAD?$AA?3?$AA?2?$AAP?$AAr?$AAo?$AAg?$AAr?$AAa?$AAm?$AA?5?$AAF?$AAi?$AAl?$AAe?$AAs?$AA?2?$AAM?$AAi?$AAc?$AAr?$AAo?$AAs?$AAo?$AAf?$AAt?$AA?5?$AAV?$AAi?$AAs?$AAu?$AAa@
  000eb	68 00 00 00 00	 push	 OFFSET ??_C@_1EG@OKCGOALM@?$AAm?$AAa?$AAp?$AA?1?$AAs?$AAe?$AAt?$AA?5?$AAi?$AAt?$AAe?$AAr?$AAa?$AAt?$AAo?$AAr?$AA?5?$AAn?$AAo?$AAt?$AA?5?$AAd?$AAe?$AAc?$AAr?$AAe?$AAm?$AAe?$AAn?$AAt?$AAa?$AAb@
  000f0	ff 15 00 00 00
	00		 call	 DWORD PTR __imp_?_Debug_message@std@@YAXPB_W0I@Z
  000f6	83 c4 0c	 add	 esp, 12			; 0000000cH
  000f9	3b f4		 cmp	 esi, esp
  000fb	e8 00 00 00 00	 call	 __RTC_CheckEsp

; 328  : 					_SCL_SECURE_OUT_OF_RANGE;

  00100	33 c9		 xor	 ecx, ecx
  00102	75 2b		 jne	 SHORT $LN14@Dec
  00104	8b f4		 mov	 esi, esp
  00106	68 00 00 00 00	 push	 OFFSET ??_C@_1FG@CMLDHNON@?$AA?$CI?$AA?$CC?$AAS?$AAt?$AAa?$AAn?$AAd?$AAa?$AAr?$AAd?$AA?5?$AAC?$AA?$CL?$AA?$CL?$AA?5?$AAL?$AAi?$AAb?$AAr?$AAa?$AAr?$AAi?$AAe?$AAs?$AA?5?$AAO?$AAu?$AAt?$AA?5?$AAo?$AAf?$AA?5@
  0010b	6a 00		 push	 0
  0010d	68 48 01 00 00	 push	 328			; 00000148H
  00112	68 00 00 00 00	 push	 OFFSET ??_C@_1HI@LGPIFNJI@?$AAD?$AA?3?$AA?2?$AAP?$AAr?$AAo?$AAg?$AAr?$AAa?$AAm?$AA?5?$AAF?$AAi?$AAl?$AAe?$AAs?$AA?2?$AAM?$AAi?$AAc?$AAr?$AAo?$AAs?$AAo?$AAf?$AAt?$AA?5?$AAV?$AAi?$AAs?$AAu?$AAa@
  00117	6a 02		 push	 2
  00119	ff 15 00 00 00
	00		 call	 DWORD PTR __imp___CrtDbgReportW
  0011f	83 c4 14	 add	 esp, 20			; 00000014H
  00122	3b f4		 cmp	 esi, esp
  00124	e8 00 00 00 00	 call	 __RTC_CheckEsp
  00129	83 f8 01	 cmp	 eax, 1
  0012c	75 01		 jne	 SHORT $LN14@Dec
  0012e	cc		 int	 3
$LN14@Dec:
  0012f	8b f4		 mov	 esi, esp
  00131	6a 00		 push	 0
  00133	68 48 01 00 00	 push	 328			; 00000148H
  00138	68 00 00 00 00	 push	 OFFSET ??_C@_1HI@LGPIFNJI@?$AAD?$AA?3?$AA?2?$AAP?$AAr?$AAo?$AAg?$AAr?$AAa?$AAm?$AA?5?$AAF?$AAi?$AAl?$AAe?$AAs?$AA?2?$AAM?$AAi?$AAc?$AAr?$AAo?$AAs?$AAo?$AAf?$AAt?$AA?5?$AAV?$AAi?$AAs?$AAu?$AAa@
  0013d	68 00 00 00 00	 push	 OFFSET ??_C@_1BCK@NINKANE@?$AAs?$AAt?$AAd?$AA?3?$AA?3?$AA_?$AAT?$AAr?$AAe?$AAe?$AA?$DM?$AAc?$AAl?$AAa?$AAs?$AAs?$AA?5?$AAs?$AAt?$AAd?$AA?3?$AA?3?$AA_?$AAT?$AAs?$AAe?$AAt?$AA_?$AAt?$AAr?$AAa?$AAi@
  00142	68 00 00 00 00	 push	 OFFSET ??_C@_1BO@MEPPHOO@?$AA?$CC?$AAo?$AAu?$AAt?$AA?5?$AAo?$AAf?$AA?5?$AAr?$AAa?$AAn?$AAg?$AAe?$AA?$CC?$AA?$AA@
  00147	ff 15 00 00 00
	00		 call	 DWORD PTR __imp___invalid_parameter
  0014d	83 c4 14	 add	 esp, 20			; 00000014H
  00150	3b f4		 cmp	 esi, esp
  00152	e8 00 00 00 00	 call	 __RTC_CheckEsp
$LN8@Dec:

; 329  : 				}
; 330  : #elif _SECURE_SCL
; 331  : 				{
; 332  :     				_SCL_SECURE_OUT_OF_RANGE;
; 333  : 				}
; 334  : #else
; 335  : 				return;	// begin() shouldn't be incremented, don't move
; 336  : #endif
; 337  : 			}

  00157	e9 27 01 00 00	 jmp	 $LN11@Dec
$LN9@Dec:

; 338  : 			else if (!_Isnil(_Left(_Ptr)))

  0015c	8b 45 fc	 mov	 eax, DWORD PTR _this$[ebp]
  0015f	8b 48 08	 mov	 ecx, DWORD PTR [eax+8]
  00162	51		 push	 ecx
  00163	e8 00 00 00 00	 call	 ?_Left@?$_Tree@V?$_Tset_traits@KU?$less@K@std@@V?$KAllocator@K@KMemory@@$0A@@std@@@std@@KAAAPAU_Node@?$_Tree_nod@V?$_Tset_traits@KU?$less@K@std@@V?$KAllocator@K@KMemory@@$0A@@std@@@2@PAU342@@Z ; std::_Tree<std::_Tset_traits<unsigned long,std::less<unsigned long>,KMemory::KAllocator<unsigned long>,0> >::_Left
  00168	83 c4 04	 add	 esp, 4
  0016b	8b 10		 mov	 edx, DWORD PTR [eax]
  0016d	52		 push	 edx
  0016e	e8 00 00 00 00	 call	 ?_Isnil@?$_Tree@V?$_Tset_traits@KU?$less@K@std@@V?$KAllocator@K@KMemory@@$0A@@std@@@std@@KAAADPAU_Node@?$_Tree_nod@V?$_Tset_traits@KU?$less@K@std@@V?$KAllocator@K@KMemory@@$0A@@std@@@2@@Z ; std::_Tree<std::_Tset_traits<unsigned long,std::less<unsigned long>,KMemory::KAllocator<unsigned long>,0> >::_Isnil
  00173	83 c4 04	 add	 esp, 4
  00176	0f be 00	 movsx	 eax, BYTE PTR [eax]
  00179	85 c0		 test	 eax, eax
  0017b	75 25		 jne	 SHORT $LN4@Dec

; 339  : 				_Ptr = _Max(_Left(_Ptr));	// ==> largest of left subtree

  0017d	8b 4d fc	 mov	 ecx, DWORD PTR _this$[ebp]
  00180	8b 51 08	 mov	 edx, DWORD PTR [ecx+8]
  00183	52		 push	 edx
  00184	e8 00 00 00 00	 call	 ?_Left@?$_Tree@V?$_Tset_traits@KU?$less@K@std@@V?$KAllocator@K@KMemory@@$0A@@std@@@std@@KAAAPAU_Node@?$_Tree_nod@V?$_Tset_traits@KU?$less@K@std@@V?$KAllocator@K@KMemory@@$0A@@std@@@2@PAU342@@Z ; std::_Tree<std::_Tset_traits<unsigned long,std::less<unsigned long>,KMemory::KAllocator<unsigned long>,0> >::_Left
  00189	83 c4 04	 add	 esp, 4
  0018c	8b 00		 mov	 eax, DWORD PTR [eax]
  0018e	50		 push	 eax
  0018f	e8 00 00 00 00	 call	 ?_Max@?$_Tree@V?$_Tset_traits@KU?$less@K@std@@V?$KAllocator@K@KMemory@@$0A@@std@@@std@@KAPAU_Node@?$_Tree_nod@V?$_Tset_traits@KU?$less@K@std@@V?$KAllocator@K@KMemory@@$0A@@std@@@2@PAU342@@Z ; std::_Tree<std::_Tset_traits<unsigned long,std::less<unsigned long>,KMemory::KAllocator<unsigned long>,0> >::_Max
  00194	83 c4 04	 add	 esp, 4
  00197	8b 4d fc	 mov	 ecx, DWORD PTR _this$[ebp]
  0019a	89 41 08	 mov	 DWORD PTR [ecx+8], eax

; 340  : 			else

  0019d	e9 e1 00 00 00	 jmp	 $LN11@Dec
$LN4@Dec:

; 341  : 				{	// climb looking for left subtree
; 342  : 				_Nodeptr _Pnode;
; 343  : 				while (!_Isnil(_Pnode = _Parent(_Ptr))
; 344  : 					&& _Ptr == _Left(_Pnode))

  001a2	8b 55 fc	 mov	 edx, DWORD PTR _this$[ebp]
  001a5	8b 42 08	 mov	 eax, DWORD PTR [edx+8]
  001a8	50		 push	 eax
  001a9	e8 00 00 00 00	 call	 ?_Parent@?$_Tree@V?$_Tset_traits@KU?$less@K@std@@V?$KAllocator@K@KMemory@@$0A@@std@@@std@@KAAAPAU_Node@?$_Tree_nod@V?$_Tset_traits@KU?$less@K@std@@V?$KAllocator@K@KMemory@@$0A@@std@@@2@PAU342@@Z ; std::_Tree<std::_Tset_traits<unsigned long,std::less<unsigned long>,KMemory::KAllocator<unsigned long>,0> >::_Parent
  001ae	83 c4 04	 add	 esp, 4
  001b1	8b 08		 mov	 ecx, DWORD PTR [eax]
  001b3	89 4d f8	 mov	 DWORD PTR __Pnode$183288[ebp], ecx
  001b6	8b 55 f8	 mov	 edx, DWORD PTR __Pnode$183288[ebp]
  001b9	52		 push	 edx
  001ba	e8 00 00 00 00	 call	 ?_Isnil@?$_Tree@V?$_Tset_traits@KU?$less@K@std@@V?$KAllocator@K@KMemory@@$0A@@std@@@std@@KAAADPAU_Node@?$_Tree_nod@V?$_Tset_traits@KU?$less@K@std@@V?$KAllocator@K@KMemory@@$0A@@std@@@2@@Z ; std::_Tree<std::_Tset_traits<unsigned long,std::less<unsigned long>,KMemory::KAllocator<unsigned long>,0> >::_Isnil
  001bf	83 c4 04	 add	 esp, 4
  001c2	0f be 00	 movsx	 eax, BYTE PTR [eax]
  001c5	85 c0		 test	 eax, eax
  001c7	75 21		 jne	 SHORT $LN3@Dec
  001c9	8b 4d f8	 mov	 ecx, DWORD PTR __Pnode$183288[ebp]
  001cc	51		 push	 ecx
  001cd	e8 00 00 00 00	 call	 ?_Left@?$_Tree@V?$_Tset_traits@KU?$less@K@std@@V?$KAllocator@K@KMemory@@$0A@@std@@@std@@KAAAPAU_Node@?$_Tree_nod@V?$_Tset_traits@KU?$less@K@std@@V?$KAllocator@K@KMemory@@$0A@@std@@@2@PAU342@@Z ; std::_Tree<std::_Tset_traits<unsigned long,std::less<unsigned long>,KMemory::KAllocator<unsigned long>,0> >::_Left
  001d2	83 c4 04	 add	 esp, 4
  001d5	8b 55 fc	 mov	 edx, DWORD PTR _this$[ebp]
  001d8	8b 4a 08	 mov	 ecx, DWORD PTR [edx+8]
  001db	3b 08		 cmp	 ecx, DWORD PTR [eax]
  001dd	75 0b		 jne	 SHORT $LN3@Dec

; 345  : 					_Ptr = _Pnode;	// ==> parent while left subtree

  001df	8b 55 fc	 mov	 edx, DWORD PTR _this$[ebp]
  001e2	8b 45 f8	 mov	 eax, DWORD PTR __Pnode$183288[ebp]
  001e5	89 42 08	 mov	 DWORD PTR [edx+8], eax
  001e8	eb b8		 jmp	 SHORT $LN4@Dec
$LN3@Dec:

; 346  : 				if (_Isnil(_Ptr))

  001ea	8b 4d fc	 mov	 ecx, DWORD PTR _this$[ebp]
  001ed	8b 51 08	 mov	 edx, DWORD PTR [ecx+8]
  001f0	52		 push	 edx
  001f1	e8 00 00 00 00	 call	 ?_Isnil@?$_Tree@V?$_Tset_traits@KU?$less@K@std@@V?$KAllocator@K@KMemory@@$0A@@std@@@std@@KAAADPAU_Node@?$_Tree_nod@V?$_Tset_traits@KU?$less@K@std@@V?$KAllocator@K@KMemory@@$0A@@std@@@2@@Z ; std::_Tree<std::_Tset_traits<unsigned long,std::less<unsigned long>,KMemory::KAllocator<unsigned long>,0> >::_Isnil
  001f6	83 c4 04	 add	 esp, 4
  001f9	0f be 00	 movsx	 eax, BYTE PTR [eax]
  001fc	85 c0		 test	 eax, eax
  001fe	74 7a		 je	 SHORT $LN2@Dec

; 347  :  #if _HAS_ITERATOR_DEBUGGING
; 348  :  					{
; 349  : 					_DEBUG_ERROR("map/set iterator not decrementable");

  00200	8b f4		 mov	 esi, esp
  00202	68 5d 01 00 00	 push	 349			; 0000015dH
  00207	68 00 00 00 00	 push	 OFFSET ??_C@_1HI@LGPIFNJI@?$AAD?$AA?3?$AA?2?$AAP?$AAr?$AAo?$AAg?$AAr?$AAa?$AAm?$AA?5?$AAF?$AAi?$AAl?$AAe?$AAs?$AA?2?$AAM?$AAi?$AAc?$AAr?$AAo?$AAs?$AAo?$AAf?$AAt?$AA?5?$AAV?$AAi?$AAs?$AAu?$AAa@
  0020c	68 00 00 00 00	 push	 OFFSET ??_C@_1EG@OKCGOALM@?$AAm?$AAa?$AAp?$AA?1?$AAs?$AAe?$AAt?$AA?5?$AAi?$AAt?$AAe?$AAr?$AAa?$AAt?$AAo?$AAr?$AA?5?$AAn?$AAo?$AAt?$AA?5?$AAd?$AAe?$AAc?$AAr?$AAe?$AAm?$AAe?$AAn?$AAt?$AAa?$AAb@
  00211	ff 15 00 00 00
	00		 call	 DWORD PTR __imp_?_Debug_message@std@@YAXPB_W0I@Z
  00217	83 c4 0c	 add	 esp, 12			; 0000000cH
  0021a	3b f4		 cmp	 esi, esp
  0021c	e8 00 00 00 00	 call	 __RTC_CheckEsp

; 350  : 					_SCL_SECURE_OUT_OF_RANGE;

  00221	33 c9		 xor	 ecx, ecx
  00223	75 2b		 jne	 SHORT $LN15@Dec
  00225	8b f4		 mov	 esi, esp
  00227	68 00 00 00 00	 push	 OFFSET ??_C@_1FG@CMLDHNON@?$AA?$CI?$AA?$CC?$AAS?$AAt?$AAa?$AAn?$AAd?$AAa?$AAr?$AAd?$AA?5?$AAC?$AA?$CL?$AA?$CL?$AA?5?$AAL?$AAi?$AAb?$AAr?$AAa?$AAr?$AAi?$AAe?$AAs?$AA?5?$AAO?$AAu?$AAt?$AA?5?$AAo?$AAf?$AA?5@
  0022c	6a 00		 push	 0
  0022e	68 5e 01 00 00	 push	 350			; 0000015eH
  00233	68 00 00 00 00	 push	 OFFSET ??_C@_1HI@LGPIFNJI@?$AAD?$AA?3?$AA?2?$AAP?$AAr?$AAo?$AAg?$AAr?$AAa?$AAm?$AA?5?$AAF?$AAi?$AAl?$AAe?$AAs?$AA?2?$AAM?$AAi?$AAc?$AAr?$AAo?$AAs?$AAo?$AAf?$AAt?$AA?5?$AAV?$AAi?$AAs?$AAu?$AAa@
  00238	6a 02		 push	 2
  0023a	ff 15 00 00 00
	00		 call	 DWORD PTR __imp___CrtDbgReportW
  00240	83 c4 14	 add	 esp, 20			; 00000014H
  00243	3b f4		 cmp	 esi, esp
  00245	e8 00 00 00 00	 call	 __RTC_CheckEsp
  0024a	83 f8 01	 cmp	 eax, 1
  0024d	75 01		 jne	 SHORT $LN15@Dec
  0024f	cc		 int	 3
$LN15@Dec:
  00250	8b f4		 mov	 esi, esp
  00252	6a 00		 push	 0
  00254	68 5e 01 00 00	 push	 350			; 0000015eH
  00259	68 00 00 00 00	 push	 OFFSET ??_C@_1HI@LGPIFNJI@?$AAD?$AA?3?$AA?2?$AAP?$AAr?$AAo?$AAg?$AAr?$AAa?$AAm?$AA?5?$AAF?$AAi?$AAl?$AAe?$AAs?$AA?2?$AAM?$AAi?$AAc?$AAr?$AAo?$AAs?$AAo?$AAf?$AAt?$AA?5?$AAV?$AAi?$AAs?$AAu?$AAa@
  0025e	68 00 00 00 00	 push	 OFFSET ??_C@_1BCK@NINKANE@?$AAs?$AAt?$AAd?$AA?3?$AA?3?$AA_?$AAT?$AAr?$AAe?$AAe?$AA?$DM?$AAc?$AAl?$AAa?$AAs?$AAs?$AA?5?$AAs?$AAt?$AAd?$AA?3?$AA?3?$AA_?$AAT?$AAs?$AAe?$AAt?$AA_?$AAt?$AAr?$AAa?$AAi@
  00263	68 00 00 00 00	 push	 OFFSET ??_C@_1BO@MEPPHOO@?$AA?$CC?$AAo?$AAu?$AAt?$AA?5?$AAo?$AAf?$AA?5?$AAr?$AAa?$AAn?$AAg?$AAe?$AA?$CC?$AA?$AA@
  00268	ff 15 00 00 00
	00		 call	 DWORD PTR __imp___invalid_parameter
  0026e	83 c4 14	 add	 esp, 20			; 00000014H
  00271	3b f4		 cmp	 esi, esp
  00273	e8 00 00 00 00	 call	 __RTC_CheckEsp

; 351  : 					}
; 352  :  #elif _SECURE_SCL
; 353  : 					{
; 354  : 					_SCL_SECURE_OUT_OF_RANGE;
; 355  : 					}
; 356  :  #else
; 357  : 					return;	// begin() shouldn't be incremented, don't move
; 358  :  #endif
; 359  : 				else

  00278	eb 09		 jmp	 SHORT $LN11@Dec
$LN2@Dec:

; 360  : 					_Ptr = _Pnode;	// ==> parent if not head

  0027a	8b 45 fc	 mov	 eax, DWORD PTR _this$[ebp]
  0027d	8b 4d f8	 mov	 ecx, DWORD PTR __Pnode$183288[ebp]
  00280	89 48 08	 mov	 DWORD PTR [eax+8], ecx
$LN11@Dec:

; 361  : 				}
; 362  : 			}

  00283	5e		 pop	 esi
  00284	83 c4 08	 add	 esp, 8
  00287	3b ec		 cmp	 ebp, esp
  00289	e8 00 00 00 00	 call	 __RTC_CheckEsp
  0028e	8b e5		 mov	 esp, ebp
  00290	5d		 pop	 ebp
  00291	c3		 ret	 0
?_Dec@const_iterator@?$_Tree@V?$_Tset_traits@KU?$less@K@std@@V?$KAllocator@K@KMemory@@$0A@@std@@@std@@QAEXXZ ENDP ; std::_Tree<std::_Tset_traits<unsigned long,std::less<unsigned long>,KMemory::KAllocator<unsigned long>,0> >::const_iterator::_Dec
_TEXT	ENDS
PUBLIC	??0?$_Bidit@UKViewObject@KPlayer@@HPBU12@ABU12@@std@@QAE@XZ ; std::_Bidit<KPlayer::KViewObject,int,KPlayer::KViewObject const *,KPlayer::KViewObject const &>::_Bidit<KPlayer::KViewObject,int,KPlayer::KViewObject const *,KPlayer::KViewObject const &>
;	COMDAT xdata$x
; File d:\program files\microsoft visual studio 8\vc\include\list
xdata$x	SEGMENT
__unwindtable$??0?$_Const_iterator@$00@?$list@UKViewObject@KPlayer@@V?$KAllocator@UKViewObject@KPlayer@@@KMemory@@@std@@QAE@PAU_Node@?$_List_nod@UKViewObject@KPlayer@@V?$KAllocator@UKViewObject@KPlayer@@@KMemory@@@2@PBV12@@Z DD 0ffffffffH
	DD	FLAT:__unwindfunclet$??0?$_Const_iterator@$00@?$list@UKViewObject@KPlayer@@V?$KAllocator@UKViewObject@KPlayer@@@KMemory@@@std@@QAE@PAU_Node@?$_List_nod@UKViewObject@KPlayer@@V?$KAllocator@UKViewObject@KPlayer@@@KMemory@@@2@PBV12@@Z$0
__ehfuncinfo$??0?$_Const_iterator@$00@?$list@UKViewObject@KPlayer@@V?$KAllocator@UKViewObject@KPlayer@@@KMemory@@@std@@QAE@PAU_Node@?$_List_nod@UKViewObject@KPlayer@@V?$KAllocator@UKViewObject@KPlayer@@@KMemory@@@2@PBV12@@Z DD 019930522H
	DD	01H
	DD	FLAT:__unwindtable$??0?$_Const_iterator@$00@?$list@UKViewObject@KPlayer@@V?$KAllocator@UKViewObject@KPlayer@@@KMemory@@@std@@QAE@PAU_Node@?$_List_nod@UKViewObject@KPlayer@@V?$KAllocator@UKViewObject@KPlayer@@@KMemory@@@2@PBV12@@Z
	DD	2 DUP(00H)
	DD	2 DUP(00H)
	DD	00H
	DD	01H
; Function compile flags: /Odtp /RTCsu
xdata$x	ENDS
;	COMDAT ??0?$_Const_iterator@$00@?$list@UKViewObject@KPlayer@@V?$KAllocator@UKViewObject@KPlayer@@@KMemory@@@std@@QAE@PAU_Node@?$_List_nod@UKViewObject@KPlayer@@V?$KAllocator@UKViewObject@KPlayer@@@KMemory@@@2@PBV12@@Z
_TEXT	SEGMENT
_this$ = -16						; size = 4
__$EHRec$ = -12						; size = 12
__Pnode$ = 8						; size = 4
__Plist$ = 12						; size = 4
??0?$_Const_iterator@$00@?$list@UKViewObject@KPlayer@@V?$KAllocator@UKViewObject@KPlayer@@@KMemory@@@std@@QAE@PAU_Node@?$_List_nod@UKViewObject@KPlayer@@V?$KAllocator@UKViewObject@KPlayer@@@KMemory@@@2@PBV12@@Z PROC ; std::list<KPlayer::KViewObject,KMemory::KAllocator<KPlayer::KViewObject> >::_Const_iterator<1>::_Const_iterator<1>, COMDAT
; _this$ = ecx

; 165  : 			{	// construct with node pointer _Pnode

  00000	55		 push	 ebp
  00001	8b ec		 mov	 ebp, esp
  00003	6a ff		 push	 -1
  00005	68 00 00 00 00	 push	 __ehhandler$??0?$_Const_iterator@$00@?$list@UKViewObject@KPlayer@@V?$KAllocator@UKViewObject@KPlayer@@@KMemory@@@std@@QAE@PAU_Node@?$_List_nod@UKViewObject@KPlayer@@V?$KAllocator@UKViewObject@KPlayer@@@KMemory@@@2@PBV12@@Z
  0000a	64 a1 00 00 00
	00		 mov	 eax, DWORD PTR fs:0
  00010	50		 push	 eax
  00011	51		 push	 ecx
  00012	c7 45 f0 cc cc
	cc cc		 mov	 DWORD PTR [ebp-16], -858993460 ; ccccccccH
  00019	a1 00 00 00 00	 mov	 eax, DWORD PTR ___security_cookie
  0001e	33 c5		 xor	 eax, ebp
  00020	50		 push	 eax
  00021	8d 45 f4	 lea	 eax, DWORD PTR __$EHRec$[ebp]
  00024	64 a3 00 00 00
	00		 mov	 DWORD PTR fs:0, eax
  0002a	89 4d f0	 mov	 DWORD PTR _this$[ebp], ecx
  0002d	8b 4d f0	 mov	 ecx, DWORD PTR _this$[ebp]
  00030	e8 00 00 00 00	 call	 ??0?$_Bidit@UKViewObject@KPlayer@@HPBU12@ABU12@@std@@QAE@XZ
  00035	c7 45 fc 00 00
	00 00		 mov	 DWORD PTR __$EHRec$[ebp+8], 0
  0003c	8b 45 f0	 mov	 eax, DWORD PTR _this$[ebp]
  0003f	8b 4d 08	 mov	 ecx, DWORD PTR __Pnode$[ebp]
  00042	89 48 08	 mov	 DWORD PTR [eax+8], ecx

; 166  : 			this->_Adopt(_Plist);

  00045	8b 55 0c	 mov	 edx, DWORD PTR __Plist$[ebp]
  00048	52		 push	 edx
  00049	8b 4d f0	 mov	 ecx, DWORD PTR _this$[ebp]
  0004c	e8 00 00 00 00	 call	 ?_Adopt@_Iterator_base@std@@QAEXPBV_Container_base@2@@Z ; std::_Iterator_base::_Adopt

; 167  : 			}

  00051	c7 45 fc ff ff
	ff ff		 mov	 DWORD PTR __$EHRec$[ebp+8], -1
  00058	8b 45 f0	 mov	 eax, DWORD PTR _this$[ebp]
  0005b	8b 4d f4	 mov	 ecx, DWORD PTR __$EHRec$[ebp]
  0005e	64 89 0d 00 00
	00 00		 mov	 DWORD PTR fs:0, ecx
  00065	59		 pop	 ecx
  00066	83 c4 10	 add	 esp, 16			; 00000010H
  00069	3b ec		 cmp	 ebp, esp
  0006b	e8 00 00 00 00	 call	 __RTC_CheckEsp
  00070	8b e5		 mov	 esp, ebp
  00072	5d		 pop	 ebp
  00073	c2 08 00	 ret	 8
_TEXT	ENDS
;	COMDAT text$x
text$x	SEGMENT
__unwindfunclet$??0?$_Const_iterator@$00@?$list@UKViewObject@KPlayer@@V?$KAllocator@UKViewObject@KPlayer@@@KMemory@@@std@@QAE@PAU_Node@?$_List_nod@UKViewObject@KPlayer@@V?$KAllocator@UKViewObject@KPlayer@@@KMemory@@@2@PBV12@@Z$0:
  00000	8b 4d f0	 mov	 ecx, DWORD PTR _this$[ebp]
  00003	e9 00 00 00 00	 jmp	 ??1?$_Bidit@UKViewObject@KPlayer@@HPBU12@ABU12@@std@@QAE@XZ
__ehhandler$??0?$_Const_iterator@$00@?$list@UKViewObject@KPlayer@@V?$KAllocator@UKViewObject@KPlayer@@@KMemory@@@std@@QAE@PAU_Node@?$_List_nod@UKViewObject@KPlayer@@V?$KAllocator@UKViewObject@KPlayer@@@KMemory@@@2@PBV12@@Z:
  00008	8b 54 24 08	 mov	 edx, DWORD PTR [esp+8]
  0000c	8d 42 0c	 lea	 eax, DWORD PTR [edx+12]
  0000f	8b 4a f8	 mov	 ecx, DWORD PTR [edx-8]
  00012	33 c8		 xor	 ecx, eax
  00014	e8 00 00 00 00	 call	 @__security_check_cookie@4
  00019	b8 00 00 00 00	 mov	 eax, OFFSET __ehfuncinfo$??0?$_Const_iterator@$00@?$list@UKViewObject@KPlayer@@V?$KAllocator@UKViewObject@KPlayer@@@KMemory@@@std@@QAE@PAU_Node@?$_List_nod@UKViewObject@KPlayer@@V?$KAllocator@UKViewObject@KPlayer@@@KMemory@@@2@PBV12@@Z
  0001e	e9 00 00 00 00	 jmp	 ___CxxFrameHandler3
text$x	ENDS
??0?$_Const_iterator@$00@?$list@UKViewObject@KPlayer@@V?$KAllocator@UKViewObject@KPlayer@@@KMemory@@@std@@QAE@PAU_Node@?$_List_nod@UKViewObject@KPlayer@@V?$KAllocator@UKViewObject@KPlayer@@@KMemory@@@2@PBV12@@Z ENDP ; std::list<KPlayer::KViewObject,KMemory::KAllocator<KPlayer::KViewObject> >::_Const_iterator<1>::_Const_iterator<1>
; Function compile flags: /Odtp /RTCsu
; File d:\program files\microsoft visual studio 8\vc\include\xtree
;	COMDAT ??0_Node@?$_Tree_nod@V?$_Tset_traits@KU?$less@K@std@@V?$KAllocator@K@KMemory@@$0A@@std@@@std@@QAE@PAU012@00ABKD@Z
_TEXT	SEGMENT
_this$ = -4						; size = 4
__Larg$ = 8						; size = 4
__Parg$ = 12						; size = 4
__Rarg$ = 16						; size = 4
__Val$ = 20						; size = 4
__Carg$ = 24						; size = 1
??0_Node@?$_Tree_nod@V?$_Tset_traits@KU?$less@K@std@@V?$KAllocator@K@KMemory@@$0A@@std@@@std@@QAE@PAU012@00ABKD@Z PROC ; std::_Tree_nod<std::_Tset_traits<unsigned long,std::less<unsigned long>,KMemory::KAllocator<unsigned long>,0> >::_Node::_Node, COMDAT
; _this$ = ecx

; 43   : 			{	// construct a node with value

  00000	55		 push	 ebp
  00001	8b ec		 mov	 ebp, esp
  00003	51		 push	 ecx
  00004	c7 45 fc cc cc
	cc cc		 mov	 DWORD PTR [ebp-4], -858993460 ; ccccccccH
  0000b	89 4d fc	 mov	 DWORD PTR _this$[ebp], ecx
  0000e	8b 45 fc	 mov	 eax, DWORD PTR _this$[ebp]
  00011	8b 4d 08	 mov	 ecx, DWORD PTR __Larg$[ebp]
  00014	89 08		 mov	 DWORD PTR [eax], ecx
  00016	8b 55 fc	 mov	 edx, DWORD PTR _this$[ebp]
  00019	8b 45 0c	 mov	 eax, DWORD PTR __Parg$[ebp]
  0001c	89 42 04	 mov	 DWORD PTR [edx+4], eax
  0001f	8b 4d fc	 mov	 ecx, DWORD PTR _this$[ebp]
  00022	8b 55 10	 mov	 edx, DWORD PTR __Rarg$[ebp]
  00025	89 51 08	 mov	 DWORD PTR [ecx+8], edx
  00028	8b 45 fc	 mov	 eax, DWORD PTR _this$[ebp]
  0002b	8b 4d 14	 mov	 ecx, DWORD PTR __Val$[ebp]
  0002e	8b 11		 mov	 edx, DWORD PTR [ecx]
  00030	89 50 0c	 mov	 DWORD PTR [eax+12], edx
  00033	8b 45 fc	 mov	 eax, DWORD PTR _this$[ebp]
  00036	8a 4d 18	 mov	 cl, BYTE PTR __Carg$[ebp]
  00039	88 48 10	 mov	 BYTE PTR [eax+16], cl
  0003c	8b 55 fc	 mov	 edx, DWORD PTR _this$[ebp]
  0003f	c6 42 11 00	 mov	 BYTE PTR [edx+17], 0

; 44   : 			}

  00043	8b 45 fc	 mov	 eax, DWORD PTR _this$[ebp]
  00046	8b e5		 mov	 esp, ebp
  00048	5d		 pop	 ebp
  00049	c2 14 00	 ret	 20			; 00000014H
??0_Node@?$_Tree_nod@V?$_Tset_traits@KU?$less@K@std@@V?$KAllocator@K@KMemory@@$0A@@std@@@std@@QAE@PAU012@00ABKD@Z ENDP ; std::_Tree_nod<std::_Tset_traits<unsigned long,std::less<unsigned long>,KMemory::KAllocator<unsigned long>,0> >::_Node::_Node
; Function compile flags: /Odtp /RTCsu
_TEXT	ENDS
;	COMDAT ??0?$_Bidit@UKViewObject@KPlayer@@HPBU12@ABU12@@std@@QAE@XZ
_TEXT	SEGMENT
_this$ = -4						; size = 4
??0?$_Bidit@UKViewObject@KPlayer@@HPBU12@ABU12@@std@@QAE@XZ PROC ; std::_Bidit<KPlayer::KViewObject,int,KPlayer::KViewObject const *,KPlayer::KViewObject const &>::_Bidit<KPlayer::KViewObject,int,KPlayer::KViewObject const *,KPlayer::KViewObject const &>, COMDAT
; _this$ = ecx
  00000	55		 push	 ebp
  00001	8b ec		 mov	 ebp, esp
  00003	51		 push	 ecx
  00004	c7 45 fc cc cc
	cc cc		 mov	 DWORD PTR [ebp-4], -858993460 ; ccccccccH
  0000b	89 4d fc	 mov	 DWORD PTR _this$[ebp], ecx
  0000e	8b 4d fc	 mov	 ecx, DWORD PTR _this$[ebp]
  00011	e8 00 00 00 00	 call	 ??0_Iterator_base@std@@QAE@XZ ; std::_Iterator_base::_Iterator_base
  00016	8b 45 fc	 mov	 eax, DWORD PTR _this$[ebp]
  00019	83 c4 04	 add	 esp, 4
  0001c	3b ec		 cmp	 ebp, esp
  0001e	e8 00 00 00 00	 call	 __RTC_CheckEsp
  00023	8b e5		 mov	 esp, ebp
  00025	5d		 pop	 ebp
  00026	c3		 ret	 0
??0?$_Bidit@UKViewObject@KPlayer@@HPBU12@ABU12@@std@@QAE@XZ ENDP ; std::_Bidit<KPlayer::KViewObject,int,KPlayer::KViewObject const *,KPlayer::KViewObject const &>::_Bidit<KPlayer::KViewObject,int,KPlayer::KViewObject const *,KPlayer::KViewObject const &>
; Function compile flags: /Odtp /RTCsu
_TEXT	ENDS
;	COMDAT ?_Max@?$_Tree@V?$_Tset_traits@KU?$less@K@std@@V?$KAllocator@K@KMemory@@$0A@@std@@@std@@KAPAU_Node@?$_Tree_nod@V?$_Tset_traits@KU?$less@K@std@@V?$KAllocator@K@KMemory@@$0A@@std@@@2@PAU342@@Z
_TEXT	SEGMENT
__Pnode$ = 8						; size = 4
?_Max@?$_Tree@V?$_Tset_traits@KU?$less@K@std@@V?$KAllocator@K@KMemory@@$0A@@std@@@std@@KAPAU_Node@?$_Tree_nod@V?$_Tset_traits@KU?$less@K@std@@V?$KAllocator@K@KMemory@@$0A@@std@@@2@PAU342@@Z PROC ; std::_Tree<std::_Tset_traits<unsigned long,std::less<unsigned long>,KMemory::KAllocator<unsigned long>,0> >::_Max, COMDAT

; 1211 : 		{	// return rightmost node in subtree at _Pnode

  00000	55		 push	 ebp
  00001	8b ec		 mov	 ebp, esp
$LN2@Max:

; 1212 : 		while (!_Isnil(_Right(_Pnode)))

  00003	8b 45 08	 mov	 eax, DWORD PTR __Pnode$[ebp]
  00006	50		 push	 eax
  00007	e8 00 00 00 00	 call	 ?_Right@?$_Tree@V?$_Tset_traits@KU?$less@K@std@@V?$KAllocator@K@KMemory@@$0A@@std@@@std@@KAAAPAU_Node@?$_Tree_nod@V?$_Tset_traits@KU?$less@K@std@@V?$KAllocator@K@KMemory@@$0A@@std@@@2@PAU342@@Z ; std::_Tree<std::_Tset_traits<unsigned long,std::less<unsigned long>,KMemory::KAllocator<unsigned long>,0> >::_Right
  0000c	83 c4 04	 add	 esp, 4
  0000f	8b 08		 mov	 ecx, DWORD PTR [eax]
  00011	51		 push	 ecx
  00012	e8 00 00 00 00	 call	 ?_Isnil@?$_Tree@V?$_Tset_traits@KU?$less@K@std@@V?$KAllocator@K@KMemory@@$0A@@std@@@std@@KAAADPAU_Node@?$_Tree_nod@V?$_Tset_traits@KU?$less@K@std@@V?$KAllocator@K@KMemory@@$0A@@std@@@2@@Z ; std::_Tree<std::_Tset_traits<unsigned long,std::less<unsigned long>,KMemory::KAllocator<unsigned long>,0> >::_Isnil
  00017	83 c4 04	 add	 esp, 4
  0001a	0f be 10	 movsx	 edx, BYTE PTR [eax]
  0001d	85 d2		 test	 edx, edx
  0001f	75 13		 jne	 SHORT $LN1@Max

; 1213 : 			_Pnode = _Right(_Pnode);

  00021	8b 45 08	 mov	 eax, DWORD PTR __Pnode$[ebp]
  00024	50		 push	 eax
  00025	e8 00 00 00 00	 call	 ?_Right@?$_Tree@V?$_Tset_traits@KU?$less@K@std@@V?$KAllocator@K@KMemory@@$0A@@std@@@std@@KAAAPAU_Node@?$_Tree_nod@V?$_Tset_traits@KU?$less@K@std@@V?$KAllocator@K@KMemory@@$0A@@std@@@2@PAU342@@Z ; std::_Tree<std::_Tset_traits<unsigned long,std::less<unsigned long>,KMemory::KAllocator<unsigned long>,0> >::_Right
  0002a	83 c4 04	 add	 esp, 4
  0002d	8b 08		 mov	 ecx, DWORD PTR [eax]
  0002f	89 4d 08	 mov	 DWORD PTR __Pnode$[ebp], ecx
  00032	eb cf		 jmp	 SHORT $LN2@Max
$LN1@Max:

; 1214 : 		return (_Pnode);

  00034	8b 45 08	 mov	 eax, DWORD PTR __Pnode$[ebp]

; 1215 : 		}

  00037	3b ec		 cmp	 ebp, esp
  00039	e8 00 00 00 00	 call	 __RTC_CheckEsp
  0003e	5d		 pop	 ebp
  0003f	c3		 ret	 0
?_Max@?$_Tree@V?$_Tset_traits@KU?$less@K@std@@V?$KAllocator@K@KMemory@@$0A@@std@@@std@@KAPAU_Node@?$_Tree_nod@V?$_Tset_traits@KU?$less@K@std@@V?$KAllocator@K@KMemory@@$0A@@std@@@2@PAU342@@Z ENDP ; std::_Tree<std::_Tset_traits<unsigned long,std::less<unsigned long>,KMemory::KAllocator<unsigned long>,0> >::_Max
; Function compile flags: /Odtp /RTCsu
; File d:\code\game\base\include\engine\kmemory.h
_TEXT	ENDS
;	COMDAT ?max_size@?$KAllocator@UKViewObject@KPlayer@@@KMemory@@QBEIXZ
_TEXT	SEGMENT
_this$ = -4						; size = 4
?max_size@?$KAllocator@UKViewObject@KPlayer@@@KMemory@@QBEIXZ PROC ; KMemory::KAllocator<KPlayer::KViewObject>::max_size, COMDAT
; _this$ = ecx

; 102  :     {

  00000	55		 push	 ebp
  00001	8b ec		 mov	 ebp, esp
  00003	51		 push	 ecx
  00004	c7 45 fc cc cc
	cc cc		 mov	 DWORD PTR [ebp-4], -858993460 ; ccccccccH
  0000b	89 4d fc	 mov	 DWORD PTR _this$[ebp], ecx

; 103  :         return (size_type)(-1) / sizeof(value_type);

  0000e	b8 ff ff ff 1f	 mov	 eax, 536870911		; 1fffffffH

; 104  :     }

  00013	8b e5		 mov	 esp, ebp
  00015	5d		 pop	 ebp
  00016	c3		 ret	 0
?max_size@?$KAllocator@UKViewObject@KPlayer@@@KMemory@@QBEIXZ ENDP ; KMemory::KAllocator<KPlayer::KViewObject>::max_size
; Function compile flags: /Odtp /RTCsu
_TEXT	ENDS
;	COMDAT ??$RawNew@UKCell@@@KMemory@@YAPAUKCell@@XZ
_TEXT	SEGMENT
$T187282 = -8						; size = 4
_pvBlock$ = -4						; size = 4
??$RawNew@UKCell@@@KMemory@@YAPAUKCell@@XZ PROC		; KMemory::RawNew<KCell>, COMDAT

; 46   : {

  00000	55		 push	 ebp
  00001	8b ec		 mov	 ebp, esp
  00003	83 ec 08	 sub	 esp, 8
  00006	56		 push	 esi
  00007	c7 45 f8 cc cc
	cc cc		 mov	 DWORD PTR [ebp-8], -858993460 ; ccccccccH
  0000e	c7 45 fc cc cc
	cc cc		 mov	 DWORD PTR [ebp-4], -858993460 ; ccccccccH

; 47   :     void* pvBlock = RawAlloc(sizeof(T));

  00015	8b f4		 mov	 esi, esp
  00017	6a 0c		 push	 12			; 0000000cH
  00019	ff 15 00 00 00
	00		 call	 DWORD PTR __imp_?RawAlloc@KMemory@@YAPAXI@Z
  0001f	83 c4 04	 add	 esp, 4
  00022	3b f4		 cmp	 esi, esp
  00024	e8 00 00 00 00	 call	 __RTC_CheckEsp
  00029	89 45 fc	 mov	 DWORD PTR _pvBlock$[ebp], eax

; 48   :     return new(pvBlock) T;

  0002c	8b 45 fc	 mov	 eax, DWORD PTR _pvBlock$[ebp]
  0002f	50		 push	 eax
  00030	6a 0c		 push	 12			; 0000000cH
  00032	e8 00 00 00 00	 call	 ??2@YAPAXIPAX@Z		; operator new
  00037	83 c4 08	 add	 esp, 8
  0003a	89 45 f8	 mov	 DWORD PTR $T187282[ebp], eax
  0003d	8b 45 f8	 mov	 eax, DWORD PTR $T187282[ebp]

; 49   : }

  00040	5e		 pop	 esi
  00041	83 c4 08	 add	 esp, 8
  00044	3b ec		 cmp	 ebp, esp
  00046	e8 00 00 00 00	 call	 __RTC_CheckEsp
  0004b	8b e5		 mov	 esp, ebp
  0004d	5d		 pop	 ebp
  0004e	c3		 ret	 0
??$RawNew@UKCell@@@KMemory@@YAPAUKCell@@XZ ENDP		; KMemory::RawNew<KCell>
; Function compile flags: /Odtp /RTCsu
_TEXT	ENDS
;	COMDAT ??$RawNew@UKDynamicCell@@@KMemory@@YAPAUKDynamicCell@@XZ
_TEXT	SEGMENT
$T187285 = -8						; size = 4
_pvBlock$ = -4						; size = 4
??$RawNew@UKDynamicCell@@@KMemory@@YAPAUKDynamicCell@@XZ PROC ; KMemory::RawNew<KDynamicCell>, COMDAT

; 46   : {

  00000	55		 push	 ebp
  00001	8b ec		 mov	 ebp, esp
  00003	83 ec 08	 sub	 esp, 8
  00006	56		 push	 esi
  00007	c7 45 f8 cc cc
	cc cc		 mov	 DWORD PTR [ebp-8], -858993460 ; ccccccccH
  0000e	c7 45 fc cc cc
	cc cc		 mov	 DWORD PTR [ebp-4], -858993460 ; ccccccccH

; 47   :     void* pvBlock = RawAlloc(sizeof(T));

  00015	8b f4		 mov	 esi, esp
  00017	6a 0e		 push	 14			; 0000000eH
  00019	ff 15 00 00 00
	00		 call	 DWORD PTR __imp_?RawAlloc@KMemory@@YAPAXI@Z
  0001f	83 c4 04	 add	 esp, 4
  00022	3b f4		 cmp	 esi, esp
  00024	e8 00 00 00 00	 call	 __RTC_CheckEsp
  00029	89 45 fc	 mov	 DWORD PTR _pvBlock$[ebp], eax

; 48   :     return new(pvBlock) T;

  0002c	8b 45 fc	 mov	 eax, DWORD PTR _pvBlock$[ebp]
  0002f	50		 push	 eax
  00030	6a 0e		 push	 14			; 0000000eH
  00032	e8 00 00 00 00	 call	 ??2@YAPAXIPAX@Z		; operator new
  00037	83 c4 08	 add	 esp, 8
  0003a	89 45 f8	 mov	 DWORD PTR $T187285[ebp], eax
  0003d	8b 45 f8	 mov	 eax, DWORD PTR $T187285[ebp]

; 49   : }

  00040	5e		 pop	 esi
  00041	83 c4 08	 add	 esp, 8
  00044	3b ec		 cmp	 ebp, esp
  00046	e8 00 00 00 00	 call	 __RTC_CheckEsp
  0004b	8b e5		 mov	 esp, ebp
  0004d	5d		 pop	 ebp
  0004e	c3		 ret	 0
??$RawNew@UKDynamicCell@@@KMemory@@YAPAUKDynamicCell@@XZ ENDP ; KMemory::RawNew<KDynamicCell>
; Function compile flags: /Odtp /RTCsu
_TEXT	ENDS
;	COMDAT ??$RawDelete@UKCell@@@KMemory@@YAXPAUKCell@@@Z
_TEXT	SEGMENT
_pObj$ = 8						; size = 4
??$RawDelete@UKCell@@@KMemory@@YAXPAUKCell@@@Z PROC	; KMemory::RawDelete<KCell>, COMDAT

; 55   : {

  00000	55		 push	 ebp
  00001	8b ec		 mov	 ebp, esp
  00003	56		 push	 esi

; 56   :     pObj->~T();
; 57   :     RawFree(pObj, sizeof(T));

  00004	8b f4		 mov	 esi, esp
  00006	6a 0c		 push	 12			; 0000000cH
  00008	8b 45 08	 mov	 eax, DWORD PTR _pObj$[ebp]
  0000b	50		 push	 eax
  0000c	ff 15 00 00 00
	00		 call	 DWORD PTR __imp_?RawFree@KMemory@@YAXPAXI@Z
  00012	83 c4 08	 add	 esp, 8
  00015	3b f4		 cmp	 esi, esp
  00017	e8 00 00 00 00	 call	 __RTC_CheckEsp

; 58   : }

  0001c	5e		 pop	 esi
  0001d	3b ec		 cmp	 ebp, esp
  0001f	e8 00 00 00 00	 call	 __RTC_CheckEsp
  00024	5d		 pop	 ebp
  00025	c3		 ret	 0
??$RawDelete@UKCell@@@KMemory@@YAXPAUKCell@@@Z ENDP	; KMemory::RawDelete<KCell>
; Function compile flags: /Odtp /RTCsu
_TEXT	ENDS
;	COMDAT ??$RawDelete@UKDynamicCell@@@KMemory@@YAXPAUKDynamicCell@@@Z
_TEXT	SEGMENT
_pObj$ = 8						; size = 4
??$RawDelete@UKDynamicCell@@@KMemory@@YAXPAUKDynamicCell@@@Z PROC ; KMemory::RawDelete<KDynamicCell>, COMDAT

; 55   : {

  00000	55		 push	 ebp
  00001	8b ec		 mov	 ebp, esp
  00003	56		 push	 esi

; 56   :     pObj->~T();
; 57   :     RawFree(pObj, sizeof(T));

  00004	8b f4		 mov	 esi, esp
  00006	6a 0e		 push	 14			; 0000000eH
  00008	8b 45 08	 mov	 eax, DWORD PTR _pObj$[ebp]
  0000b	50		 push	 eax
  0000c	ff 15 00 00 00
	00		 call	 DWORD PTR __imp_?RawFree@KMemory@@YAXPAXI@Z
  00012	83 c4 08	 add	 esp, 8
  00015	3b f4		 cmp	 esi, esp
  00017	e8 00 00 00 00	 call	 __RTC_CheckEsp

; 58   : }

  0001c	5e		 pop	 esi
  0001d	3b ec		 cmp	 ebp, esp
  0001f	e8 00 00 00 00	 call	 __RTC_CheckEsp
  00024	5d		 pop	 ebp
  00025	c3		 ret	 0
??$RawDelete@UKDynamicCell@@@KMemory@@YAXPAUKDynamicCell@@@Z ENDP ; KMemory::RawDelete<KDynamicCell>
; Function compile flags: /Odtp /RTCsu
; File d:\program files\microsoft visual studio 8\vc\include\utility
_TEXT	ENDS
;	COMDAT ??$?0Viterator@?$_Tree@V?$_Tset_traits@KU?$less@K@std@@V?$KAllocator@K@KMemory@@$0A@@std@@@std@@_N@?$pair@Viterator@?$_Tree@V?$_Tset_traits@KU?$less@K@std@@V?$KAllocator@K@KMemory@@$0A@@std@@@std@@H@std@@QAE@ABU?$pair@Viterator@?$_Tree@V?$_Tset_traits@KU?$less@K@std@@V?$KAllocator@K@KMemory@@$0A@@std@@@std@@_N@1@@Z
_TEXT	SEGMENT
_this$ = -4						; size = 4
__Right$ = 8						; size = 4
??$?0Viterator@?$_Tree@V?$_Tset_traits@KU?$less@K@std@@V?$KAllocator@K@KMemory@@$0A@@std@@@std@@_N@?$pair@Viterator@?$_Tree@V?$_Tset_traits@KU?$less@K@std@@V?$KAllocator@K@KMemory@@$0A@@std@@@std@@H@std@@QAE@ABU?$pair@Viterator@?$_Tree@V?$_Tset_traits@KU?$less@K@std@@V?$KAllocator@K@KMemory@@$0A@@std@@@std@@_N@1@@Z PROC ; std::pair<std::_Tree<std::_Tset_traits<unsigned long,std::less<unsigned long>,KMemory::KAllocator<unsigned long>,0> >::iterator,int>::pair<std::_Tree<std::_Tset_traits<unsigned long,std::less<unsigned long>,KMemory::KAllocator<unsigned long>,0> >::iterator,int><std::_Tree<std::_Tset_traits<unsigned long,std::less<unsigned long>,KMemory::KAllocator<unsigned long>,0> >::iterator,bool>, COMDAT
; _this$ = ecx

; 44   : 		{	// construct from compatible pair

  00000	55		 push	 ebp
  00001	8b ec		 mov	 ebp, esp
  00003	51		 push	 ecx
  00004	c7 45 fc cc cc
	cc cc		 mov	 DWORD PTR [ebp-4], -858993460 ; ccccccccH
  0000b	89 4d fc	 mov	 DWORD PTR _this$[ebp], ecx
  0000e	8b 45 08	 mov	 eax, DWORD PTR __Right$[ebp]
  00011	50		 push	 eax
  00012	8b 4d fc	 mov	 ecx, DWORD PTR _this$[ebp]
  00015	e8 00 00 00 00	 call	 ??0iterator@?$_Tree@V?$_Tset_traits@KU?$less@K@std@@V?$KAllocator@K@KMemory@@$0A@@std@@@std@@QAE@ABV012@@Z
  0001a	8b 4d 08	 mov	 ecx, DWORD PTR __Right$[ebp]
  0001d	0f b6 51 0c	 movzx	 edx, BYTE PTR [ecx+12]
  00021	8b 45 fc	 mov	 eax, DWORD PTR _this$[ebp]
  00024	89 50 0c	 mov	 DWORD PTR [eax+12], edx

; 45   : 		}

  00027	8b 45 fc	 mov	 eax, DWORD PTR _this$[ebp]
  0002a	83 c4 04	 add	 esp, 4
  0002d	3b ec		 cmp	 ebp, esp
  0002f	e8 00 00 00 00	 call	 __RTC_CheckEsp
  00034	8b e5		 mov	 esp, ebp
  00036	5d		 pop	 ebp
  00037	c2 04 00	 ret	 4
??$?0Viterator@?$_Tree@V?$_Tset_traits@KU?$less@K@std@@V?$KAllocator@K@KMemory@@$0A@@std@@@std@@_N@?$pair@Viterator@?$_Tree@V?$_Tset_traits@KU?$less@K@std@@V?$KAllocator@K@KMemory@@$0A@@std@@@std@@H@std@@QAE@ABU?$pair@Viterator@?$_Tree@V?$_Tset_traits@KU?$less@K@std@@V?$KAllocator@K@KMemory@@$0A@@std@@@std@@_N@1@@Z ENDP ; std::pair<std::_Tree<std::_Tset_traits<unsigned long,std::less<unsigned long>,KMemory::KAllocator<unsigned long>,0> >::iterator,int>::pair<std::_Tree<std::_Tset_traits<unsigned long,std::less<unsigned long>,KMemory::KAllocator<unsigned long>,0> >::iterator,int><std::_Tree<std::_Tset_traits<unsigned long,std::less<unsigned long>,KMemory::KAllocator<unsigned long>,0> >::iterator,bool>
_TEXT	ENDS
PUBLIC	??_C@_1CE@IGJMOCCK@?$AAi?$AAn?$AAv?$AAa?$AAl?$AAi?$AAd?$AA?5?$AAo?$AAp?$AAe?$AAr?$AAa?$AAt?$AAo?$AAr?$AA?$DM?$AA?$AA@ ; `string'
PUBLIC	??R?$less@K@std@@QBE_NABK0@Z			; std::less<unsigned long>::operator()
;	COMDAT ??_C@_1CE@IGJMOCCK@?$AAi?$AAn?$AAv?$AAa?$AAl?$AAi?$AAd?$AA?5?$AAo?$AAp?$AAe?$AAr?$AAa?$AAt?$AAo?$AAr?$AA?$DM?$AA?$AA@
; File d:\program files\microsoft visual studio 8\vc\include\xutility
CONST	SEGMENT
??_C@_1CE@IGJMOCCK@?$AAi?$AAn?$AAv?$AAa?$AAl?$AAi?$AAd?$AA?5?$AAo?$AAp?$AAe?$AAr?$AAa?$AAt?$AAo?$AAr?$AA?$DM?$AA?$AA@ DB 'i'
	DB	00H, 'n', 00H, 'v', 00H, 'a', 00H, 'l', 00H, 'i', 00H, 'd', 00H
	DB	' ', 00H, 'o', 00H, 'p', 00H, 'e', 00H, 'r', 00H, 'a', 00H, 't'
	DB	00H, 'o', 00H, 'r', 00H, '<', 00H, 00H, 00H	; `string'
; Function compile flags: /Odtp /RTCsu
CONST	ENDS
;	COMDAT ??$_Debug_lt_pred@U?$less@K@std@@KK@std@@YA_NU?$less@K@0@ABK1PB_WI@Z
_TEXT	SEGMENT
__Pred$ = 8						; size = 1
__Left$ = 12						; size = 4
__Right$ = 16						; size = 4
__Where$ = 20						; size = 4
__Line$ = 24						; size = 4
??$_Debug_lt_pred@U?$less@K@std@@KK@std@@YA_NU?$less@K@0@ABK1PB_WI@Z PROC ; std::_Debug_lt_pred<std::less<unsigned long>,unsigned long,unsigned long>, COMDAT

; 289  : 	{	// test if _Pred(_Left, _Right) and _Pred is strict weak ordering

  00000	55		 push	 ebp
  00001	8b ec		 mov	 ebp, esp
  00003	56		 push	 esi

; 290  : 	if (!_Pred(_Left, _Right))

  00004	8b 45 10	 mov	 eax, DWORD PTR __Right$[ebp]
  00007	50		 push	 eax
  00008	8b 4d 0c	 mov	 ecx, DWORD PTR __Left$[ebp]
  0000b	51		 push	 ecx
  0000c	8d 4d 08	 lea	 ecx, DWORD PTR __Pred$[ebp]
  0000f	e8 00 00 00 00	 call	 ??R?$less@K@std@@QBE_NABK0@Z ; std::less<unsigned long>::operator()
  00014	0f b6 d0	 movzx	 edx, al
  00017	85 d2		 test	 edx, edx
  00019	75 06		 jne	 SHORT $LN3@Debug_lt_p

; 291  : 		return (false);

  0001b	32 c0		 xor	 al, al
  0001d	eb 3a		 jmp	 SHORT $LN4@Debug_lt_p
  0001f	eb 36		 jmp	 SHORT $LN2@Debug_lt_p
$LN3@Debug_lt_p:

; 292  : 	else if (_Pred(_Right, _Left))

  00021	8b 45 0c	 mov	 eax, DWORD PTR __Left$[ebp]
  00024	50		 push	 eax
  00025	8b 4d 10	 mov	 ecx, DWORD PTR __Right$[ebp]
  00028	51		 push	 ecx
  00029	8d 4d 08	 lea	 ecx, DWORD PTR __Pred$[ebp]
  0002c	e8 00 00 00 00	 call	 ??R?$less@K@std@@QBE_NABK0@Z ; std::less<unsigned long>::operator()
  00031	0f b6 d0	 movzx	 edx, al
  00034	85 d2		 test	 edx, edx
  00036	74 1f		 je	 SHORT $LN2@Debug_lt_p

; 293  : 		_DEBUG_ERROR2("invalid operator<", _Where, _Line);

  00038	8b f4		 mov	 esi, esp
  0003a	8b 45 18	 mov	 eax, DWORD PTR __Line$[ebp]
  0003d	50		 push	 eax
  0003e	8b 4d 14	 mov	 ecx, DWORD PTR __Where$[ebp]
  00041	51		 push	 ecx
  00042	68 00 00 00 00	 push	 OFFSET ??_C@_1CE@IGJMOCCK@?$AAi?$AAn?$AAv?$AAa?$AAl?$AAi?$AAd?$AA?5?$AAo?$AAp?$AAe?$AAr?$AAa?$AAt?$AAo?$AAr?$AA?$DM?$AA?$AA@
  00047	ff 15 00 00 00
	00		 call	 DWORD PTR __imp_?_Debug_message@std@@YAXPB_W0I@Z
  0004d	83 c4 0c	 add	 esp, 12			; 0000000cH
  00050	3b f4		 cmp	 esi, esp
  00052	e8 00 00 00 00	 call	 __RTC_CheckEsp
$LN2@Debug_lt_p:

; 294  : 	return (true);

  00057	b0 01		 mov	 al, 1
$LN4@Debug_lt_p:

; 295  : 	}

  00059	5e		 pop	 esi
  0005a	3b ec		 cmp	 ebp, esp
  0005c	e8 00 00 00 00	 call	 __RTC_CheckEsp
  00061	5d		 pop	 ebp
  00062	c3		 ret	 0
??$_Debug_lt_pred@U?$less@K@std@@KK@std@@YA_NU?$less@K@0@ABK1PB_WI@Z ENDP ; std::_Debug_lt_pred<std::less<unsigned long>,unsigned long,unsigned long>
; Function compile flags: /Odtp /RTCsu
; File d:\program files\microsoft visual studio 8\vc\include\functional
_TEXT	ENDS
;	COMDAT ??R?$less@K@std@@QBE_NABK0@Z
_TEXT	SEGMENT
_this$ = -4						; size = 4
__Left$ = 8						; size = 4
__Right$ = 12						; size = 4
??R?$less@K@std@@QBE_NABK0@Z PROC			; std::less<unsigned long>::operator(), COMDAT
; _this$ = ecx

; 142  : 		{	// apply operator< to operands

  00000	55		 push	 ebp
  00001	8b ec		 mov	 ebp, esp
  00003	51		 push	 ecx
  00004	c7 45 fc cc cc
	cc cc		 mov	 DWORD PTR [ebp-4], -858993460 ; ccccccccH
  0000b	89 4d fc	 mov	 DWORD PTR _this$[ebp], ecx

; 143  : 		return (_Left < _Right);

  0000e	8b 45 08	 mov	 eax, DWORD PTR __Left$[ebp]
  00011	8b 4d 0c	 mov	 ecx, DWORD PTR __Right$[ebp]
  00014	8b 10		 mov	 edx, DWORD PTR [eax]
  00016	3b 11		 cmp	 edx, DWORD PTR [ecx]
  00018	1b c0		 sbb	 eax, eax
  0001a	f7 d8		 neg	 eax

; 144  : 		}

  0001c	8b e5		 mov	 esp, ebp
  0001e	5d		 pop	 ebp
  0001f	c2 08 00	 ret	 8
??R?$less@K@std@@QBE_NABK0@Z ENDP			; std::less<unsigned long>::operator()
_TEXT	ENDS
END
